Archive member included       because of file (symbol)

./lib/mac.a(star_nic.o)       /cygdrive/C/ZOTDWP2020_SDK_0.01/prod/zotdwp2020/build/obj/zotmain.o (star_nic_lan_init)
./lib/usb_host.a(usb.o)       /cygdrive/C/ZOTDWP2020_SDK_0.01/prod/zotdwp2020/build/obj/zotmain.o (usb_init)
./lib/usb_host.a(hub.o)       ./lib/usb_host.a(usb.o) (usb_hub_init)
./lib/usb_host.a(printer.o)   /cygdrive/C/ZOTDWP2020_SDK_0.01/prod/zotdwp2020/build/obj/zotmain.o (usblp_init)
./lib/usb_host.a(ehcihcd.o)   /cygdrive/C/ZOTDWP2020_SDK_0.01/prod/zotdwp2020/build/obj/zotmain.o (ehci_hcd_init)
./lib/usb_host.a(ehcihub.o)   ./lib/usb_host.a(ehcihcd.o) (ehci_hub_status_data)
./lib/usb_host.a(ehcimem.o)   ./lib/usb_host.a(ehcihcd.o) (ehci_mem_init)
./lib/usb_host.a(ehciq.o)     ./lib/usb_host.a(ehcihcd.o) (qh_completions)
./lib/usb_host.a(ehcische.o)  ./lib/usb_host.a(ehcihcd.o) (intr_submit)
./lib/usb_host.a(u2hcd.o)     ./lib/usb_host.a(ehciq.o) (usb_hcd_giveback_urb)
./lib/usb_host.a(ohci.o)      /cygdrive/C/ZOTDWP2020_SDK_0.01/prod/zotdwp2020/build/obj/zotmain.o (ohci_hcd_init)
./lib/usb_host.a(usbnet.o)    /cygdrive/C/ZOTDWP2020_SDK_0.01/prod/zotdwp2020/build/obj/zotmain.o (usbnet_init)
./lib/usb_host.a(hp1020.o)    ./lib/usb_host.a(printer.o) (HP1020_BIN)
./lib/psglobal.a(psmain.o)    /cygdrive/C/ZOTDWP2020_SDK_0.01/prod/zotdwp2020/build/obj/zotmain.o (ps_init)
./lib/psglobal.a(eeprom.o)    ./lib/usb_host.a(usbnet.o) (EEPROM_Data)
./lib/psglobal.a(rwflash.o)   ./lib/psglobal.a(eeprom.o) (WriteToFlash)
./lib/psglobal.a(led.o)       ./lib/usb_host.a(printer.o) (USB11LightToggle)
./lib/psglobal.a(pkdriver.o)  ./lib/usb_host.a(usbnet.o) (SendPacket)
./lib/psglobal.a(io.o)        /cygdrive/C/ZOTDWP2020_SDK_0.01/prod/zotdwp2020/build/obj/zotmain.o (CacheEnable)
./lib/psglobal.a(spiflash.o)  /cygdrive/C/ZOTDWP2020_SDK_0.01/prod/zotdwp2020/build/obj/zotmain.o (AT91F_SpiInit)
./lib/psglobal.a(crc32.o)     ./lib/psglobal.a(rwflash.o) (crc32)
./lib/psglobal.a(pm.o)        /cygdrive/C/ZOTDWP2020_SDK_0.01/prod/zotdwp2020/build/obj/zotmain.o (zot_idle_task_init)
./lib/psglobal.a(bridge.o)    ./lib/psglobal.a(pkdriver.o) (bdginit)
./lib/http_zot.a(endmark.o)   ./lib/psglobal.a(eeprom.o) (MyDataSize)
./lib/http_zot.a(httpd.o)     ./lib/psglobal.a(eeprom.o) (WebLangVersion)
./lib/http_zot.a(http_constant.o)
                              ./lib/http_zot.a(httpd.o) (wHdrs)
./lib/http_zot.a(gmtime.o)    ./lib/http_zot.a(httpd.o) (gmt_ptime)
./lib/http_zot.a(pfs.o)       ./lib/http_zot.a(httpd.o) (pDirList)
./lib/ipxbeui.a(ipx.o)        ./lib/psglobal.a(pkdriver.o) (IPXInput)
./lib/ipxbeui.a(netbeui.o)    ./lib/psglobal.a(pkdriver.o) (NT_NETBEUItoIPXInput)
./lib/ntps.a(ntps.o)          ./lib/psglobal.a(psmain.o) (NT3main)
./lib/ntps.a(ntudp.o)         ./lib/ntps.a(ntps.o) (NTRequestUDP)
./lib/ntps.a(ntutil.o)        ./lib/http_zot.a(httpd.o) (ANYESS)
./lib/ntps.a(ntipxbeui.o)     ./lib/ntps.a(ntps.o) (NTRequestECB)
./lib/spooler.a(prnport.o)    ./lib/usb_host.a(printer.o) (PortIO)
./lib/spooler.a(prnqueue.o)   ./lib/http_zot.a(httpd.o) (PrnUsedMessage)
./lib/novell.a(nps3.o)        ./lib/psglobal.a(psmain.o) (NovellPrintServerInit)
./lib/novell.a(banner.o)      ./lib/novell.a(nps3.o) (BannerData)
./lib/nds.a(nwcrypt.o)        ./lib/novell.a(nps3.o) (shuffle)
./lib/nds.a(ndsqueue.o)       ./lib/http_zot.a(httpd.o) (NDSConnectFlag)
./lib/nds.a(ndsmain.o)        ./lib/psglobal.a(psmain.o) (NDSmain)
./lib/nds.a(ndslogin.o)       ./lib/nds.a(ndsqueue.o) (NDSResolveName)
./lib/nds.a(mpilib.o)         ./lib/nds.a(ndslogin.o) (global_precision)
./lib/nds.a(ndscrypt.o)       ./lib/nds.a(ndslogin.o) (nwencrypt)
./lib/lpd.a(lpd.o)            ./lib/psglobal.a(psmain.o) (lpdstart)
./lib/rawtcpd.a(rawtcpd.o)    ./lib/psglobal.a(psmain.o) (rawtcpd)
./lib/ippd.a(ippd.o)          ./lib/http_zot.a(httpd.o) (ippd)
./lib/ippd.a(ippd_constant.o)
                              ./lib/ippd.a(ippd.o) (AttribTAG)
./lib/telnet.a(telserv.o)     ./lib/psglobal.a(psmain.o) (telnetstart)
./lib/telnet.a(telutil.o)     ./lib/telnet.a(telserv.o) (QuitMenu)
./lib/telnet.a(menu.o)        ./lib/telnet.a(telserv.o) (mainmenu)
./lib/tftp_zot.a(tftpd.o)     ./lib/psglobal.a(psmain.o) (tftpd)
./lib/tcpip.a(etharp.o)       ./lib/psglobal.a(pkdriver.o) (etharp_tmr)
./lib/tcpip.a(tcpip.o)        ./lib/http_zot.a(httpd.o) (Network_TCPIP_ON)
./lib/tcpip.a(ip.o)           ./lib/tcpip.a(tcpip.o) (ip_input)
./lib/tcpip.a(icmp.o)         ./lib/tcpip.a(ip.o) (icmp_input)
./lib/tcpip.a(ip_addr.o)      ./lib/tcpip.a(ip.o) (ip_addr_broadcast)
./lib/tcpip.a(ip_frag.o)      ./lib/tcpip.a(ip.o) (ip_reass)
./lib/tcpip.a(sockets.o)      ./lib/http_zot.a(httpd.o) (lwip_accept)
./lib/tcpip.a(api_lib.o)      ./lib/tcpip.a(sockets.o) (netbuf_copy_partial)
./lib/tcpip.a(api_msg.o)      ./lib/tcpip.a(tcpip.o) (api_msg_input)
./lib/tcpip.a(mem.o)          ./lib/tcpip.a(tcpip.o) (mem_init)
./lib/tcpip.a(memp.o)         ./lib/tcpip.a(tcpip.o) (memp_init)
./lib/tcpip.a(sys.o)          ./lib/tcpip.a(sockets.o) (sys_sem_wait_timeout)
./lib/tcpip.a(pbuf.o)         ./lib/usb_host.a(usbnet.o) (pbuf_alloc)
./lib/tcpip.a(stats.o)        ./lib/tcpip.a(etharp.o) (lwip_stats)
./lib/tcpip.a(raw.o)          ./lib/tcpip.a(api_msg.o) (raw_send)
./lib/tcpip.a(udp.o)          ./lib/tcpip.a(ip.o) (udp_input)
./lib/tcpip.a(tcp.o)          ./lib/tcpip.a(api_msg.o) (tcp_close)
./lib/tcpip.a(tcp_in.o)       ./lib/tcpip.a(ip.o) (tcp_input)
./lib/tcpip.a(tcp_out.o)      ./lib/tcpip.a(tcp.o) (tcp_enqueue)
./lib/tcpip.a(dhcp.o)         ./lib/tcpip.a(tcpip.o) (dhcp_discover)
./lib/tcpip.a(netif.o)        ./lib/psglobal.a(bridge.o) (netif_list)
./lib/tcpip.a(inet.o)         ./lib/ntps.a(ntudp.o) (inet_chksum_pseudo)
./lib/tcpip.a(sys_arch.o)     ./lib/tcpip.a(tcpip.o) (sys_init)
./lib/tcpip.a(linklip.o)      ./lib/tcpip.a(etharp.o) (linklocal_sem)
./lib/atalk.a(ddp.o)          ./lib/psglobal.a(pkdriver.o) (ddp_input2ambf)
./lib/atalk.a(aarp.o)         ./lib/atalk.a(ddp.o) (aarpresolve)
./lib/atalk.a(aep.o)          ./lib/psglobal.a(psmain.o) (aep_input)
./lib/atalk.a(nbp.o)          ./lib/http_zot.a(httpd.o) (GetATPortName)
./lib/atalk.a(atalkd.o)       ./lib/http_zot.a(httpd.o) (ATD_INIT_OK)
./lib/atalk.a(zip.o)          ./lib/psglobal.a(psmain.o) (zip_info_query)
./lib/atalk.a(file.o)         ./lib/ippd.a(ippd.o) (morespace)
./lib/atalk.a(papd.o)         ./lib/psglobal.a(psmain.o) (papd)
./lib/atalk.a(socket2.o)      ./lib/atalk.a(ddp.o) (pushdown2)
./lib/atalk.a(ddpsock.o)      ./lib/atalk.a(socket2.o) (so_ddp_recv)
./lib/atalk.a(atp_open.o)     ./lib/atalk.a(papd.o) (atp_open)
./lib/atalk.a(atp_clos.o)     ./lib/atalk.a(papd.o) (atp_close)
./lib/atalk.a(atp_bufs.o)     ./lib/atalk.a(atp_open.o) (free_atpbuf)
./lib/atalk.a(atp_rsel.o)     ./lib/atalk.a(papd.o) (atp_rsel)
./lib/atalk.a(atp_rreq.o)     ./lib/atalk.a(papd.o) (atp_rreq)
./lib/atalk.a(atp_srsp.o)     ./lib/atalk.a(papd.o) (atp_sresp)
./lib/atalk.a(session.o)      ./lib/atalk.a(papd.o) (pap_session)
./lib/atalk.a(atp_pkt.o)      ./lib/atalk.a(atp_rsel.o) (recv_atp)
./lib/atalk.a(atp_rrsp.o)     ./lib/atalk.a(session.o) (atp_rresp)
./lib/atalk.a(atp_sreq.o)     ./lib/atalk.a(session.o) (atp_sreq)
./lib/atalk.a(magics.o)       ./lib/atalk.a(session.o) (HadLoggedA)
./lib/atalk.a(comment.o)      ./lib/atalk.a(magics.o) (commatch)
./lib/atalk.a(queries.o)      ./lib/atalk.a(magics.o) (queries)
./lib/atalk.a(paprint.o)      ./lib/atalk.a(magics.o) (ascpaprint)
./lib/snmp.a(snmpd.o)         ./lib/psglobal.a(psmain.o) (snmpd)
./lib/snmp.a(mibmodl.o)       ./lib/snmp.a(snmpd.o) (init_modules)
./lib/snmp.a(snmpaget.o)      ./lib/snmp.a(snmpd.o) (SnmpCommunityAuth)
./lib/snmp.a(asn1.o)          ./lib/snmp.a(snmpaget.o) (asn_build_sequence)
./lib/snmp.a(snmp.o)          ./lib/snmp.a(snmpaget.o) (snmp_parse_var_op)
./lib/snmp.a(snmp_api.o)      ./lib/snmp.a(snmpaget.o) (udp_read)
./lib/snmp.a(snmpvars.o)      ./lib/snmp.a(snmp_api.o) (SnmpVersionID)
./lib/snmp.a(snmptrap.o)      ./lib/snmp.a(snmpd.o) (SendTrap)
./lib/psutility.a(joblog.o)   ./lib/http_zot.a(httpd.o) (JOBCount)
./lib/psutility.a(alert.o)    ./lib/psglobal.a(psmain.o) (mail_alert)
./lib/psutility.a(kmalloc.o)  ./lib/usb_host.a(usb.o) (kfree)
./lib/uart.a(serial.o)        /cygdrive/C/ZOTDWP2020_SDK_0.01/prod/zotdwp2020/build/obj/zotmain.o (debug_printf)
./lib/rt3070.a(rt3070_dep.o)  /cygdrive/C/ZOTDWP2020_SDK_0.01/prod/zotdwp2020/build/obj/zotmain.o (ZOT_Timer_init)
./lib/rt3070.a(cmm_data.o)    ./lib/rt3070.a(rt3070_dep.o) (DisassocParmFill)
./lib/rt3070.a(cmm_data_usb.o)
                              ./lib/rt3070.a(cmm_data.o) (RtmpUSBMgmtKickOut)
./lib/rt3070.a(cmm_info.o)    ./lib/rt3070.a(rt3070_dep.o) (Set_WirelessMode_Proc)
./lib/rt3070.a(cmm_profile.o)
                              ./lib/rt3070.a(cmm_info.o) (rstrtok)
./lib/rt3070.a(cmm_sanity.o)  ./lib/rt3070.a(cmm_info.o) (ChannelSanity)
./lib/rt3070.a(cmm_sync.o)    ./lib/rt3070.a(cmm_info.o) (BuildChannelList)
./lib/rt3070.a(cmm_wpa.o)     ./lib/rt3070.a(cmm_profile.o) (RtmpPasswordHash)
./lib/rt3070.a(cmm_wpa_adhoc.o)
                              ./lib/rt3070.a(cmm_data.o) (WpaProfileRelease)
./lib/rt3070.a(connect.o)     ./lib/rt3070.a(cmm_wpa.o) (Global_wpa_state)
./lib/rt3070.a(crypt_aes.o)   ./lib/rt3070.a(cmm_wpa.o) (AES_Key_Wrap)
./lib/rt3070.a(crypt_hmac.o)  ./lib/rt3070.a(cmm_wpa.o) (RT_HMAC_SHA1)
./lib/rt3070.a(crypt_md5.o)   ./lib/rt3070.a(crypt_hmac.o) (RT_MD5)
./lib/rt3070.a(crypt_sha2.o)  ./lib/rt3070.a(crypt_hmac.o) (RT_SHA1_End)
./lib/rt3070.a(dfs.o)         ./lib/rt3070.a(cmm_sync.o) (RadarChannelCheck)
./lib/rt3070.a(dls.o)         ./lib/rt3070.a(connect.o) (RTMPSendDLSTearDownFrame)
./lib/rt3070.a(mlme.o)        ./lib/rt3070.a(cmm_sanity.o) (CISCO_OUI)
./lib/rt3070.a(rt_ate.o)      ./lib/rt3070.a(rt3070_dep.o) (Set_ATE_TX_BW_Proc)
./lib/rt3070.a(rt_channel.o)  ./lib/rt3070.a(cmm_info.o) (N_ChannelCheck)
./lib/rt3070.a(rt_linux.o)    ./lib/rt3070.a(cmm_data_usb.o) (RTMPSendWirelessEvent)
./lib/rt3070.a(rt_rf.o)       ./lib/rt3070.a(rt_ate.o) (RT30xxReadRFRegister)
./lib/rt3070.a(rt_usb.o)      ./lib/rt3070.a(rt3070_dep.o) (rMlmeThread)
./lib/rt3070.a(rtmp_data.o)   ./lib/rt3070.a(cmm_data.o) (STARxEAPOLFrameIndicate)
./lib/rt3070.a(rtmp_init.o)   ./lib/rt3070.a(cmm_data_usb.o) (RTMPZeroMemory)
./lib/rt3070.a(rtusb_io.o)    ./lib/rt3070.a(cmm_data.o) (RTUSBReadBBPRegister)
./lib/rt3070.a(rtmp_timer.o)  ./lib/rt3070.a(mlme.o) (rtmp_timer_MlmePeriodicExec)
./lib/rt3070.a(rtusb_bulk.o)  ./lib/rt3070.a(cmm_data_usb.o) (EpToQueue)
./lib/rt3070.a(rtusb_data.o)  ./lib/rt3070.a(cmm_data.o) (RTUSBFreeDescriptorRequest)
./lib/rt3070.a(rtmp_mcu.o)    ./lib/rt3070.a(rtmp_init.o) (RtmpAsicLoadFirmware)
./lib/rt3070.a(sanity.o)      ./lib/rt3070.a(cmm_sanity.o) (GetTimBit)
./lib/rt3070.a(sync.o)        ./lib/rt3070.a(mlme.o) (SyncStateMachineInit)
./lib/rt3070.a(tdls.o)        ./lib/rt3070.a(mlme.o) (TDLS_LLC_SNAP_WITH_CATEGORY)
./lib/rt3070.a(tdls_ctrl.o)   ./lib/rt3070.a(mlme.o) (TDLS_StateMachineInit)
./lib/rt3070.a(tdls_link_mng.o)
                              ./lib/rt3070.a(tdls.o) (TDLS_BuildSetupRequest)
./lib/rt3070.a(tdls_tlv.o)    ./lib/rt3070.a(tdls_link_mng.o) (TDLS_InsertEDCAParameterSetIE)
./lib/rt3070.a(usb_main_dev.o)
                              ./lib/rt3070.a(rt3070_dep.o) (Global_pAd)
./lib/rt3070.a(wpa.o)         ./lib/rt3070.a(cmm_data_usb.o) (RTMPReportMicError)
./lib/rt3070.a(wsc.o)         ./lib/rt3070.a(mlme.o) (WscStateMachineInit)
./lib/rt3070.a(wsc_tlv.o)     ./lib/rt3070.a(wsc.o) (BuildMessageM1)
./lib/rt3070.a(wlanif.o)      ./lib/rt3070.a(usb_main_dev.o) (WirelessInitFailed)
./lib/rt3070.a(action.o)      ./lib/rt3070.a(mlme.o) (ActionStateMachineInit)
./lib/rt3070.a(assoc.o)       ./lib/rt3070.a(mlme.o) (AssocStateMachineInit)
./lib/rt3070.a(auth.o)        ./lib/rt3070.a(mlme.o) (AuthStateMachineInit)
./lib/rt3070.a(auth_rsp.o)    ./lib/rt3070.a(mlme.o) (AuthRspStateMachineInit)
./lib/rt3070.a(ba_action.o)   ./lib/rt3070.a(cmm_data.o) (ba_flush_reordering_timeout_mpdus)
./lib/rt3070.a(cmm_aes.o)     ./lib/rt3070.a(cmm_wpa.o) (RTMPSoftEncryptCCMP)
./lib/rt3070.a(cmm_asic.o)    ./lib/rt3070.a(rt_ate.o) (FreqItems3020)
./lib/rt3070.a(cmm_cfg.o)     ./lib/rt3070.a(wsc.o) (ComputeChecksum)
./lib/rt3070.a(cmm_cmd.o)     ./lib/rt3070.a(cmm_data.o) (RTEnqueueInternalCmd)
./lib/rt3070.a(cmm_mac_usb.o)
                              ./lib/rt3070.a(mlme.o) (RT28xxUsbMlmeRadioOFF)
./lib/rt3070.a(cmm_tkip.o)    ./lib/rt3070.a(rtmp_data.o) (RTMPTkipCompareMICValue)
./lib/rt3070.a(cmm_wep.o)     ./lib/rt3070.a(cmm_wpa.o) (RTMPSoftDecryptWEP)
./lib/rt3070.a(crypt_arc4.o)  ./lib/rt3070.a(cmm_tkip.o) (ARC4_INIT)
./lib/rt3070.a(crypt_dh.o)    ./lib/rt3070.a(wsc.o) (DH_PublicKey_Generate)
./lib/rt3070.a(ee_efuse.o)    ./lib/rt3070.a(rtmp_init.o) (RtmpEfuseSupportCheck)
./lib/rt3070.a(eeprom_rt3070.o)
                              ./lib/rt3070.a(rtmp_init.o) (RtmpChipOpsEepromHook)
./lib/rt3070.a(rt30xx.o)      ./lib/rt3070.a(rt_rf.o) (RT3020_RFRegTable)
./lib/rt3070.a(rt3070.o)      ./lib/rt3070.a(rt_rf.o) (NICInitRT3070RFRegisters)
./lib/rt3070.a(rt_main_dev.o)
                              ./lib/rt3070.a(usb_main_dev.o) (RtmpPhyNetDevInit)
./lib/rt3070.a(rtmp_init_inf.o)
                              ./lib/rt3070.a(rt_main_dev.o) (rt28xx_init)
./lib/rt3070.a(rtusb_dev_id.o)
                              ./lib/rt3070.a(usb_main_dev.o) (rtusb_dev_id)
./lib/rt3070.a(spectrum.o)    ./lib/rt3070.a(action.o) (PeerSpectrumAction)
./lib/rt3070.a(sta_cfg.o)     ./lib/rt3070.a(wsc.o) (Set_WscGetConf_Proc)
./lib/rt3070.a(sta_ioctl.o)   ./lib/rt3070.a(wlanif.o) (rt_ioctl_siwscan)
./lib/rt3070.a(crypt_biginteger.o)
                              ./lib/rt3070.a(crypt_dh.o) (BigInteger_BI2Bin)
./lib/rt3070.a(rt_profile.o)  ./lib/rt3070.a(rtmp_init_inf.o) (RTMPReadParametersHook)
./lib/rendezvous.a(Responder.o)
                              ./lib/mac.a(star_nic.o) (ether_port_down)
./lib/rendezvous.a(mDNS.o)    ./lib/rendezvous.a(Responder.o) (mDNSInterface_Any)
./lib/rendezvous.a(mDNSPosix.o)
                              ./lib/rendezvous.a(mDNS.o) (LogMsg)
./lib/rendezvous.a(mDNSUNP.o)
                              ./lib/rendezvous.a(mDNSPosix.o) (get_ifi_info)
/cygdrive/C/ZOTDWP2020_SDK_0.01/ecos/ecos_install/lib/libtarget.a(infra_startup.o)
                              /cygdrive/C/ZOTDWP2020_SDK_0.01/ecos/ecos_install/lib/vectors.o (cyg_start)
/cygdrive/C/ZOTDWP2020_SDK_0.01/ecos/ecos_install/lib/libtarget.a(infra_prestart.o)
                              /cygdrive/C/ZOTDWP2020_SDK_0.01/ecos/ecos_install/lib/libtarget.a(infra_startup.o) (cyg_prestart)
/cygdrive/C/ZOTDWP2020_SDK_0.01/ecos/ecos_install/lib/libtarget.a(infra_pkgstart.o)
                              /cygdrive/C/ZOTDWP2020_SDK_0.01/ecos/ecos_install/lib/libtarget.a(infra_startup.o) (cyg_package_start)
/cygdrive/C/ZOTDWP2020_SDK_0.01/ecos/ecos_install/lib/libtarget.a(infra_diag.o)
                              /cygdrive/C/ZOTDWP2020_SDK_0.01/ecos/ecos_install/lib/extras.o (diag_printf)
/cygdrive/C/ZOTDWP2020_SDK_0.01/ecos/ecos_install/lib/libtarget.a(infra_memcpy.o)
                              ./lib/mac.a(star_nic.o) (memcpy)
/cygdrive/C/ZOTDWP2020_SDK_0.01/ecos/ecos_install/lib/libtarget.a(infra_memset.o)
                              ./lib/mac.a(star_nic.o) (memset)
/cygdrive/C/ZOTDWP2020_SDK_0.01/ecos/ecos_install/lib/libtarget.a(kernel_kapi.o)
                              ./lib/psglobal.a(rwflash.o) (cyg_scheduler_lock)
/cygdrive/C/ZOTDWP2020_SDK_0.01/ecos/ecos_install/lib/libtarget.a(kernel_thread.o)
                              /cygdrive/C/ZOTDWP2020_SDK_0.01/ecos/ecos_install/lib/libtarget.a(kernel_kapi.o) (Cyg_Thread::exit(void))
/cygdrive/C/ZOTDWP2020_SDK_0.01/ecos/ecos_install/lib/libtarget.a(kernel_except.o)
                              /cygdrive/C/ZOTDWP2020_SDK_0.01/ecos/ecos_install/lib/libtarget.a(kernel_kapi.o) (Cyg_Exception_Control::register_exception(int, void (*)(unsigned int, int, unsigned int), unsigned int, void (**)(unsigned int, int, unsigned int), unsigned int *))
/cygdrive/C/ZOTDWP2020_SDK_0.01/ecos/ecos_install/lib/libtarget.a(kernel_intr.o)
                              /cygdrive/C/ZOTDWP2020_SDK_0.01/ecos/ecos_install/lib/libtarget.a(kernel_kapi.o) (Cyg_Interrupt::Cyg_Interrupt(unsigned int, int, unsigned int, unsigned int (*)(unsigned int, unsigned int), void (*)(unsigned int, unsigned int, unsigned int)))
/cygdrive/C/ZOTDWP2020_SDK_0.01/ecos/ecos_install/lib/libtarget.a(kernel_memfixed.o)
                              /cygdrive/C/ZOTDWP2020_SDK_0.01/ecos/ecos_install/lib/libtarget.a(kernel_kapi.o) (Cyg_Mempool_Fixed::Cyg_Mempool_Fixed(unsigned char *, int, unsigned int))
/cygdrive/C/ZOTDWP2020_SDK_0.01/ecos/ecos_install/lib/libtarget.a(kernel_memvar.o)
                              /cygdrive/C/ZOTDWP2020_SDK_0.01/ecos/ecos_install/lib/libtarget.a(kernel_kapi.o) (Cyg_Mempool_Variable::Cyg_Mempool_Variable(unsigned char *, int))
/cygdrive/C/ZOTDWP2020_SDK_0.01/ecos/ecos_install/lib/libtarget.a(kernel_mlqueue.o)
                              /cygdrive/C/ZOTDWP2020_SDK_0.01/ecos/ecos_install/lib/libtarget.a(kernel_thread.o) (Cyg_Scheduler_Implementation::timeslice_count)
/cygdrive/C/ZOTDWP2020_SDK_0.01/ecos/ecos_install/lib/libtarget.a(kernel_sched.o)
                              /cygdrive/C/ZOTDWP2020_SDK_0.01/ecos/ecos_install/lib/vectors.o (cyg_scheduler_sched_lock)
/cygdrive/C/ZOTDWP2020_SDK_0.01/ecos/ecos_install/lib/libtarget.a(kernel_cnt_sem.o)
                              /cygdrive/C/ZOTDWP2020_SDK_0.01/ecos/ecos_install/lib/libtarget.a(kernel_kapi.o) (Cyg_Counting_Semaphore::Cyg_Counting_Semaphore(int))
/cygdrive/C/ZOTDWP2020_SDK_0.01/ecos/ecos_install/lib/libtarget.a(kernel_flag.o)
                              /cygdrive/C/ZOTDWP2020_SDK_0.01/ecos/ecos_install/lib/libtarget.a(kernel_kapi.o) (Cyg_Flag::Cyg_Flag(unsigned int))
/cygdrive/C/ZOTDWP2020_SDK_0.01/ecos/ecos_install/lib/libtarget.a(kernel_mbox.o)
                              /cygdrive/C/ZOTDWP2020_SDK_0.01/ecos/ecos_install/lib/libtarget.a(kernel_kapi.o) (Cyg_Mbox::Cyg_Mbox(void))
/cygdrive/C/ZOTDWP2020_SDK_0.01/ecos/ecos_install/lib/libtarget.a(kernel_mutex.o)
                              /cygdrive/C/ZOTDWP2020_SDK_0.01/ecos/ecos_install/lib/libtarget.a(kernel_kapi.o) (Cyg_Mutex::Cyg_Mutex(void))
/cygdrive/C/ZOTDWP2020_SDK_0.01/ecos/ecos_install/lib/libtarget.a(language_c_libc_isalnum.o)
                              ./lib/http_zot.a(httpd.o) (isalnum)
/cygdrive/C/ZOTDWP2020_SDK_0.01/ecos/ecos_install/lib/libtarget.a(language_c_libc_isalpha.o)
                              /cygdrive/C/ZOTDWP2020_SDK_0.01/ecos/ecos_install/lib/libtarget.a(language_c_libc_isalnum.o) (_isalpha)
/cygdrive/C/ZOTDWP2020_SDK_0.01/ecos/ecos_install/lib/libtarget.a(language_c_libc_isdigit.o)
                              ./lib/psglobal.a(psmain.o) (isdigit)
/cygdrive/C/ZOTDWP2020_SDK_0.01/ecos/ecos_install/lib/libtarget.a(language_c_libc_islower.o)
                              ./lib/rt3070.a(cmm_profile.o) (islower)
/cygdrive/C/ZOTDWP2020_SDK_0.01/ecos/ecos_install/lib/libtarget.a(language_c_libc_isprint.o)
                              ./lib/ntps.a(ntudp.o) (isprint)
/cygdrive/C/ZOTDWP2020_SDK_0.01/ecos/ecos_install/lib/libtarget.a(language_c_libc_isspace.o)
                              ./lib/rt3070.a(cmm_profile.o) (isspace)
/cygdrive/C/ZOTDWP2020_SDK_0.01/ecos/ecos_install/lib/libtarget.a(language_c_libc_isupper.o)
                              /cygdrive/C/ZOTDWP2020_SDK_0.01/ecos/ecos_install/lib/libtarget.a(language_c_libc_isalpha.o) (_isupper)
/cygdrive/C/ZOTDWP2020_SDK_0.01/ecos/ecos_install/lib/libtarget.a(language_c_libc_isxdigit.o)
                              ./lib/http_zot.a(httpd.o) (isxdigit)
/cygdrive/C/ZOTDWP2020_SDK_0.01/ecos/ecos_install/lib/libtarget.a(language_c_libc_toupper.o)
                              ./lib/spooler.a(prnport.o) (toupper)
/cygdrive/C/ZOTDWP2020_SDK_0.01/ecos/ecos_install/lib/libtarget.a(language_c_libc_errno.o)
                              ./lib/rendezvous.a(mDNSPosix.o) (errno)
/cygdrive/C/ZOTDWP2020_SDK_0.01/ecos/ecos_install/lib/libtarget.a(language_c_libc_sprintf.o)
                              ./lib/usb_host.a(usb.o) (sprintf)
/cygdrive/C/ZOTDWP2020_SDK_0.01/ecos/ecos_install/lib/libtarget.a(language_c_libc_sscanf.o)
                              ./lib/rt3070.a(sta_ioctl.o) (sscanf)
/cygdrive/C/ZOTDWP2020_SDK_0.01/ecos/ecos_install/lib/libtarget.a(language_c_libc_stderr.o)
                              ./lib/rendezvous.a(Responder.o) (cyg_libc_stdio_stderr)
/cygdrive/C/ZOTDWP2020_SDK_0.01/ecos/ecos_install/lib/libtarget.a(language_c_libc_stdiofiles.o)
                              /cygdrive/C/ZOTDWP2020_SDK_0.01/ecos/ecos_install/lib/libtarget.a(language_c_libc_stderr.o) (Cyg_libc_stdio_files::files)
/cygdrive/C/ZOTDWP2020_SDK_0.01/ecos/ecos_install/lib/libtarget.a(language_c_libc_stdioinlines.o)
                              ./lib/psutility.a(alert.o) (vsprintf)
/cygdrive/C/ZOTDWP2020_SDK_0.01/ecos/ecos_install/lib/libtarget.a(language_c_libc_stdiosupp.o)
                              /cygdrive/C/ZOTDWP2020_SDK_0.01/ecos/ecos_install/lib/libtarget.a(language_c_libc_stderr.o) (Cyg_libc_stdio_find_filename)
/cygdrive/C/ZOTDWP2020_SDK_0.01/ecos/ecos_install/lib/libtarget.a(language_c_libc_stdout.o)
                              /cygdrive/C/ZOTDWP2020_SDK_0.01/ecos/ecos_install/lib/libtarget.a(language_c_libc_stdioinlines.o) (cyg_libc_stdio_stdout)
/cygdrive/C/ZOTDWP2020_SDK_0.01/ecos/ecos_install/lib/libtarget.a(language_c_libc_stream.o)
                              /cygdrive/C/ZOTDWP2020_SDK_0.01/ecos/ecos_install/lib/libtarget.a(language_c_libc_stderr.o) (Cyg_StdioStream::Cyg_StdioStream(void *, Cyg_StdioStream::OpenMode, bool, bool, int, unsigned int, unsigned char *))
/cygdrive/C/ZOTDWP2020_SDK_0.01/ecos/ecos_install/lib/libtarget.a(language_c_libc_ungetc.o)
                              ./lib/rendezvous.a(Responder.o) (ungetc)
/cygdrive/C/ZOTDWP2020_SDK_0.01/ecos/ecos_install/lib/libtarget.a(language_c_libc_vsnprintf.o)
                              /cygdrive/C/ZOTDWP2020_SDK_0.01/ecos/ecos_install/lib/libtarget.a(language_c_libc_sprintf.o) (_vsnprintf)
/cygdrive/C/ZOTDWP2020_SDK_0.01/ecos/ecos_install/lib/libtarget.a(language_c_libc_vsscanf.o)
                              /cygdrive/C/ZOTDWP2020_SDK_0.01/ecos/ecos_install/lib/libtarget.a(language_c_libc_sscanf.o) (_vsscanf)
/cygdrive/C/ZOTDWP2020_SDK_0.01/ecos/ecos_install/lib/libtarget.a(language_c_libc_fgetc.o)
                              ./lib/rendezvous.a(Responder.o) (fgetc)
/cygdrive/C/ZOTDWP2020_SDK_0.01/ecos/ecos_install/lib/libtarget.a(language_c_libc_fprintf.o)
                              ./lib/rendezvous.a(Responder.o) (fprintf)
/cygdrive/C/ZOTDWP2020_SDK_0.01/ecos/ecos_install/lib/libtarget.a(language_c_libc_fputc.o)
                              /cygdrive/C/ZOTDWP2020_SDK_0.01/ecos/ecos_install/lib/libtarget.a(language_c_libc_stdioinlines.o) (fputc)
/cygdrive/C/ZOTDWP2020_SDK_0.01/ecos/ecos_install/lib/libtarget.a(language_c_libc_fputs.o)
                              /cygdrive/C/ZOTDWP2020_SDK_0.01/ecos/ecos_install/lib/libtarget.a(language_c_libc_stdioinlines.o) (_fputs)
/cygdrive/C/ZOTDWP2020_SDK_0.01/ecos/ecos_install/lib/libtarget.a(language_c_libc_printf.o)
                              ./lib/usb_host.a(usb.o) (printf)
/cygdrive/C/ZOTDWP2020_SDK_0.01/ecos/ecos_install/lib/libtarget.a(language_c_libc_vfnprintf.o)
                              /cygdrive/C/ZOTDWP2020_SDK_0.01/ecos/ecos_install/lib/libtarget.a(language_c_libc_stdioinlines.o) (_vfnprintf)
/cygdrive/C/ZOTDWP2020_SDK_0.01/ecos/ecos_install/lib/libtarget.a(language_c_libc_atoi.o)
                              ./lib/psglobal.a(psmain.o) (atoi)
/cygdrive/C/ZOTDWP2020_SDK_0.01/ecos/ecos_install/lib/libtarget.a(language_c_libc_atol.o)
                              ./lib/http_zot.a(httpd.o) (atol)
/cygdrive/C/ZOTDWP2020_SDK_0.01/ecos/ecos_install/lib/libtarget.a(language_c_libc_malloc.o)
                              ./lib/http_zot.a(httpd.o) (calloc)
/cygdrive/C/ZOTDWP2020_SDK_0.01/ecos/ecos_install/lib/libtarget.a(language_c_libc_rand.o)
                              ./lib/psglobal.a(psmain.o) (rand)
/cygdrive/C/ZOTDWP2020_SDK_0.01/ecos/ecos_install/lib/libtarget.a(language_c_libc_strtol.o)
                              ./lib/ippd.a(ippd.o) (strtol)
/cygdrive/C/ZOTDWP2020_SDK_0.01/ecos/ecos_install/lib/libtarget.a(language_c_libc_memchr.o)
                              /cygdrive/C/ZOTDWP2020_SDK_0.01/ecos/ecos_install/lib/libtarget.a(language_c_libc_vfnprintf.o) (_memchr)
/cygdrive/C/ZOTDWP2020_SDK_0.01/ecos/ecos_install/lib/libtarget.a(language_c_libc_memcmp.o)
                              ./lib/usb_host.a(hub.o) (memcmp)
/cygdrive/C/ZOTDWP2020_SDK_0.01/ecos/ecos_install/lib/libtarget.a(language_c_libc_memmove.o)
                              ./lib/rt3070.a(rt3070_dep.o) (memmove)
/cygdrive/C/ZOTDWP2020_SDK_0.01/ecos/ecos_install/lib/libtarget.a(language_c_libc_strcat.o)
                              ./lib/ippd.a(ippd.o) (strcat)
/cygdrive/C/ZOTDWP2020_SDK_0.01/ecos/ecos_install/lib/libtarget.a(language_c_libc_strchr.o)
                              ./lib/psglobal.a(psmain.o) (strchr)
/cygdrive/C/ZOTDWP2020_SDK_0.01/ecos/ecos_install/lib/libtarget.a(language_c_libc_strcmp.o)
                              ./lib/psglobal.a(rwflash.o) (strcmp)
/cygdrive/C/ZOTDWP2020_SDK_0.01/ecos/ecos_install/lib/libtarget.a(language_c_libc_strcpy.o)
                              ./lib/usb_host.a(u2hcd.o) (strcpy)
/cygdrive/C/ZOTDWP2020_SDK_0.01/ecos/ecos_install/lib/libtarget.a(language_c_libc_strlen.o)
                              ./lib/psglobal.a(psmain.o) (strlen)
/cygdrive/C/ZOTDWP2020_SDK_0.01/ecos/ecos_install/lib/libtarget.a(language_c_libc_strncat.o)
                              ./lib/uart.a(serial.o) (strncat)
/cygdrive/C/ZOTDWP2020_SDK_0.01/ecos/ecos_install/lib/libtarget.a(language_c_libc_strncmp.o)
                              ./lib/http_zot.a(httpd.o) (strncmp)
/cygdrive/C/ZOTDWP2020_SDK_0.01/ecos/ecos_install/lib/libtarget.a(language_c_libc_strncpy.o)
                              ./lib/uart.a(serial.o) (strncpy)
/cygdrive/C/ZOTDWP2020_SDK_0.01/ecos/ecos_install/lib/libtarget.a(language_c_libc_strpbrk.o)
                              ./lib/rt3070.a(cmm_profile.o) (strpbrk)
/cygdrive/C/ZOTDWP2020_SDK_0.01/ecos/ecos_install/lib/libtarget.a(language_c_libc_strrchr.o)
                              ./lib/http_zot.a(httpd.o) (strrchr)
/cygdrive/C/ZOTDWP2020_SDK_0.01/ecos/ecos_install/lib/libtarget.a(language_c_libc_strspn.o)
                              ./lib/rt3070.a(cmm_profile.o) (strspn)
/cygdrive/C/ZOTDWP2020_SDK_0.01/ecos/ecos_install/lib/libtarget.a(language_c_libc_strstr.o)
                              ./lib/http_zot.a(httpd.o) (strstr)
/cygdrive/C/ZOTDWP2020_SDK_0.01/ecos/ecos_install/lib/libtarget.a(language_c_libc_strsuppt.o)
                              /cygdrive/C/ZOTDWP2020_SDK_0.01/ecos/ecos_install/lib/libtarget.a(language_c_libc_memchr.o) (Cyg_libc_str_null_mask_1)
/cygdrive/C/ZOTDWP2020_SDK_0.01/ecos/ecos_install/lib/libtarget.a(language_c_libc_strtok.o)
                              ./lib/telnet.a(telutil.o) (strtok)
/cygdrive/C/ZOTDWP2020_SDK_0.01/ecos/ecos_install/lib/libtarget.a(language_c_libc_ctime.o)
                              ./lib/psutility.a(alert.o) (ctime)
/cygdrive/C/ZOTDWP2020_SDK_0.01/ecos/ecos_install/lib/libtarget.a(language_c_libc_localtime.o)
                              /cygdrive/C/ZOTDWP2020_SDK_0.01/ecos/ecos_install/lib/libtarget.a(language_c_libc_ctime.o) (__localtime)
/cygdrive/C/ZOTDWP2020_SDK_0.01/ecos/ecos_install/lib/libtarget.a(language_c_libc_localtime_r.o)
                              /cygdrive/C/ZOTDWP2020_SDK_0.01/ecos/ecos_install/lib/libtarget.a(language_c_libc_localtime.o) (__localtime_r)
/cygdrive/C/ZOTDWP2020_SDK_0.01/ecos/ecos_install/lib/libtarget.a(language_c_libc_time.o)
                              ./lib/psutility.a(alert.o) (time)
/cygdrive/C/ZOTDWP2020_SDK_0.01/ecos/ecos_install/lib/libtarget.a(language_c_libc_timeutil.o)
                              /cygdrive/C/ZOTDWP2020_SDK_0.01/ecos/ecos_install/lib/libtarget.a(language_c_libc_localtime_r.o) (cyg_libc_time_current_std_offset)
/cygdrive/C/ZOTDWP2020_SDK_0.01/ecos/ecos_install/lib/libtarget.a(devs_wallclock_emulate.o)
                              /cygdrive/C/ZOTDWP2020_SDK_0.01/ecos/ecos_install/lib/libtarget.a(language_c_libc_time.o) (Cyg_WallClock::wallclock)
/cygdrive/C/ZOTDWP2020_SDK_0.01/ecos/ecos_install/lib/libtarget.a(error_strerror.o)
                              /cygdrive/C/ZOTDWP2020_SDK_0.01/ecos/ecos_install/lib/libtarget.a(language_c_libc_stdioinlines.o) (strerror)
/cygdrive/C/ZOTDWP2020_SDK_0.01/ecos/ecos_install/lib/libtarget.a(hal_arm_arch_hal_misc.o)
                              /cygdrive/C/ZOTDWP2020_SDK_0.01/ecos/ecos_install/lib/vectors.o (exception_handler)
/cygdrive/C/ZOTDWP2020_SDK_0.01/ecos/ecos_install/lib/libtarget.a(hal_arm_arch_context.o)
                              /cygdrive/C/ZOTDWP2020_SDK_0.01/ecos/ecos_install/lib/libtarget.a(kernel_sched.o) (hal_thread_switch_context)
/cygdrive/C/ZOTDWP2020_SDK_0.01/ecos/ecos_install/lib/libtarget.a(hal_arm_zot716u2_zot716u2_misc.o)
                              /cygdrive/C/ZOTDWP2020_SDK_0.01/ecos/ecos_install/lib/libtarget.a(kernel_intr.o) (hal_interrupt_mask)
/cygdrive/C/ZOTDWP2020_SDK_0.01/ecos/ecos_install/lib/libtarget.a(hal_arm_zot716u2_hal_diag.o)
                              /cygdrive/C/ZOTDWP2020_SDK_0.01/ecos/ecos_install/lib/libtarget.a(infra_diag.o) (hal_diag_init)
/cygdrive/C/ZOTDWP2020_SDK_0.01/ecos/ecos_install/lib/libtarget.a(infra_delete.o)
                              /cygdrive/C/ZOTDWP2020_SDK_0.01/ecos/ecos_install/lib/libtarget.a(kernel_thread.o) (__builtin_delete)
/cygdrive/C/ZOTDWP2020_SDK_0.01/ecos/ecos_install/lib/libtarget.a(kernel_clock.o)
                              /cygdrive/C/ZOTDWP2020_SDK_0.01/ecos/ecos_install/lib/libtarget.a(kernel_kapi.o) (Cyg_Clock::real_time_clock)
/cygdrive/C/ZOTDWP2020_SDK_0.01/ecos/ecos_install/lib/libtarget.a(language_c_libc_setvbuf.o)
                              /cygdrive/C/ZOTDWP2020_SDK_0.01/ecos/ecos_install/lib/libtarget.a(language_c_libc_stdioinlines.o) (_setvbuf)
/cygdrive/C/ZOTDWP2020_SDK_0.01/ecos/ecos_install/lib/libtarget.a(language_c_libc_stdin.o)
                              /cygdrive/C/ZOTDWP2020_SDK_0.01/ecos/ecos_install/lib/libtarget.a(language_c_libc_fgetc.o) (cyg_libc_stdio_stdin)
/cygdrive/C/ZOTDWP2020_SDK_0.01/ecos/ecos_install/lib/libtarget.a(language_c_libc_div.o)
                              /cygdrive/C/ZOTDWP2020_SDK_0.01/ecos/ecos_install/lib/libtarget.a(language_c_libc_timeutil.o) (div)
/cygdrive/C/ZOTDWP2020_SDK_0.01/ecos/ecos_install/lib/libtarget.a(language_c_libc_asctime.o)
                              /cygdrive/C/ZOTDWP2020_SDK_0.01/ecos/ecos_install/lib/libtarget.a(language_c_libc_ctime.o) (__asctime)
/cygdrive/C/ZOTDWP2020_SDK_0.01/ecos/ecos_install/lib/libtarget.a(language_c_libc_asctime_r.o)
                              /cygdrive/C/ZOTDWP2020_SDK_0.01/ecos/ecos_install/lib/libtarget.a(language_c_libc_asctime.o) (__asctime_r)
/cygdrive/C/ZOTDWP2020_SDK_0.01/ecos/ecos_install/lib/libtarget.a(language_c_libc_gmtime_r.o)
                              /cygdrive/C/ZOTDWP2020_SDK_0.01/ecos/ecos_install/lib/libtarget.a(language_c_libc_localtime_r.o) (__gmtime_r)
/cygdrive/C/ZOTDWP2020_SDK_0.01/ecos/ecos_install/lib/libtarget.a(language_c_libc_itoa.o)
                              /cygdrive/C/ZOTDWP2020_SDK_0.01/ecos/ecos_install/lib/libtarget.a(language_c_libc_asctime_r.o) (cyg_libc_itoa)
/tools/H-i686-pc-cygwin/lib/gcc-lib/arm-elf/2.95.2/libgcc.a(_ctors.o)
                              /cygdrive/C/ZOTDWP2020_SDK_0.01/ecos/ecos_install/lib/libtarget.a(hal_arm_arch_hal_misc.o) (__CTOR_LIST__)
/tools/H-i686-pc-cygwin/lib/gcc-lib/arm-elf/2.95.2/libgcc.a(_divsi3.o)
                              ./lib/usb_host.a(usb.o) (__divsi3)
/tools/H-i686-pc-cygwin/lib/gcc-lib/arm-elf/2.95.2/libgcc.a(_dvmd_tls.o)
                              /tools/H-i686-pc-cygwin/lib/gcc-lib/arm-elf/2.95.2/libgcc.a(_divsi3.o) (__div0)
/tools/H-i686-pc-cygwin/lib/gcc-lib/arm-elf/2.95.2/libgcc.a(_modsi3.o)
                              ./lib/usb_host.a(ehciq.o) (__modsi3)
/tools/H-i686-pc-cygwin/lib/gcc-lib/arm-elf/2.95.2/libgcc.a(_udivdi3.o)
                              /cygdrive/C/ZOTDWP2020_SDK_0.01/ecos/ecos_install/lib/libtarget.a(language_c_libc_vfnprintf.o) (__udivdi3)
/tools/H-i686-pc-cygwin/lib/gcc-lib/arm-elf/2.95.2/libgcc.a(_udivsi3.o)
                              ./lib/mac.a(star_nic.o) (__udivsi3)
/tools/H-i686-pc-cygwin/lib/gcc-lib/arm-elf/2.95.2/libgcc.a(_umoddi3.o)
                              /cygdrive/C/ZOTDWP2020_SDK_0.01/ecos/ecos_install/lib/libtarget.a(language_c_libc_vfnprintf.o) (__umoddi3)
/tools/H-i686-pc-cygwin/lib/gcc-lib/arm-elf/2.95.2/libgcc.a(_umodsi3.o)
                              ./lib/usb_host.a(ehcihcd.o) (__umodsi3)

Allocating common symbols
Common symbol       size              file

ReceiveWDogECB      0x38              ./lib/novell.a(nps3.o)
NDSReceiveWDogIPXHeader
                    0x20              ./lib/nds.a(ndsmain.o)
IntoNPS3main        0x4               ./lib/novell.a(nps3.o)
SendPsECB           0x38              ./lib/novell.a(nps3.o)
mvAuthenticationType
                    0x4               ./lib/rt3070.a(wlanif.o)
NDSReceiveWDogData  0x4               ./lib/nds.a(ndsmain.o)
snmp_inreadonlys    0x4               ./lib/snmp.a(snmpvars.o)
usb_usb_send        0x4               ./lib/psglobal.a(pkdriver.o)
urb_sem             0x8               ./lib/usb_host.a(usb.o)
SIGNAL_IPX_UPGRADE_DATA
                    0x8               ./lib/ntps.a(ntipxbeui.o)
rRtmpTimerQThread   0x8               ./lib/rt3070.a(rt_usb.o)
munit_prec          0x4               ./lib/nds.a(mpilib.o)
QC0_Defualt_EEPROM  0x580             ./lib/psglobal.a(eeprom.o)
SendWDogECB         0x38              ./lib/novell.a(nps3.o)
dhcp_sem            0x8               ./lib/tcpip.a(tcpip.o)
NDSReceiveWDogECB   0x38              ./lib/nds.a(ndsmain.o)
pDirList            0x4               ./lib/http_zot.a(pfs.o)
NTSendQueryAckData  0xc               ./lib/ntps.a(ntipxbeui.o)
zot_timer_mt        0xc               ./lib/rt3070.a(rt3070_dep.o)
mvRTSThreshold      0x4               ./lib/rt3070.a(wlanif.o)
SendNDSData         0x4               ./lib/nds.a(ndsmain.o)
USB_OHCI_interrupt  0x1c              ./lib/usb_host.a(ohci.o)
mvWPAType           0x4               ./lib/rt3070.a(wlanif.o)
tmp_obj             0x20              ./lib/atalk.a(nbp.o)
PLL_clock           0x4               ./lib/psglobal.a(io.o)
kmini_Availmem      0x4               ./lib/psutility.a(kmalloc.o)
bdg_addresses       0x18              ./lib/psglobal.a(bridge.o)
IPXBlockErr         0x4               ./lib/ntps.a(ntipxbeui.o)
OffsetOfFSName      0x80              ./lib/psglobal.a(eeprom.o)
SEM_AARP_PROBE      0x8               ./lib/atalk.a(aarp.o)
MAC_RXQF_interrupt  0x1c              ./lib/mac.a(star_nic.o)
ReceivePsIPXData    0x5dc             ./lib/novell.a(nps3.o)
mRENVEnable         0x4               ./lib/tcpip.a(etharp.o)
NovellConnectFlag   0x4               ./lib/novell.a(nps3.o)
GLOBAL_OHCI         0x4               ./lib/usb_host.a(ohci.o)
tmp_zone            0x20              ./lib/atalk.a(nbp.o)
snmp_inbadvalues    0x4               ./lib/snmp.a(snmpvars.o)
mvWEPKey2           0x8               ./lib/rt3070.a(wlanif.o)
mib_ifOutErrors     0x4               ./lib/snmp.a(snmpvars.o)
GLOBAL_OHCI_RH_URB  0x4               ./lib/usb_host.a(ohci.o)
snmp_ingenerrs      0x4               ./lib/snmp.a(snmpvars.o)
mvTxMode            0x4               ./lib/rt3070.a(wlanif.o)
hcd_list_lock       0xc               ./lib/usb_host.a(u2hcd.o)
mib_DHCP            0xc               ./lib/psglobal.a(pkdriver.o)
ORH_Alarm           0x4               ./lib/usb_host.a(ohci.o)
mib_ifInUnknowProtos
                    0x4               ./lib/snmp.a(snmpvars.o)
tcp_active_pcbs     0x4               ./lib/tcpip.a(tcp.o)
CurSetupPassword    0xc               ./lib/psglobal.a(eeprom.o)
SIGNAL_IPX_UPGRADE_FINISH
                    0x8               ./lib/ntps.a(ntipxbeui.o)
mib_DHCP_p          0x4               ./lib/psglobal.a(pkdriver.o)
mvConfigMode        0x4               ./lib/rt3070.a(wlanif.o)
SendUtilUpgradeECB  0x38              ./lib/ntps.a(ntipxbeui.o)
Cyg_WallClock::wallclock
                    0x4               /cygdrive/C/ZOTDWP2020_SDK_0.01/ecos/ecos_install/lib/libtarget.a(devs_wallclock_emulate.o)
ReceivePsECB        0x38              ./lib/novell.a(nps3.o)
ReceivePsIPXHeader  0x20              ./lib/novell.a(nps3.o)
CurJobQueueID       0x4               ./lib/lpd.a(lpd.o)
tmp_type            0x20              ./lib/atalk.a(nbp.o)
SendWDogData        0x4               ./lib/novell.a(nps3.o)
hCounter            0x4               ./lib/tcpip.a(etharp.o)
BinderyObjectID     0x4               ./lib/novell.a(nps3.o)
mvWEPKey3           0x8               ./lib/rt3070.a(wlanif.o)
AuthFileList        0x4               ./lib/http_zot.a(httpd.o)
CPU_clock           0x4               ./lib/psglobal.a(io.o)
hAlarm              0x4               ./lib/tcpip.a(etharp.o)
printsock           0x10              ./lib/ntps.a(ntudp.o)
RecvUtilUpgradeECB  0x38              ./lib/ntps.a(ntipxbeui.o)
ULANMAC             0x8               ./lib/usb_host.a(usbnet.o)
SendPsIPXHeader     0x20              ./lib/novell.a(nps3.o)
mvRENVServiceName   0x40              ./lib/psglobal.a(eeprom.o)
ReadByte            0x4               ./lib/novell.a(nps3.o)
tcp_ticks           0x4               ./lib/tcpip.a(tcp.o)
tcp_listen_pcbs     0x4               ./lib/tcpip.a(tcp.o)
alertSignal         0x8               ./lib/psutility.a(alert.o)
snmp_insetrequests  0x4               ./lib/snmp.a(snmpvars.o)
ether               0x10              ./lib/usb_host.a(usbnet.o)
MAC_STATE_interrupt
                    0x1c              ./lib/mac.a(star_nic.o)
sem_printf          0x8               ./lib/uart.a(serial.o)
ehci_tasklet_mt     0xc               ./lib/usb_host.a(ehcihcd.o)
rendezvous_sem      0x8               ./lib/tcpip.a(linklip.o)
MyNetworkAddress    0x4               ./lib/ipxbeui.a(ipx.o)
mvWEPType           0x4               ./lib/rt3070.a(wlanif.o)
ReceiveWDogIPXHeader
                    0x20              ./lib/novell.a(nps3.o)
kAvailmem           0x4               ./lib/psutility.a(kmalloc.o)
snmp_ingetrequests  0x4               ./lib/snmp.a(snmpvars.o)
timerAlarm          0x24              ./lib/tcpip.a(etharp.o)
IPXTimeOut          0x4               ./lib/ntps.a(ntipxbeui.o)
zlen                0x4               ./lib/atalk.a(nbp.o)
LEDErrorCode        0x4               ./lib/psglobal.a(led.o)
Process_OthPkt_handle
                    0x4               ./lib/psglobal.a(pkdriver.o)
PrintQueueName      0x30              ./lib/novell.a(nps3.o)
mvDtiminterval      0x4               ./lib/rt3070.a(wlanif.o)
Httpd_sem           0x8               ./lib/http_zot.a(httpd.o)
mvCfpperiod         0x4               ./lib/rt3070.a(wlanif.o)
ModifyConfigFlag    0x4               ./lib/telnet.a(telserv.o)
snmp_outpkts        0x4               ./lib/snmp.a(snmpvars.o)
NDSFSInfo           0x4               ./lib/nds.a(ndsqueue.o)
WSCThread           0x8               ./lib/rt3070.a(wsc.o)
GLOBAL_DRIVER       0x4               ./lib/usb_host.a(u2hcd.o)
lockRxURB           0xc               ./lib/rt3070.a(rt_usb.o)
EEPROM_Data         0x580             ./lib/psglobal.a(eeprom.o)
NTimeOutRetryCount  0x4               ./lib/ntps.a(ntps.o)
MAC_RXQF_interrupt_handle
                    0x4               ./lib/mac.a(star_nic.o)
ServiceFSCount      0x4               ./lib/novell.a(nps3.o)
mvWEP128Key3        0x10              ./lib/rt3070.a(wlanif.o)
CurrentIP           0x4               ./lib/telnet.a(telserv.o)
aep_packet          0x24c             ./lib/atalk.a(aep.o)
SendUtilUpgradeData
                    0x408             ./lib/ntps.a(ntipxbeui.o)
rec_buffer_ipx      0x1088            ./lib/ntps.a(ntipxbeui.o)
ORH_timerAlarm      0x24              ./lib/usb_host.a(ohci.o)
Ifaces              0x4               ./lib/usb_host.a(usbnet.o)
rbuf                0x28              ./lib/atalk.a(papd.o)
rec_buffer_udp      0x5fc             ./lib/ntps.a(ntudp.o)
mvRENVEnable        0x4               ./lib/psglobal.a(eeprom.o)
snmp_outsetrequests
                    0x4               ./lib/snmp.a(snmpvars.o)
SendWDogIPXHeader   0x20              ./lib/novell.a(nps3.o)
mvRate              0x4               ./lib/rt3070.a(wlanif.o)
recv_ddp_buffer     0x800             ./lib/atalk.a(ddp.o)
SendSAPECB          0x38              ./lib/novell.a(nps3.o)
mvTxPower           0x4               ./lib/rt3070.a(wlanif.o)
community           0x54              ./lib/snmp.a(snmpaget.o)
APB_clock           0x4               ./lib/psglobal.a(io.o)
USB_EHCI_interrupt  0x1c              ./lib/usb_host.a(u2hcd.o)
__rstrtok           0x4               ./lib/rt3070.a(cmm_profile.o)
ippJobID            0x4               ./lib/ippd.a(ippd.o)
hSysClk             0x4               ./lib/tcpip.a(etharp.o)
tcp_tmp_pcb         0x4               ./lib/tcpip.a(tcp.o)
MyIntNO             0x4               ./lib/psglobal.a(pkdriver.o)
ReceiveNCPData      0x4               ./lib/novell.a(nps3.o)
mib_ifOutQLen       0x4               ./lib/snmp.a(snmpvars.o)
HttpNeedReboot      0x4               ./lib/http_zot.a(httpd.o)
ippJobsNo           0x4               ./lib/http_zot.a(httpd.o)
FSInfoBlock         0x4               ./lib/novell.a(nps3.o)
OffsetOfFSNameInTelnet
                    0x80              ./lib/telnet.a(telutil.o)
MyPhysNodeAddress   0x8               ./lib/psglobal.a(eeprom.o)
STAR_PRIV           0x4               ./lib/mac.a(star_nic.o)
mvEDDMAC            0x8               ./lib/rt3070.a(wlanif.o)
MAC_STATE_interrupt_handle
                    0x4               ./lib/mac.a(star_nic.o)
mib_ifOutOctets     0x4               ./lib/snmp.a(snmpvars.o)
DHCP_Rebew_or_Rebind_Alarm
                    0x24              ./lib/tcpip.a(dhcp.o)
mvWZone             0x4               ./lib/rt3070.a(wlanif.o)
RH_SysClk           0x4               ./lib/usb_host.a(u2hcd.o)
IPXUSOCK            0xc               ./lib/ntps.a(ntipxbeui.o)
mvChannel_start     0x4               ./lib/rt3070.a(wlanif.o)
tcp_input_pcb       0x4               ./lib/tcpip.a(tcp_in.o)
CurLEDvalue         0x4               ./lib/psglobal.a(led.o)
comstate            0x4               ./lib/atalk.a(comment.o)
alarmData           0x4               ./lib/tcpip.a(etharp.o)
GLOBAL_HCD          0x4               ./lib/usb_host.a(u2hcd.o)
NT_SIGNAL_PORT_1    0x8               ./lib/ntps.a(ntps.o)
snmp_ingetnexts     0x4               ./lib/snmp.a(snmpvars.o)
snmp_intotalreqvars
                    0x4               ./lib/snmp.a(snmpvars.o)
ippProcessOn        0x4               ./lib/ippd.a(ippd.o)
bdg_ports           0x4               ./lib/psglobal.a(bridge.o)
HttpNeedWriteEEPROM
                    0x4               ./lib/http_zot.a(httpd.o)
RH_Counter          0x4               ./lib/usb_host.a(u2hcd.o)
mvWEPKey1           0x8               ./lib/rt3070.a(wlanif.o)
mvWEP128Key2        0x10              ./lib/rt3070.a(wlanif.o)
RecvUtilUpgradeIPXHeader
                    0x20              ./lib/ntps.a(ntipxbeui.o)
ReceiveSAPECB       0x38              ./lib/novell.a(nps3.o)
ReceiveUtilIPXHeader
                    0x20              ./lib/ntps.a(ntipxbeui.o)
pr                  0x1c              ./lib/atalk.a(papd.o)
NTSendPsIPXHeader   0x20              ./lib/ntps.a(ntipxbeui.o)
ReceiveWDogData     0x4               ./lib/novell.a(nps3.o)
ZRegDomain          0xc               ./lib/rt3070.a(wlanif.o)
PHY_timerAlarm      0x24              ./lib/mac.a(star_nic.o)
snmp_inbadcommunitynames
                    0x4               ./lib/snmp.a(snmpvars.o)
at_iface            0x30              ./lib/http_zot.a(httpd.o)
IPXENIIRecv         0x4               ./lib/psglobal.a(pkdriver.o)
AssociatedFlag      0x4               ./lib/rendezvous.a(Responder.o)
mvWEP128Key         0x10              ./lib/rt3070.a(wlanif.o)
mvExtRate           0x4               ./lib/rt3070.a(wlanif.o)
snmp_inpkts         0x4               ./lib/snmp.a(snmpvars.o)
mvATPortName        0x10              ./lib/psglobal.a(eeprom.o)
SendNCPSubData      0x4               ./lib/novell.a(nps3.o)
mib_ifOutUcastPkts  0x4               ./lib/snmp.a(snmpvars.o)
socketTablePointer  0x4               ./lib/ipxbeui.a(ipx.o)
mvBeaconinterval    0x4               ./lib/rt3070.a(wlanif.o)
MenuIndex           0x4               ./lib/telnet.a(telutil.o)
MAC_RXRC_interrupt  0x1c              ./lib/mac.a(star_nic.o)
PSMode2             0x4               ./lib/psglobal.a(eeprom.o)
PSMode              0x4               ./lib/psglobal.a(eeprom.o)
nbp_used            0x4               ./lib/atalk.a(nbp.o)
snmp_outgetrequests
                    0x4               ./lib/snmp.a(snmpvars.o)
HttpStartTime       0x4               ./lib/http_zot.a(httpd.o)
mvWEPKey4           0x8               ./lib/rt3070.a(wlanif.o)
snmp_outgetnexts    0x4               ./lib/snmp.a(snmpvars.o)
DEFAULT_Data        0x580             ./lib/psglobal.a(eeprom.o)
snmp_intoobigs      0x4               ./lib/snmp.a(snmpvars.o)
ATALK_SIGNAL_NO_1   0x8               ./lib/atalk.a(papd.o)
mvWPAPass           0x44              ./lib/rt3070.a(wlanif.o)
ReceiveUtilECB      0x38              ./lib/ntps.a(ntipxbeui.o)
NDStatus            0x4               ./lib/nds.a(ndsmain.o)
GLOBAL_EHCI_RH_URB  0x4               ./lib/usb_host.a(u2hcd.o)
RecvUtilUpgradeData
                    0x408             ./lib/ntps.a(ntipxbeui.o)
NTPortInfo          0x54              ./lib/ntps.a(ntps.o)
AHB_clock           0x4               ./lib/psglobal.a(io.o)
mib_ifInNucastPkts  0x4               ./lib/snmp.a(snmpvars.o)
usbnet_driver       0x30              ./lib/usb_host.a(usbnet.o)
mvDataRate          0x4               ./lib/rt3070.a(wlanif.o)
ORH_Counter         0x4               ./lib/usb_host.a(ohci.o)
MAC_RXRC_interrupt_handle
                    0x4               ./lib/mac.a(star_nic.o)
rMlmeThread         0x8               ./lib/rt3070.a(rt_usb.o)
mvShortPreamble     0x4               ./lib/rt3070.a(wlanif.o)
LinkLocal_state     0x4               ./lib/tcpip.a(linklip.o)
IPX8022Recv         0x4               ./lib/psglobal.a(pkdriver.o)
linklocal_conflict  0x8               ./lib/tcpip.a(linklip.o)
SendSAPIPXData      0x44              ./lib/novell.a(nps3.o)
hub_event_lock      0xc               ./lib/usb_host.a(hub.o)
usb_ed_lock         0xc               ./lib/usb_host.a(ohci.o)
NTMaxRecvPacket     0x4               ./lib/psglobal.a(eeprom.o)
SendUtilData        0x588             ./lib/ntps.a(ntipxbeui.o)
USB_OHCI_interrupt_handle
                    0x4               ./lib/usb_host.a(ohci.o)
snmp_outnosuchnames
                    0x4               ./lib/snmp.a(snmpvars.o)
Cgi_Error           0x4               ./lib/http_zot.a(httpd.o)
ippObjList          0x4               ./lib/http_zot.a(httpd.o)
SendUtilUpgradeIPXHeader
                    0x20              ./lib/ntps.a(ntipxbeui.o)
bNoActiveFSInfo     0x4               ./lib/novell.a(nps3.o)
NTimeOutCount       0x4               ./lib/ntps.a(ntps.o)
USB_EHCI_interrupt_handle
                    0x4               ./lib/usb_host.a(u2hcd.o)
WirelessLightToggle
                    0x4               ./lib/psglobal.a(led.o)
hcd_data_lock       0xc               ./lib/usb_host.a(u2hcd.o)
ORH_SysClk          0x4               ./lib/usb_host.a(ohci.o)
xBCP_escaped        0x4               ./lib/atalk.a(paprint.o)
SAPName             0x10              ./lib/novell.a(nps3.o)
mvFirmwareVersion   0x10              ./lib/rt3070.a(wlanif.o)
mvWEPKeySel         0x4               ./lib/rt3070.a(wlanif.o)
SendPsIPXData       0x5dc             ./lib/novell.a(nps3.o)
infList             0x4               ./lib/rendezvous.a(Responder.o)
packet_end          0x4               ./lib/snmp.a(snmpaget.o)
TotalUpgradeBlock   0x4               ./lib/ntps.a(ntipxbeui.o)
mvWEP128Key4        0x10              ./lib/rt3070.a(wlanif.o)
AuthSeed            0x4               ./lib/http_zot.a(httpd.o)
CSIP                0x4               ./lib/novell.a(nps3.o)
mvChannel           0x4               ./lib/rt3070.a(wlanif.o)
LPD                 0x48              ./lib/lpd.a(lpd.o)
mvWEPKey            0x20              ./lib/http_zot.a(httpd.o)
mvCfpmaxduration    0x4               ./lib/rt3070.a(wlanif.o)
MenuSel             0x4               ./lib/telnet.a(telutil.o)
RH_Alarm            0x4               ./lib/usb_host.a(u2hcd.o)
PHY_Counter         0x4               ./lib/mac.a(star_nic.o)
snmp_outgetresponses
                    0x4               ./lib/snmp.a(snmpvars.o)
SendUtilECB         0x38              ./lib/ntps.a(ntipxbeui.o)
WLan_queue_lock     0xc               ./lib/rt3070.a(rt3070_dep.o)
mvWEPManual         0x4               ./lib/rt3070.a(wlanif.o)
mib_ifInDiscards    0x4               ./lib/snmp.a(snmpvars.o)
khubd_wait          0x8               ./lib/usb_host.a(hub.o)
DhcpWaitLinklocal_sem
                    0x8               ./lib/tcpip.a(linklip.o)
Ddps                0x4               ./lib/atalk.a(ddp.o)
zeroRR              0x124             ./lib/rendezvous.a(mDNS.o)
PrintData           0x4               ./lib/novell.a(nps3.o)
Lanface             0x4               ./lib/tcpip.a(tcpip.o)
debug_queue         0x4               ./lib/uart.a(serial.o)
mib_ifOutNucastPkts
                    0x4               ./lib/snmp.a(snmpvars.o)
mvChannel_end       0x4               ./lib/rt3070.a(wlanif.o)
TELNET_EEPROM_Data  0x580             ./lib/telnet.a(telserv.o)
mvRates             0x4               ./lib/rt3070.a(wlanif.o)
G_PortReady         0x4               ./lib/spooler.a(prnport.o)
ReceiveUtilData     0x588             ./lib/ntps.a(ntipxbeui.o)
SendUtilIPXHeader   0x20              ./lib/ntps.a(ntipxbeui.o)
ether_port_down     0x4               ./lib/rendezvous.a(Responder.o)
PortInfo            0xc               ./lib/novell.a(nps3.o)
PHY_SysClk          0x4               ./lib/mac.a(star_nic.o)
ZIP_WAIT            0x4               ./lib/psglobal.a(psmain.o)
NDSbNoActiveFSInfo  0x4               ./lib/nds.a(ndsqueue.o)
tcp_tw_pcbs         0x4               ./lib/tcpip.a(tcp.o)
print_task          0x9c              ./lib/uart.a(serial.o)
hcd_free_lock       0xc               ./lib/usb_host.a(u2hcd.o)
SendSAPIPXHeader    0x20              ./lib/novell.a(nps3.o)
USB_INPUT_SEM       0x8               ./lib/usb_host.a(usbnet.o)
tlen                0x4               ./lib/atalk.a(nbp.o)
NTReceivePsECB      0x38              ./lib/ntps.a(ntipxbeui.o)
IPX8023Recv         0x4               ./lib/psglobal.a(pkdriver.o)
mvJapan             0x4               ./lib/rt3070.a(wlanif.o)
HttpNeedReset       0x4               ./lib/http_zot.a(httpd.o)
IsNTEndPrint        0x4               ./lib/ntps.a(ntps.o)
mvAn_side           0x4               ./lib/rt3070.a(wlanif.o)
mib_ifInUcastPkts   0x4               ./lib/snmp.a(snmpvars.o)
linklocal_sem       0x8               ./lib/tcpip.a(linklip.o)
lwip_stats          0x184             ./lib/tcpip.a(stats.o)
PHY_Alarm           0x4               ./lib/mac.a(star_nic.o)
HttpdUsed           0x4               ./lib/novell.a(nps3.o)
ddp_input_buffer    0x800             ./lib/atalk.a(ddp.o)
mib_ifInOctets      0x4               ./lib/snmp.a(snmpvars.o)
_kFarHeap           0x80              ./lib/psutility.a(kmalloc.o)
NTHoldTimer         0x4               ./lib/ntps.a(ntps.o)
NTReceivePsIPXHeader
                    0x20              ./lib/ntps.a(ntipxbeui.o)
CurrentFrameType    0x4               ./lib/novell.a(nps3.o)
ServiceFSCountInTelnet
                    0x4               ./lib/telnet.a(telserv.o)
WLan_TX_lock        0xc               ./lib/psglobal.a(pkdriver.o)
SnmpCommunityAuth   0x10              ./lib/snmp.a(snmpaget.o)
RH_timerAlarm       0x24              ./lib/usb_host.a(u2hcd.o)
SP_SIGNAL_PORT_1    0x8               ./lib/spooler.a(prnport.o)
socketTable         0x78              ./lib/ipxbeui.a(ipx.o)
NTSendPsECB         0x38              ./lib/ntps.a(ntipxbeui.o)
ehci_tasklet_sem    0x8               ./lib/usb_host.a(ehcihcd.o)
rawText             0x100             ./lib/rendezvous.a(Responder.o)
SendNCPData         0x4               ./lib/novell.a(nps3.o)
CurServicePort      0x4               ./lib/novell.a(nps3.o)
WebMsg              0x7c              ./lib/http_zot.a(httpd.o)
rendezvous_TaskHdl  0x4               ./lib/rendezvous.a(Responder.o)
LoginKeyID          0x8               ./lib/novell.a(nps3.o)
ReceiveNCPSubData   0x4               ./lib/novell.a(nps3.o)
diag_flag           0x4               ./lib/rt3070.a(wlanif.o)
StartByteOffset     0x4               ./lib/novell.a(nps3.o)
mvWPAauth           0x4               ./lib/rt3070.a(wlanif.o)
Process_OthPkt_mbox
                    0x4               ./lib/psglobal.a(pkdriver.o)
LPTPort             0x4               ./lib/novell.a(nps3.o)
Global_wpa_state    0x4               ./lib/rt3070.a(connect.o)
IPXPktErr           0x4               ./lib/ntps.a(ntipxbeui.o)
rRTUSBCmdThread     0x8               ./lib/rt3070.a(rt_usb.o)
HttpNeedLoadDefault
                    0x4               ./lib/http_zot.a(httpd.o)
mvWirelessMAC       0x8               ./lib/rt3070.a(wlanif.o)
mvFragmentation     0x4               ./lib/rt3070.a(wlanif.o)
wlan_tx_sem         0x8               ./lib/psglobal.a(pkdriver.o)
mvAPPTLKEn          0x4               ./lib/psglobal.a(eeprom.o)
IPXSNAPRecv         0x4               ./lib/psglobal.a(pkdriver.o)
olen                0x4               ./lib/atalk.a(nbp.o)
IPXSocketErr        0x4               ./lib/ipxbeui.a(netbeui.o)
PortIO              0x34              ./lib/spooler.a(prnport.o)
snmp_outtraps       0x4               ./lib/snmp.a(snmpvars.o)
NDSPCBInfo          0x4               ./lib/nds.a(ndsqueue.o)
snmp_inbadversions  0x4               ./lib/snmp.a(snmpvars.o)
snmp_inasnparseerrors
                    0x4               ./lib/snmp.a(snmpvars.o)
mvBSSType           0x4               ./lib/rt3070.a(wlanif.o)
PollingTime         0x4               ./lib/psglobal.a(eeprom.o)
peer_socket         0x4               ./lib/ntps.a(ntudp.o)
IntoAttachFS        0x4               ./lib/novell.a(nps3.o)
print_task_handle   0x4               ./lib/uart.a(serial.o)
EEPROM_Data_temp    0x580             ./lib/psglobal.a(eeprom.o)
status              0x4               ./lib/novell.a(nps3.o)
CGI_Msg             0x2c              ./lib/http_zot.a(httpd.o)
rRTUSBBulkRxThread  0x8               ./lib/rt3070.a(rt_usb.o)
util_socket         0x4               ./lib/ntps.a(ntudp.o)
Network_TCPIP_ON    0x4               ./lib/tcpip.a(tcpip.o)
send_ddp_buffer     0x800             ./lib/atalk.a(ddp.o)
mvBandWidth         0x4               ./lib/rt3070.a(wlanif.o)

Memory Configuration

Name             Origin             Length             Attributes
ram              0x00000000         0x00800000
*default*        0x00000000         0xffffffff

Linker script and memory map

LOAD /cygdrive/C/ZOTDWP2020_SDK_0.01/ecos/ecos_install/lib/vectors.o
LOAD /cygdrive/C/ZOTDWP2020_SDK_0.01/prod/zotdwp2020/build/obj/zotmain.o
LOAD ./lib/mac.a
LOAD ./lib/usb_host.a
LOAD ./lib/psglobal.a
LOAD ./lib/http_zot.a
LOAD ./lib/ipxbeui.a
LOAD ./lib/ntps.a
LOAD ./lib/spooler.a
LOAD ./lib/novell.a
LOAD ./lib/nds.a
LOAD ./lib/lpd.a
LOAD ./lib/rawtcpd.a
LOAD ./lib/ippd.a
LOAD ./lib/smbd.a
LOAD ./lib/telnet.a
LOAD ./lib/tftp_zot.a
LOAD ./lib/tcpip.a
LOAD ./lib/atalk.a
LOAD ./lib/snmp.a
LOAD ./lib/psutility.a
LOAD ./lib/uart.a
LOAD ./lib/rt3070.a
LOAD ./lib/rendezvous.a
LOAD /cygdrive/C/ZOTDWP2020_SDK_0.01/ecos/ecos_install/lib/extras.o
START GROUP
LOAD /cygdrive/C/ZOTDWP2020_SDK_0.01/ecos/ecos_install/lib/libtarget.a
LOAD /tools/H-i686-pc-cygwin/lib/gcc-lib/arm-elf/2.95.2/libgcc.a
END GROUP

.debug_aranges  0x00000000     0x1a50
 *(.debug_aranges)
 .debug_aranges
                0x00000000      0x178 /cygdrive/C/ZOTDWP2020_SDK_0.01/ecos/ecos_install/lib/extras.o
 .debug_aranges
                0x00000178       0x28 /cygdrive/C/ZOTDWP2020_SDK_0.01/ecos/ecos_install/lib/libtarget.a(infra_startup.o)
 .debug_aranges
                0x000001a0       0x28 /cygdrive/C/ZOTDWP2020_SDK_0.01/ecos/ecos_install/lib/libtarget.a(infra_prestart.o)
 .debug_aranges
                0x000001c8       0x28 /cygdrive/C/ZOTDWP2020_SDK_0.01/ecos/ecos_install/lib/libtarget.a(infra_pkgstart.o)
 .debug_aranges
                0x000001f0       0x88 /cygdrive/C/ZOTDWP2020_SDK_0.01/ecos/ecos_install/lib/libtarget.a(infra_diag.o)
 .debug_aranges
                0x00000278       0x28 /cygdrive/C/ZOTDWP2020_SDK_0.01/ecos/ecos_install/lib/libtarget.a(infra_memcpy.o)
 .debug_aranges
                0x000002a0       0x28 /cygdrive/C/ZOTDWP2020_SDK_0.01/ecos/ecos_install/lib/libtarget.a(infra_memset.o)
 .debug_aranges
                0x000002c8      0x3a0 /cygdrive/C/ZOTDWP2020_SDK_0.01/ecos/ecos_install/lib/libtarget.a(kernel_kapi.o)
 .debug_aranges
                0x00000668       0xf8 /cygdrive/C/ZOTDWP2020_SDK_0.01/ecos/ecos_install/lib/libtarget.a(kernel_thread.o)
 .debug_aranges
                0x00000760       0x60 /cygdrive/C/ZOTDWP2020_SDK_0.01/ecos/ecos_install/lib/libtarget.a(kernel_except.o)
 .debug_aranges
                0x000007c0       0xb0 /cygdrive/C/ZOTDWP2020_SDK_0.01/ecos/ecos_install/lib/libtarget.a(kernel_intr.o)
 .debug_aranges
                0x00000870       0xe0 /cygdrive/C/ZOTDWP2020_SDK_0.01/ecos/ecos_install/lib/libtarget.a(kernel_memfixed.o)
 .debug_aranges
                0x00000950       0xe8 /cygdrive/C/ZOTDWP2020_SDK_0.01/ecos/ecos_install/lib/libtarget.a(kernel_memvar.o)
 .debug_aranges
                0x00000a38       0xc8 /cygdrive/C/ZOTDWP2020_SDK_0.01/ecos/ecos_install/lib/libtarget.a(kernel_mlqueue.o)
 .debug_aranges
                0x00000b00       0x60 /cygdrive/C/ZOTDWP2020_SDK_0.01/ecos/ecos_install/lib/libtarget.a(kernel_sched.o)
 .debug_aranges
                0x00000b60       0x58 /cygdrive/C/ZOTDWP2020_SDK_0.01/ecos/ecos_install/lib/libtarget.a(kernel_cnt_sem.o)
 .debug_aranges
                0x00000bb8       0x58 /cygdrive/C/ZOTDWP2020_SDK_0.01/ecos/ecos_install/lib/libtarget.a(kernel_flag.o)
 .debug_aranges
                0x00000c10       0xb0 /cygdrive/C/ZOTDWP2020_SDK_0.01/ecos/ecos_install/lib/libtarget.a(kernel_mbox.o)
 .debug_aranges
                0x00000cc0       0x80 /cygdrive/C/ZOTDWP2020_SDK_0.01/ecos/ecos_install/lib/libtarget.a(kernel_mutex.o)
 .debug_aranges
                0x00000d40       0x28 /cygdrive/C/ZOTDWP2020_SDK_0.01/ecos/ecos_install/lib/libtarget.a(language_c_libc_isalnum.o)
 .debug_aranges
                0x00000d68       0x28 /cygdrive/C/ZOTDWP2020_SDK_0.01/ecos/ecos_install/lib/libtarget.a(language_c_libc_isalpha.o)
 .debug_aranges
                0x00000d90       0x28 /cygdrive/C/ZOTDWP2020_SDK_0.01/ecos/ecos_install/lib/libtarget.a(language_c_libc_isdigit.o)
 .debug_aranges
                0x00000db8       0x28 /cygdrive/C/ZOTDWP2020_SDK_0.01/ecos/ecos_install/lib/libtarget.a(language_c_libc_islower.o)
 .debug_aranges
                0x00000de0       0x28 /cygdrive/C/ZOTDWP2020_SDK_0.01/ecos/ecos_install/lib/libtarget.a(language_c_libc_isprint.o)
 .debug_aranges
                0x00000e08       0x28 /cygdrive/C/ZOTDWP2020_SDK_0.01/ecos/ecos_install/lib/libtarget.a(language_c_libc_isspace.o)
 .debug_aranges
                0x00000e30       0x28 /cygdrive/C/ZOTDWP2020_SDK_0.01/ecos/ecos_install/lib/libtarget.a(language_c_libc_isupper.o)
 .debug_aranges
                0x00000e58       0x28 /cygdrive/C/ZOTDWP2020_SDK_0.01/ecos/ecos_install/lib/libtarget.a(language_c_libc_isxdigit.o)
 .debug_aranges
                0x00000e80       0x28 /cygdrive/C/ZOTDWP2020_SDK_0.01/ecos/ecos_install/lib/libtarget.a(language_c_libc_toupper.o)
 .debug_aranges
                0x00000ea8       0x28 /cygdrive/C/ZOTDWP2020_SDK_0.01/ecos/ecos_install/lib/libtarget.a(language_c_libc_sprintf.o)
 .debug_aranges
                0x00000ed0       0x28 /cygdrive/C/ZOTDWP2020_SDK_0.01/ecos/ecos_install/lib/libtarget.a(language_c_libc_sscanf.o)
 .debug_aranges
                0x00000ef8       0x38 /cygdrive/C/ZOTDWP2020_SDK_0.01/ecos/ecos_install/lib/libtarget.a(language_c_libc_stderr.o)
 .debug_aranges
                0x00000f30       0x50 /cygdrive/C/ZOTDWP2020_SDK_0.01/ecos/ecos_install/lib/libtarget.a(language_c_libc_stdioinlines.o)
 .debug_aranges
                0x00000f80       0x28 /cygdrive/C/ZOTDWP2020_SDK_0.01/ecos/ecos_install/lib/libtarget.a(language_c_libc_stdiosupp.o)
 .debug_aranges
                0x00000fa8       0x38 /cygdrive/C/ZOTDWP2020_SDK_0.01/ecos/ecos_install/lib/libtarget.a(language_c_libc_stdout.o)
 .debug_aranges
                0x00000fe0       0x58 /cygdrive/C/ZOTDWP2020_SDK_0.01/ecos/ecos_install/lib/libtarget.a(language_c_libc_stream.o)
 .debug_aranges
                0x00001038       0x28 /cygdrive/C/ZOTDWP2020_SDK_0.01/ecos/ecos_install/lib/libtarget.a(language_c_libc_ungetc.o)
 .debug_aranges
                0x00001060       0x30 /cygdrive/C/ZOTDWP2020_SDK_0.01/ecos/ecos_install/lib/libtarget.a(language_c_libc_vsnprintf.o)
 .debug_aranges
                0x00001090       0x30 /cygdrive/C/ZOTDWP2020_SDK_0.01/ecos/ecos_install/lib/libtarget.a(language_c_libc_vsscanf.o)
 .debug_aranges
                0x000010c0       0x30 /cygdrive/C/ZOTDWP2020_SDK_0.01/ecos/ecos_install/lib/libtarget.a(language_c_libc_fgetc.o)
 .debug_aranges
                0x000010f0       0x28 /cygdrive/C/ZOTDWP2020_SDK_0.01/ecos/ecos_install/lib/libtarget.a(language_c_libc_fprintf.o)
 .debug_aranges
                0x00001118       0x30 /cygdrive/C/ZOTDWP2020_SDK_0.01/ecos/ecos_install/lib/libtarget.a(language_c_libc_fputc.o)
 .debug_aranges
                0x00001148       0x28 /cygdrive/C/ZOTDWP2020_SDK_0.01/ecos/ecos_install/lib/libtarget.a(language_c_libc_fputs.o)
 .debug_aranges
                0x00001170       0x28 /cygdrive/C/ZOTDWP2020_SDK_0.01/ecos/ecos_install/lib/libtarget.a(language_c_libc_printf.o)
 .debug_aranges
                0x00001198       0x30 /cygdrive/C/ZOTDWP2020_SDK_0.01/ecos/ecos_install/lib/libtarget.a(language_c_libc_vfnprintf.o)
 .debug_aranges
                0x000011c8       0x28 /cygdrive/C/ZOTDWP2020_SDK_0.01/ecos/ecos_install/lib/libtarget.a(language_c_libc_atoi.o)
 .debug_aranges
                0x000011f0       0x28 /cygdrive/C/ZOTDWP2020_SDK_0.01/ecos/ecos_install/lib/libtarget.a(language_c_libc_atol.o)
 .debug_aranges
                0x00001218       0x60 /cygdrive/C/ZOTDWP2020_SDK_0.01/ecos/ecos_install/lib/libtarget.a(language_c_libc_malloc.o)
 .debug_aranges
                0x00001278       0x38 /cygdrive/C/ZOTDWP2020_SDK_0.01/ecos/ecos_install/lib/libtarget.a(language_c_libc_rand.o)
 .debug_aranges
                0x000012b0       0x28 /cygdrive/C/ZOTDWP2020_SDK_0.01/ecos/ecos_install/lib/libtarget.a(language_c_libc_strtol.o)
 .debug_aranges
                0x000012d8       0x28 /cygdrive/C/ZOTDWP2020_SDK_0.01/ecos/ecos_install/lib/libtarget.a(language_c_libc_memchr.o)
 .debug_aranges
                0x00001300       0x28 /cygdrive/C/ZOTDWP2020_SDK_0.01/ecos/ecos_install/lib/libtarget.a(language_c_libc_memcmp.o)
 .debug_aranges
                0x00001328       0x28 /cygdrive/C/ZOTDWP2020_SDK_0.01/ecos/ecos_install/lib/libtarget.a(language_c_libc_memmove.o)
 .debug_aranges
                0x00001350       0x28 /cygdrive/C/ZOTDWP2020_SDK_0.01/ecos/ecos_install/lib/libtarget.a(language_c_libc_strcat.o)
 .debug_aranges
                0x00001378       0x28 /cygdrive/C/ZOTDWP2020_SDK_0.01/ecos/ecos_install/lib/libtarget.a(language_c_libc_strchr.o)
 .debug_aranges
                0x000013a0       0x28 /cygdrive/C/ZOTDWP2020_SDK_0.01/ecos/ecos_install/lib/libtarget.a(language_c_libc_strcmp.o)
 .debug_aranges
                0x000013c8       0x28 /cygdrive/C/ZOTDWP2020_SDK_0.01/ecos/ecos_install/lib/libtarget.a(language_c_libc_strcpy.o)
 .debug_aranges
                0x000013f0       0x28 /cygdrive/C/ZOTDWP2020_SDK_0.01/ecos/ecos_install/lib/libtarget.a(language_c_libc_strlen.o)
 .debug_aranges
                0x00001418       0x28 /cygdrive/C/ZOTDWP2020_SDK_0.01/ecos/ecos_install/lib/libtarget.a(language_c_libc_strncat.o)
 .debug_aranges
                0x00001440       0x28 /cygdrive/C/ZOTDWP2020_SDK_0.01/ecos/ecos_install/lib/libtarget.a(language_c_libc_strncmp.o)
 .debug_aranges
                0x00001468       0x28 /cygdrive/C/ZOTDWP2020_SDK_0.01/ecos/ecos_install/lib/libtarget.a(language_c_libc_strncpy.o)
 .debug_aranges
                0x00001490       0x28 /cygdrive/C/ZOTDWP2020_SDK_0.01/ecos/ecos_install/lib/libtarget.a(language_c_libc_strpbrk.o)
 .debug_aranges
                0x000014b8       0x28 /cygdrive/C/ZOTDWP2020_SDK_0.01/ecos/ecos_install/lib/libtarget.a(language_c_libc_strrchr.o)
 .debug_aranges
                0x000014e0       0x28 /cygdrive/C/ZOTDWP2020_SDK_0.01/ecos/ecos_install/lib/libtarget.a(language_c_libc_strspn.o)
 .debug_aranges
                0x00001508       0x28 /cygdrive/C/ZOTDWP2020_SDK_0.01/ecos/ecos_install/lib/libtarget.a(language_c_libc_strstr.o)
 .debug_aranges
                0x00001530       0x30 /cygdrive/C/ZOTDWP2020_SDK_0.01/ecos/ecos_install/lib/libtarget.a(language_c_libc_strtok.o)
 .debug_aranges
                0x00001560       0x28 /cygdrive/C/ZOTDWP2020_SDK_0.01/ecos/ecos_install/lib/libtarget.a(language_c_libc_ctime.o)
 .debug_aranges
                0x00001588       0x28 /cygdrive/C/ZOTDWP2020_SDK_0.01/ecos/ecos_install/lib/libtarget.a(language_c_libc_localtime.o)
 .debug_aranges
                0x000015b0       0x28 /cygdrive/C/ZOTDWP2020_SDK_0.01/ecos/ecos_install/lib/libtarget.a(language_c_libc_localtime_r.o)
 .debug_aranges
                0x000015d8       0x28 /cygdrive/C/ZOTDWP2020_SDK_0.01/ecos/ecos_install/lib/libtarget.a(language_c_libc_time.o)
 .debug_aranges
                0x00001600       0x40 /cygdrive/C/ZOTDWP2020_SDK_0.01/ecos/ecos_install/lib/libtarget.a(language_c_libc_timeutil.o)
 .debug_aranges
                0x00001640       0x48 /cygdrive/C/ZOTDWP2020_SDK_0.01/ecos/ecos_install/lib/libtarget.a(devs_wallclock_emulate.o)
 .debug_aranges
                0x00001688       0x28 /cygdrive/C/ZOTDWP2020_SDK_0.01/ecos/ecos_install/lib/libtarget.a(error_strerror.o)
 .debug_aranges
                0x000016b0       0x50 /cygdrive/C/ZOTDWP2020_SDK_0.01/ecos/ecos_install/lib/libtarget.a(hal_arm_arch_hal_misc.o)
 .debug_aranges
                0x00001700       0xa0 /cygdrive/C/ZOTDWP2020_SDK_0.01/ecos/ecos_install/lib/libtarget.a(hal_arm_zot716u2_zot716u2_misc.o)
 .debug_aranges
                0x000017a0       0x48 /cygdrive/C/ZOTDWP2020_SDK_0.01/ecos/ecos_install/lib/libtarget.a(hal_arm_zot716u2_hal_diag.o)
 .debug_aranges
                0x000017e8       0x30 /cygdrive/C/ZOTDWP2020_SDK_0.01/ecos/ecos_install/lib/libtarget.a(infra_delete.o)
 .debug_aranges
                0x00001818       0xd0 /cygdrive/C/ZOTDWP2020_SDK_0.01/ecos/ecos_install/lib/libtarget.a(kernel_clock.o)
 .debug_aranges
                0x000018e8       0x28 /cygdrive/C/ZOTDWP2020_SDK_0.01/ecos/ecos_install/lib/libtarget.a(language_c_libc_setvbuf.o)
 .debug_aranges
                0x00001910       0x38 /cygdrive/C/ZOTDWP2020_SDK_0.01/ecos/ecos_install/lib/libtarget.a(language_c_libc_stdin.o)
 .debug_aranges
                0x00001948       0x28 /cygdrive/C/ZOTDWP2020_SDK_0.01/ecos/ecos_install/lib/libtarget.a(language_c_libc_div.o)
 .debug_aranges
                0x00001970       0x28 /cygdrive/C/ZOTDWP2020_SDK_0.01/ecos/ecos_install/lib/libtarget.a(language_c_libc_asctime.o)
 .debug_aranges
                0x00001998       0x28 /cygdrive/C/ZOTDWP2020_SDK_0.01/ecos/ecos_install/lib/libtarget.a(language_c_libc_asctime_r.o)
 .debug_aranges
                0x000019c0       0x28 /cygdrive/C/ZOTDWP2020_SDK_0.01/ecos/ecos_install/lib/libtarget.a(language_c_libc_gmtime_r.o)
 .debug_aranges
                0x000019e8       0x28 /cygdrive/C/ZOTDWP2020_SDK_0.01/ecos/ecos_install/lib/libtarget.a(language_c_libc_itoa.o)
 .debug_aranges
                0x00001a10       0x20 /tools/H-i686-pc-cygwin/lib/gcc-lib/arm-elf/2.95.2/libgcc.a(_udivdi3.o)
 .debug_aranges
                0x00001a30       0x20 /tools/H-i686-pc-cygwin/lib/gcc-lib/arm-elf/2.95.2/libgcc.a(_umoddi3.o)

.debug_pubnames
                0x00000000     0x37d0
 *(.debug_pubnames)
 .debug_pubnames
                0x00000000      0x10b /cygdrive/C/ZOTDWP2020_SDK_0.01/ecos/ecos_install/lib/extras.o
 .debug_pubnames
                0x0000010b       0x20 /cygdrive/C/ZOTDWP2020_SDK_0.01/ecos/ecos_install/lib/libtarget.a(infra_startup.o)
 .debug_pubnames
                0x0000012b       0x23 /cygdrive/C/ZOTDWP2020_SDK_0.01/ecos/ecos_install/lib/libtarget.a(infra_prestart.o)
 .debug_pubnames
                0x0000014e       0x28 /cygdrive/C/ZOTDWP2020_SDK_0.01/ecos/ecos_install/lib/libtarget.a(infra_pkgstart.o)
 .debug_pubnames
                0x00000176       0xb6 /cygdrive/C/ZOTDWP2020_SDK_0.01/ecos/ecos_install/lib/libtarget.a(infra_diag.o)
 .debug_pubnames
                0x0000022c       0x1e /cygdrive/C/ZOTDWP2020_SDK_0.01/ecos/ecos_install/lib/libtarget.a(infra_memcpy.o)
 .debug_pubnames
                0x0000024a       0x1e /cygdrive/C/ZOTDWP2020_SDK_0.01/ecos/ecos_install/lib/libtarget.a(infra_memset.o)
 .debug_pubnames
                0x00000268      0xaa6 /cygdrive/C/ZOTDWP2020_SDK_0.01/ecos/ecos_install/lib/libtarget.a(kernel_kapi.o)
 .debug_pubnames
                0x00000d0e      0x2ce /cygdrive/C/ZOTDWP2020_SDK_0.01/ecos/ecos_install/lib/libtarget.a(kernel_thread.o)
 .debug_pubnames
                0x00000fdc      0x10b /cygdrive/C/ZOTDWP2020_SDK_0.01/ecos/ecos_install/lib/libtarget.a(kernel_except.o)
 .debug_pubnames
                0x000010e7      0x25d /cygdrive/C/ZOTDWP2020_SDK_0.01/ecos/ecos_install/lib/libtarget.a(kernel_intr.o)
 .debug_pubnames
                0x00001344      0x4b1 /cygdrive/C/ZOTDWP2020_SDK_0.01/ecos/ecos_install/lib/libtarget.a(kernel_memfixed.o)
 .debug_pubnames
                0x000017f5      0x550 /cygdrive/C/ZOTDWP2020_SDK_0.01/ecos/ecos_install/lib/libtarget.a(kernel_memvar.o)
 .debug_pubnames
                0x00001d45      0x400 /cygdrive/C/ZOTDWP2020_SDK_0.01/ecos/ecos_install/lib/libtarget.a(kernel_mlqueue.o)
 .debug_pubnames
                0x00002145       0xe3 /cygdrive/C/ZOTDWP2020_SDK_0.01/ecos/ecos_install/lib/libtarget.a(kernel_sched.o)
 .debug_pubnames
                0x00002228      0x121 /cygdrive/C/ZOTDWP2020_SDK_0.01/ecos/ecos_install/lib/libtarget.a(kernel_cnt_sem.o)
 .debug_pubnames
                0x00002349       0xa7 /cygdrive/C/ZOTDWP2020_SDK_0.01/ecos/ecos_install/lib/libtarget.a(kernel_flag.o)
 .debug_pubnames
                0x000023f0      0x1fd /cygdrive/C/ZOTDWP2020_SDK_0.01/ecos/ecos_install/lib/libtarget.a(kernel_mbox.o)
 .debug_pubnames
                0x000025ed      0x18f /cygdrive/C/ZOTDWP2020_SDK_0.01/ecos/ecos_install/lib/libtarget.a(kernel_mutex.o)
 .debug_pubnames
                0x0000277c       0x1f /cygdrive/C/ZOTDWP2020_SDK_0.01/ecos/ecos_install/lib/libtarget.a(language_c_libc_isalnum.o)
 .debug_pubnames
                0x0000279b       0x1f /cygdrive/C/ZOTDWP2020_SDK_0.01/ecos/ecos_install/lib/libtarget.a(language_c_libc_isalpha.o)
 .debug_pubnames
                0x000027ba       0x1f /cygdrive/C/ZOTDWP2020_SDK_0.01/ecos/ecos_install/lib/libtarget.a(language_c_libc_isdigit.o)
 .debug_pubnames
                0x000027d9       0x1f /cygdrive/C/ZOTDWP2020_SDK_0.01/ecos/ecos_install/lib/libtarget.a(language_c_libc_islower.o)
 .debug_pubnames
                0x000027f8       0x1f /cygdrive/C/ZOTDWP2020_SDK_0.01/ecos/ecos_install/lib/libtarget.a(language_c_libc_isprint.o)
 .debug_pubnames
                0x00002817       0x1f /cygdrive/C/ZOTDWP2020_SDK_0.01/ecos/ecos_install/lib/libtarget.a(language_c_libc_isspace.o)
 .debug_pubnames
                0x00002836       0x1f /cygdrive/C/ZOTDWP2020_SDK_0.01/ecos/ecos_install/lib/libtarget.a(language_c_libc_isupper.o)
 .debug_pubnames
                0x00002855       0x20 /cygdrive/C/ZOTDWP2020_SDK_0.01/ecos/ecos_install/lib/libtarget.a(language_c_libc_isxdigit.o)
 .debug_pubnames
                0x00002875       0x1f /cygdrive/C/ZOTDWP2020_SDK_0.01/ecos/ecos_install/lib/libtarget.a(language_c_libc_toupper.o)
 .debug_pubnames
                0x00002894       0x1c /cygdrive/C/ZOTDWP2020_SDK_0.01/ecos/ecos_install/lib/libtarget.a(language_c_libc_errno.o)
 .debug_pubnames
                0x000028b0       0x1f /cygdrive/C/ZOTDWP2020_SDK_0.01/ecos/ecos_install/lib/libtarget.a(language_c_libc_sprintf.o)
 .debug_pubnames
                0x000028cf       0x1e /cygdrive/C/ZOTDWP2020_SDK_0.01/ecos/ecos_install/lib/libtarget.a(language_c_libc_sscanf.o)
 .debug_pubnames
                0x000028ed       0x2c /cygdrive/C/ZOTDWP2020_SDK_0.01/ecos/ecos_install/lib/libtarget.a(language_c_libc_stderr.o)
 .debug_pubnames
                0x00002919       0x5d /cygdrive/C/ZOTDWP2020_SDK_0.01/ecos/ecos_install/lib/libtarget.a(language_c_libc_stdioinlines.o)
 .debug_pubnames
                0x00002976       0x33 /cygdrive/C/ZOTDWP2020_SDK_0.01/ecos/ecos_install/lib/libtarget.a(language_c_libc_stdiosupp.o)
 .debug_pubnames
                0x000029a9       0x2c /cygdrive/C/ZOTDWP2020_SDK_0.01/ecos/ecos_install/lib/libtarget.a(language_c_libc_stdout.o)
 .debug_pubnames
                0x000029d5       0xfd /cygdrive/C/ZOTDWP2020_SDK_0.01/ecos/ecos_install/lib/libtarget.a(language_c_libc_stream.o)
 .debug_pubnames
                0x00002ad2       0x1e /cygdrive/C/ZOTDWP2020_SDK_0.01/ecos/ecos_install/lib/libtarget.a(language_c_libc_ungetc.o)
 .debug_pubnames
                0x00002af0       0x21 /cygdrive/C/ZOTDWP2020_SDK_0.01/ecos/ecos_install/lib/libtarget.a(language_c_libc_vsnprintf.o)
 .debug_pubnames
                0x00002b11       0x1f /cygdrive/C/ZOTDWP2020_SDK_0.01/ecos/ecos_install/lib/libtarget.a(language_c_libc_vsscanf.o)
 .debug_pubnames
                0x00002b30       0x2c /cygdrive/C/ZOTDWP2020_SDK_0.01/ecos/ecos_install/lib/libtarget.a(language_c_libc_fgetc.o)
 .debug_pubnames
                0x00002b5c       0x1f /cygdrive/C/ZOTDWP2020_SDK_0.01/ecos/ecos_install/lib/libtarget.a(language_c_libc_fprintf.o)
 .debug_pubnames
                0x00002b7b       0x2c /cygdrive/C/ZOTDWP2020_SDK_0.01/ecos/ecos_install/lib/libtarget.a(language_c_libc_fputc.o)
 .debug_pubnames
                0x00002ba7       0x1d /cygdrive/C/ZOTDWP2020_SDK_0.01/ecos/ecos_install/lib/libtarget.a(language_c_libc_fputs.o)
 .debug_pubnames
                0x00002bc4       0x1e /cygdrive/C/ZOTDWP2020_SDK_0.01/ecos/ecos_install/lib/libtarget.a(language_c_libc_printf.o)
 .debug_pubnames
                0x00002be2       0x21 /cygdrive/C/ZOTDWP2020_SDK_0.01/ecos/ecos_install/lib/libtarget.a(language_c_libc_vfnprintf.o)
 .debug_pubnames
                0x00002c03       0x1c /cygdrive/C/ZOTDWP2020_SDK_0.01/ecos/ecos_install/lib/libtarget.a(language_c_libc_atoi.o)
 .debug_pubnames
                0x00002c1f       0x1c /cygdrive/C/ZOTDWP2020_SDK_0.01/ecos/ecos_install/lib/libtarget.a(language_c_libc_atol.o)
 .debug_pubnames
                0x00002c3b       0x7d /cygdrive/C/ZOTDWP2020_SDK_0.01/ecos/ecos_install/lib/libtarget.a(language_c_libc_malloc.o)
 .debug_pubnames
                0x00002cb8       0x33 /cygdrive/C/ZOTDWP2020_SDK_0.01/ecos/ecos_install/lib/libtarget.a(language_c_libc_rand.o)
 .debug_pubnames
                0x00002ceb       0x1e /cygdrive/C/ZOTDWP2020_SDK_0.01/ecos/ecos_install/lib/libtarget.a(language_c_libc_strtol.o)
 .debug_pubnames
                0x00002d09       0x1e /cygdrive/C/ZOTDWP2020_SDK_0.01/ecos/ecos_install/lib/libtarget.a(language_c_libc_memchr.o)
 .debug_pubnames
                0x00002d27       0x1e /cygdrive/C/ZOTDWP2020_SDK_0.01/ecos/ecos_install/lib/libtarget.a(language_c_libc_memcmp.o)
 .debug_pubnames
                0x00002d45       0x1f /cygdrive/C/ZOTDWP2020_SDK_0.01/ecos/ecos_install/lib/libtarget.a(language_c_libc_memmove.o)
 .debug_pubnames
                0x00002d64       0x1e /cygdrive/C/ZOTDWP2020_SDK_0.01/ecos/ecos_install/lib/libtarget.a(language_c_libc_strcat.o)
 .debug_pubnames
                0x00002d82       0x1e /cygdrive/C/ZOTDWP2020_SDK_0.01/ecos/ecos_install/lib/libtarget.a(language_c_libc_strchr.o)
 .debug_pubnames
                0x00002da0       0x1e /cygdrive/C/ZOTDWP2020_SDK_0.01/ecos/ecos_install/lib/libtarget.a(language_c_libc_strcmp.o)
 .debug_pubnames
                0x00002dbe       0x1e /cygdrive/C/ZOTDWP2020_SDK_0.01/ecos/ecos_install/lib/libtarget.a(language_c_libc_strcpy.o)
 .debug_pubnames
                0x00002ddc       0x1e /cygdrive/C/ZOTDWP2020_SDK_0.01/ecos/ecos_install/lib/libtarget.a(language_c_libc_strlen.o)
 .debug_pubnames
                0x00002dfa       0x1f /cygdrive/C/ZOTDWP2020_SDK_0.01/ecos/ecos_install/lib/libtarget.a(language_c_libc_strncat.o)
 .debug_pubnames
                0x00002e19       0x1f /cygdrive/C/ZOTDWP2020_SDK_0.01/ecos/ecos_install/lib/libtarget.a(language_c_libc_strncmp.o)
 .debug_pubnames
                0x00002e38       0x1f /cygdrive/C/ZOTDWP2020_SDK_0.01/ecos/ecos_install/lib/libtarget.a(language_c_libc_strncpy.o)
 .debug_pubnames
                0x00002e57       0x1f /cygdrive/C/ZOTDWP2020_SDK_0.01/ecos/ecos_install/lib/libtarget.a(language_c_libc_strpbrk.o)
 .debug_pubnames
                0x00002e76       0x1f /cygdrive/C/ZOTDWP2020_SDK_0.01/ecos/ecos_install/lib/libtarget.a(language_c_libc_strrchr.o)
 .debug_pubnames
                0x00002e95       0x1e /cygdrive/C/ZOTDWP2020_SDK_0.01/ecos/ecos_install/lib/libtarget.a(language_c_libc_strspn.o)
 .debug_pubnames
                0x00002eb3       0x1e /cygdrive/C/ZOTDWP2020_SDK_0.01/ecos/ecos_install/lib/libtarget.a(language_c_libc_strstr.o)
 .debug_pubnames
                0x00002ed1       0x4c /cygdrive/C/ZOTDWP2020_SDK_0.01/ecos/ecos_install/lib/libtarget.a(language_c_libc_strsuppt.o)
 .debug_pubnames
                0x00002f1d       0x2c /cygdrive/C/ZOTDWP2020_SDK_0.01/ecos/ecos_install/lib/libtarget.a(language_c_libc_strtok.o)
 .debug_pubnames
                0x00002f49       0x1e /cygdrive/C/ZOTDWP2020_SDK_0.01/ecos/ecos_install/lib/libtarget.a(language_c_libc_ctime.o)
 .debug_pubnames
                0x00002f67       0x42 /cygdrive/C/ZOTDWP2020_SDK_0.01/ecos/ecos_install/lib/libtarget.a(language_c_libc_localtime.o)
 .debug_pubnames
                0x00002fa9       0x24 /cygdrive/C/ZOTDWP2020_SDK_0.01/ecos/ecos_install/lib/libtarget.a(language_c_libc_localtime_r.o)
 .debug_pubnames
                0x00002fcd       0x1d /cygdrive/C/ZOTDWP2020_SDK_0.01/ecos/ecos_install/lib/libtarget.a(language_c_libc_time.o)
 .debug_pubnames
                0x00002fea      0x197 /cygdrive/C/ZOTDWP2020_SDK_0.01/ecos/ecos_install/lib/libtarget.a(language_c_libc_timeutil.o)
 .debug_pubnames
                0x00003181       0x7b /cygdrive/C/ZOTDWP2020_SDK_0.01/ecos/ecos_install/lib/libtarget.a(devs_wallclock_emulate.o)
 .debug_pubnames
                0x000031fc       0x20 /cygdrive/C/ZOTDWP2020_SDK_0.01/ecos/ecos_install/lib/libtarget.a(error_strerror.o)
 .debug_pubnames
                0x0000321c       0x99 /cygdrive/C/ZOTDWP2020_SDK_0.01/ecos/ecos_install/lib/libtarget.a(hal_arm_arch_hal_misc.o)
 .debug_pubnames
                0x000032b5      0x113 /cygdrive/C/ZOTDWP2020_SDK_0.01/ecos/ecos_install/lib/libtarget.a(hal_arm_zot716u2_zot716u2_misc.o)
 .debug_pubnames
                0x000033c8       0x53 /cygdrive/C/ZOTDWP2020_SDK_0.01/ecos/ecos_install/lib/libtarget.a(hal_arm_zot716u2_hal_diag.o)
 .debug_pubnames
                0x0000341b       0x3d /cygdrive/C/ZOTDWP2020_SDK_0.01/ecos/ecos_install/lib/libtarget.a(infra_delete.o)
 .debug_pubnames
                0x00003458      0x22d /cygdrive/C/ZOTDWP2020_SDK_0.01/ecos/ecos_install/lib/libtarget.a(kernel_clock.o)
 .debug_pubnames
                0x00003685       0x1f /cygdrive/C/ZOTDWP2020_SDK_0.01/ecos/ecos_install/lib/libtarget.a(language_c_libc_setvbuf.o)
 .debug_pubnames
                0x000036a4       0x2b /cygdrive/C/ZOTDWP2020_SDK_0.01/ecos/ecos_install/lib/libtarget.a(language_c_libc_stdin.o)
 .debug_pubnames
                0x000036cf       0x1c /cygdrive/C/ZOTDWP2020_SDK_0.01/ecos/ecos_install/lib/libtarget.a(language_c_libc_div.o)
 .debug_pubnames
                0x000036eb       0x3e /cygdrive/C/ZOTDWP2020_SDK_0.01/ecos/ecos_install/lib/libtarget.a(language_c_libc_asctime.o)
 .debug_pubnames
                0x00003729       0x22 /cygdrive/C/ZOTDWP2020_SDK_0.01/ecos/ecos_install/lib/libtarget.a(language_c_libc_asctime_r.o)
 .debug_pubnames
                0x0000374b       0x21 /cygdrive/C/ZOTDWP2020_SDK_0.01/ecos/ecos_install/lib/libtarget.a(language_c_libc_gmtime_r.o)
 .debug_pubnames
                0x0000376c       0x24 /cygdrive/C/ZOTDWP2020_SDK_0.01/ecos/ecos_install/lib/libtarget.a(language_c_libc_itoa.o)
 .debug_pubnames
                0x00003790       0x20 /tools/H-i686-pc-cygwin/lib/gcc-lib/arm-elf/2.95.2/libgcc.a(_udivdi3.o)
 .debug_pubnames
                0x000037b0       0x20 /tools/H-i686-pc-cygwin/lib/gcc-lib/arm-elf/2.95.2/libgcc.a(_umoddi3.o)

.debug_info     0x00000000    0xb9462
 *(.debug_info)
 .debug_info    0x00000000     0x9512 /cygdrive/C/ZOTDWP2020_SDK_0.01/ecos/ecos_install/lib/extras.o
 .debug_info    0x00009512     0x4d08 /cygdrive/C/ZOTDWP2020_SDK_0.01/ecos/ecos_install/lib/libtarget.a(infra_startup.o)
 .debug_info    0x0000e21a      0x3ee /cygdrive/C/ZOTDWP2020_SDK_0.01/ecos/ecos_install/lib/libtarget.a(infra_prestart.o)
 .debug_info    0x0000e608      0x3f3 /cygdrive/C/ZOTDWP2020_SDK_0.01/ecos/ecos_install/lib/libtarget.a(infra_pkgstart.o)
 .debug_info    0x0000e9fb      0xca1 /cygdrive/C/ZOTDWP2020_SDK_0.01/ecos/ecos_install/lib/libtarget.a(infra_diag.o)
 .debug_info    0x0000f69c      0x4b0 /cygdrive/C/ZOTDWP2020_SDK_0.01/ecos/ecos_install/lib/libtarget.a(infra_memcpy.o)
 .debug_info    0x0000fb4c      0x4b9 /cygdrive/C/ZOTDWP2020_SDK_0.01/ecos/ecos_install/lib/libtarget.a(infra_memset.o)
 .debug_info    0x00010005     0xd4a8 /cygdrive/C/ZOTDWP2020_SDK_0.01/ecos/ecos_install/lib/libtarget.a(kernel_kapi.o)
 .debug_info    0x0001d4ad     0x73e3 /cygdrive/C/ZOTDWP2020_SDK_0.01/ecos/ecos_install/lib/libtarget.a(kernel_thread.o)
 .debug_info    0x00024890     0x4ee3 /cygdrive/C/ZOTDWP2020_SDK_0.01/ecos/ecos_install/lib/libtarget.a(kernel_except.o)
 .debug_info    0x00029773     0x5d2b /cygdrive/C/ZOTDWP2020_SDK_0.01/ecos/ecos_install/lib/libtarget.a(kernel_intr.o)
 .debug_info    0x0002f49e     0x737d /cygdrive/C/ZOTDWP2020_SDK_0.01/ecos/ecos_install/lib/libtarget.a(kernel_memfixed.o)
 .debug_info    0x0003681b     0x78cf /cygdrive/C/ZOTDWP2020_SDK_0.01/ecos/ecos_install/lib/libtarget.a(kernel_memvar.o)
 .debug_info    0x0003e0ea     0x54d9 /cygdrive/C/ZOTDWP2020_SDK_0.01/ecos/ecos_install/lib/libtarget.a(kernel_mlqueue.o)
 .debug_info    0x000435c3     0x5693 /cygdrive/C/ZOTDWP2020_SDK_0.01/ecos/ecos_install/lib/libtarget.a(kernel_sched.o)
 .debug_info    0x00048c56     0x5e6f /cygdrive/C/ZOTDWP2020_SDK_0.01/ecos/ecos_install/lib/libtarget.a(kernel_cnt_sem.o)
 .debug_info    0x0004eac5     0x5e21 /cygdrive/C/ZOTDWP2020_SDK_0.01/ecos/ecos_install/lib/libtarget.a(kernel_flag.o)
 .debug_info    0x000548e6     0x7558 /cygdrive/C/ZOTDWP2020_SDK_0.01/ecos/ecos_install/lib/libtarget.a(kernel_mbox.o)
 .debug_info    0x0005be3e     0x6537 /cygdrive/C/ZOTDWP2020_SDK_0.01/ecos/ecos_install/lib/libtarget.a(kernel_mutex.o)
 .debug_info    0x00062375      0x3a1 /cygdrive/C/ZOTDWP2020_SDK_0.01/ecos/ecos_install/lib/libtarget.a(language_c_libc_isalnum.o)
 .debug_info    0x00062716      0x3a1 /cygdrive/C/ZOTDWP2020_SDK_0.01/ecos/ecos_install/lib/libtarget.a(language_c_libc_isalpha.o)
 .debug_info    0x00062ab7      0x3a1 /cygdrive/C/ZOTDWP2020_SDK_0.01/ecos/ecos_install/lib/libtarget.a(language_c_libc_isdigit.o)
 .debug_info    0x00062e58      0x3a1 /cygdrive/C/ZOTDWP2020_SDK_0.01/ecos/ecos_install/lib/libtarget.a(language_c_libc_islower.o)
 .debug_info    0x000631f9      0x3a1 /cygdrive/C/ZOTDWP2020_SDK_0.01/ecos/ecos_install/lib/libtarget.a(language_c_libc_isprint.o)
 .debug_info    0x0006359a      0x3a1 /cygdrive/C/ZOTDWP2020_SDK_0.01/ecos/ecos_install/lib/libtarget.a(language_c_libc_isspace.o)
 .debug_info    0x0006393b      0x3a1 /cygdrive/C/ZOTDWP2020_SDK_0.01/ecos/ecos_install/lib/libtarget.a(language_c_libc_isupper.o)
 .debug_info    0x00063cdc      0x3a3 /cygdrive/C/ZOTDWP2020_SDK_0.01/ecos/ecos_install/lib/libtarget.a(language_c_libc_isxdigit.o)
 .debug_info    0x0006407f      0x3a1 /cygdrive/C/ZOTDWP2020_SDK_0.01/ecos/ecos_install/lib/libtarget.a(language_c_libc_toupper.o)
 .debug_info    0x00064420      0x40b /cygdrive/C/ZOTDWP2020_SDK_0.01/ecos/ecos_install/lib/libtarget.a(language_c_libc_errno.o)
 .debug_info    0x0006482b     0x31ff /cygdrive/C/ZOTDWP2020_SDK_0.01/ecos/ecos_install/lib/libtarget.a(language_c_libc_sprintf.o)
 .debug_info    0x00067a2a     0x31fd /cygdrive/C/ZOTDWP2020_SDK_0.01/ecos/ecos_install/lib/libtarget.a(language_c_libc_sscanf.o)
 .debug_info    0x0006ac27     0x37f5 /cygdrive/C/ZOTDWP2020_SDK_0.01/ecos/ecos_install/lib/libtarget.a(language_c_libc_stderr.o)
 .debug_info    0x0006e41c     0x1384 /cygdrive/C/ZOTDWP2020_SDK_0.01/ecos/ecos_install/lib/libtarget.a(language_c_libc_stdiofiles.o)
 .debug_info    0x0006f7a0     0x3387 /cygdrive/C/ZOTDWP2020_SDK_0.01/ecos/ecos_install/lib/libtarget.a(language_c_libc_stdioinlines.o)
 .debug_info    0x00072b27     0x3202 /cygdrive/C/ZOTDWP2020_SDK_0.01/ecos/ecos_install/lib/libtarget.a(language_c_libc_stdiosupp.o)
 .debug_info    0x00075d29     0x37f5 /cygdrive/C/ZOTDWP2020_SDK_0.01/ecos/ecos_install/lib/libtarget.a(language_c_libc_stdout.o)
 .debug_info    0x0007951e     0x35e1 /cygdrive/C/ZOTDWP2020_SDK_0.01/ecos/ecos_install/lib/libtarget.a(language_c_libc_stream.o)
 .debug_info    0x0007caff     0x3235 /cygdrive/C/ZOTDWP2020_SDK_0.01/ecos/ecos_install/lib/libtarget.a(language_c_libc_ungetc.o)
 .debug_info    0x0007fd34     0x3348 /cygdrive/C/ZOTDWP2020_SDK_0.01/ecos/ecos_install/lib/libtarget.a(language_c_libc_vsnprintf.o)
 .debug_info    0x0008307c     0x3315 /cygdrive/C/ZOTDWP2020_SDK_0.01/ecos/ecos_install/lib/libtarget.a(language_c_libc_vsscanf.o)
 .debug_info    0x00086391     0x1189 /cygdrive/C/ZOTDWP2020_SDK_0.01/ecos/ecos_install/lib/libtarget.a(language_c_libc_fgetc.o)
 .debug_info    0x0008751a     0x320a /cygdrive/C/ZOTDWP2020_SDK_0.01/ecos/ecos_install/lib/libtarget.a(language_c_libc_fprintf.o)
 .debug_info    0x0008a724     0x11c2 /cygdrive/C/ZOTDWP2020_SDK_0.01/ecos/ecos_install/lib/libtarget.a(language_c_libc_fputc.o)
 .debug_info    0x0008b8e6     0x327d /cygdrive/C/ZOTDWP2020_SDK_0.01/ecos/ecos_install/lib/libtarget.a(language_c_libc_fputs.o)
 .debug_info    0x0008eb63     0x3211 /cygdrive/C/ZOTDWP2020_SDK_0.01/ecos/ecos_install/lib/libtarget.a(language_c_libc_printf.o)
 .debug_info    0x00091d74     0x1619 /cygdrive/C/ZOTDWP2020_SDK_0.01/ecos/ecos_install/lib/libtarget.a(language_c_libc_vfnprintf.o)
 .debug_info    0x0009338d      0x649 /cygdrive/C/ZOTDWP2020_SDK_0.01/ecos/ecos_install/lib/libtarget.a(language_c_libc_atoi.o)
 .debug_info    0x000939d6      0x649 /cygdrive/C/ZOTDWP2020_SDK_0.01/ecos/ecos_install/lib/libtarget.a(language_c_libc_atol.o)
 .debug_info    0x0009401f     0x5d9a /cygdrive/C/ZOTDWP2020_SDK_0.01/ecos/ecos_install/lib/libtarget.a(language_c_libc_malloc.o)
 .debug_info    0x00099db9      0x6d8 /cygdrive/C/ZOTDWP2020_SDK_0.01/ecos/ecos_install/lib/libtarget.a(language_c_libc_rand.o)
 .debug_info    0x0009a491      0x6e9 /cygdrive/C/ZOTDWP2020_SDK_0.01/ecos/ecos_install/lib/libtarget.a(language_c_libc_strtol.o)
 .debug_info    0x0009ab7a      0x54d /cygdrive/C/ZOTDWP2020_SDK_0.01/ecos/ecos_install/lib/libtarget.a(language_c_libc_memchr.o)
 .debug_info    0x0009b0c7      0x4fd /cygdrive/C/ZOTDWP2020_SDK_0.01/ecos/ecos_install/lib/libtarget.a(language_c_libc_memcmp.o)
 .debug_info    0x0009b5c4      0x4b1 /cygdrive/C/ZOTDWP2020_SDK_0.01/ecos/ecos_install/lib/libtarget.a(language_c_libc_memmove.o)
 .debug_info    0x0009ba75      0x4ff /cygdrive/C/ZOTDWP2020_SDK_0.01/ecos/ecos_install/lib/libtarget.a(language_c_libc_strcat.o)
 .debug_info    0x0009bf74      0x50e /cygdrive/C/ZOTDWP2020_SDK_0.01/ecos/ecos_install/lib/libtarget.a(language_c_libc_strchr.o)
 .debug_info    0x0009c482      0x531 /cygdrive/C/ZOTDWP2020_SDK_0.01/ecos/ecos_install/lib/libtarget.a(language_c_libc_strcmp.o)
 .debug_info    0x0009c9b3      0x521 /cygdrive/C/ZOTDWP2020_SDK_0.01/ecos/ecos_install/lib/libtarget.a(language_c_libc_strcpy.o)
 .debug_info    0x0009ced4      0x4fc /cygdrive/C/ZOTDWP2020_SDK_0.01/ecos/ecos_install/lib/libtarget.a(language_c_libc_strlen.o)
 .debug_info    0x0009d3d0      0x516 /cygdrive/C/ZOTDWP2020_SDK_0.01/ecos/ecos_install/lib/libtarget.a(language_c_libc_strncat.o)
 .debug_info    0x0009d8e6      0x51e /cygdrive/C/ZOTDWP2020_SDK_0.01/ecos/ecos_install/lib/libtarget.a(language_c_libc_strncmp.o)
 .debug_info    0x0009de04      0x538 /cygdrive/C/ZOTDWP2020_SDK_0.01/ecos/ecos_install/lib/libtarget.a(language_c_libc_strncpy.o)
 .debug_info    0x0009e33c      0x484 /cygdrive/C/ZOTDWP2020_SDK_0.01/ecos/ecos_install/lib/libtarget.a(language_c_libc_strpbrk.o)
 .debug_info    0x0009e7c0      0x492 /cygdrive/C/ZOTDWP2020_SDK_0.01/ecos/ecos_install/lib/libtarget.a(language_c_libc_strrchr.o)
 .debug_info    0x0009ec52      0x49f /cygdrive/C/ZOTDWP2020_SDK_0.01/ecos/ecos_install/lib/libtarget.a(language_c_libc_strspn.o)
 .debug_info    0x0009f0f1      0x4a0 /cygdrive/C/ZOTDWP2020_SDK_0.01/ecos/ecos_install/lib/libtarget.a(language_c_libc_strstr.o)
 .debug_info    0x0009f591      0x3c7 /cygdrive/C/ZOTDWP2020_SDK_0.01/ecos/ecos_install/lib/libtarget.a(language_c_libc_strsuppt.o)
 .debug_info    0x0009f958      0x541 /cygdrive/C/ZOTDWP2020_SDK_0.01/ecos/ecos_install/lib/libtarget.a(language_c_libc_strtok.o)
 .debug_info    0x0009fe99      0x7bc /cygdrive/C/ZOTDWP2020_SDK_0.01/ecos/ecos_install/lib/libtarget.a(language_c_libc_ctime.o)
 .debug_info    0x000a0655      0x7d3 /cygdrive/C/ZOTDWP2020_SDK_0.01/ecos/ecos_install/lib/libtarget.a(language_c_libc_localtime.o)
 .debug_info    0x000a0e28      0x80a /cygdrive/C/ZOTDWP2020_SDK_0.01/ecos/ecos_install/lib/libtarget.a(language_c_libc_localtime_r.o)
 .debug_info    0x000a1632      0x955 /cygdrive/C/ZOTDWP2020_SDK_0.01/ecos/ecos_install/lib/libtarget.a(language_c_libc_time.o)
 .debug_info    0x000a1f87      0xb89 /cygdrive/C/ZOTDWP2020_SDK_0.01/ecos/ecos_install/lib/libtarget.a(language_c_libc_timeutil.o)
 .debug_info    0x000a2b10     0x51b9 /cygdrive/C/ZOTDWP2020_SDK_0.01/ecos/ecos_install/lib/libtarget.a(devs_wallclock_emulate.o)
 .debug_info    0x000a7cc9      0x42e /cygdrive/C/ZOTDWP2020_SDK_0.01/ecos/ecos_install/lib/libtarget.a(error_strerror.o)
 .debug_info    0x000a80f7      0x6ca /cygdrive/C/ZOTDWP2020_SDK_0.01/ecos/ecos_install/lib/libtarget.a(hal_arm_arch_hal_misc.o)
 .debug_info    0x000a87c1      0xa45 /cygdrive/C/ZOTDWP2020_SDK_0.01/ecos/ecos_install/lib/libtarget.a(hal_arm_zot716u2_zot716u2_misc.o)
 .debug_info    0x000a9206      0x601 /cygdrive/C/ZOTDWP2020_SDK_0.01/ecos/ecos_install/lib/libtarget.a(hal_arm_zot716u2_hal_diag.o)
 .debug_info    0x000a9807      0x3e2 /cygdrive/C/ZOTDWP2020_SDK_0.01/ecos/ecos_install/lib/libtarget.a(infra_delete.o)
 .debug_info    0x000a9be9     0x63f3 /cygdrive/C/ZOTDWP2020_SDK_0.01/ecos/ecos_install/lib/libtarget.a(kernel_clock.o)
 .debug_info    0x000affdc     0x3215 /cygdrive/C/ZOTDWP2020_SDK_0.01/ecos/ecos_install/lib/libtarget.a(language_c_libc_setvbuf.o)
 .debug_info    0x000b31f1     0x37e8 /cygdrive/C/ZOTDWP2020_SDK_0.01/ecos/ecos_install/lib/libtarget.a(language_c_libc_stdin.o)
 .debug_info    0x000b69d9      0x64b /cygdrive/C/ZOTDWP2020_SDK_0.01/ecos/ecos_install/lib/libtarget.a(language_c_libc_div.o)
 .debug_info    0x000b7024      0x7e4 /cygdrive/C/ZOTDWP2020_SDK_0.01/ecos/ecos_install/lib/libtarget.a(language_c_libc_asctime.o)
 .debug_info    0x000b7808      0xadf /cygdrive/C/ZOTDWP2020_SDK_0.01/ecos/ecos_install/lib/libtarget.a(language_c_libc_asctime_r.o)
 .debug_info    0x000b82e7      0x88a /cygdrive/C/ZOTDWP2020_SDK_0.01/ecos/ecos_install/lib/libtarget.a(language_c_libc_gmtime_r.o)
 .debug_info    0x000b8b71      0x74f /cygdrive/C/ZOTDWP2020_SDK_0.01/ecos/ecos_install/lib/libtarget.a(language_c_libc_itoa.o)
 .debug_info    0x000b92c0       0x62 /tools/H-i686-pc-cygwin/lib/gcc-lib/arm-elf/2.95.2/libgcc.a(_ctors.o)
 .debug_info    0x000b9322       0xa0 /tools/H-i686-pc-cygwin/lib/gcc-lib/arm-elf/2.95.2/libgcc.a(_udivdi3.o)
 .debug_info    0x000b93c2       0xa0 /tools/H-i686-pc-cygwin/lib/gcc-lib/arm-elf/2.95.2/libgcc.a(_umoddi3.o)

.debug_abbrev   0x00000000     0xb870
 *(.debug_abbrev)
 .debug_abbrev  0x00000000      0x838 /cygdrive/C/ZOTDWP2020_SDK_0.01/ecos/ecos_install/lib/extras.o
 .debug_abbrev  0x00000838      0x404 /cygdrive/C/ZOTDWP2020_SDK_0.01/ecos/ecos_install/lib/libtarget.a(infra_startup.o)
 .debug_abbrev  0x00000c3c       0x70 /cygdrive/C/ZOTDWP2020_SDK_0.01/ecos/ecos_install/lib/libtarget.a(infra_prestart.o)
 .debug_abbrev  0x00000cac       0x70 /cygdrive/C/ZOTDWP2020_SDK_0.01/ecos/ecos_install/lib/libtarget.a(infra_pkgstart.o)
 .debug_abbrev  0x00000d1c      0x1fa /cygdrive/C/ZOTDWP2020_SDK_0.01/ecos/ecos_install/lib/libtarget.a(infra_diag.o)
 .debug_abbrev  0x00000f16       0xb0 /cygdrive/C/ZOTDWP2020_SDK_0.01/ecos/ecos_install/lib/libtarget.a(infra_memcpy.o)
 .debug_abbrev  0x00000fc6       0xb1 /cygdrive/C/ZOTDWP2020_SDK_0.01/ecos/ecos_install/lib/libtarget.a(infra_memset.o)
 .debug_abbrev  0x00001077      0x580 /cygdrive/C/ZOTDWP2020_SDK_0.01/ecos/ecos_install/lib/libtarget.a(kernel_kapi.o)
 .debug_abbrev  0x000015f7      0x57a /cygdrive/C/ZOTDWP2020_SDK_0.01/ecos/ecos_install/lib/libtarget.a(kernel_thread.o)
 .debug_abbrev  0x00001b71      0x49e /cygdrive/C/ZOTDWP2020_SDK_0.01/ecos/ecos_install/lib/libtarget.a(kernel_except.o)
 .debug_abbrev  0x0000200f      0x555 /cygdrive/C/ZOTDWP2020_SDK_0.01/ecos/ecos_install/lib/libtarget.a(kernel_intr.o)
 .debug_abbrev  0x00002564      0x4f4 /cygdrive/C/ZOTDWP2020_SDK_0.01/ecos/ecos_install/lib/libtarget.a(kernel_memfixed.o)
 .debug_abbrev  0x00002a58      0x518 /cygdrive/C/ZOTDWP2020_SDK_0.01/ecos/ecos_install/lib/libtarget.a(kernel_memvar.o)
 .debug_abbrev  0x00002f70      0x4be /cygdrive/C/ZOTDWP2020_SDK_0.01/ecos/ecos_install/lib/libtarget.a(kernel_mlqueue.o)
 .debug_abbrev  0x0000342e      0x502 /cygdrive/C/ZOTDWP2020_SDK_0.01/ecos/ecos_install/lib/libtarget.a(kernel_sched.o)
 .debug_abbrev  0x00003930      0x4c1 /cygdrive/C/ZOTDWP2020_SDK_0.01/ecos/ecos_install/lib/libtarget.a(kernel_cnt_sem.o)
 .debug_abbrev  0x00003df1      0x4df /cygdrive/C/ZOTDWP2020_SDK_0.01/ecos/ecos_install/lib/libtarget.a(kernel_flag.o)
 .debug_abbrev  0x000042d0      0x4bc /cygdrive/C/ZOTDWP2020_SDK_0.01/ecos/ecos_install/lib/libtarget.a(kernel_mbox.o)
 .debug_abbrev  0x0000478c      0x4df /cygdrive/C/ZOTDWP2020_SDK_0.01/ecos/ecos_install/lib/libtarget.a(kernel_mutex.o)
 .debug_abbrev  0x00004c6b       0x62 /cygdrive/C/ZOTDWP2020_SDK_0.01/ecos/ecos_install/lib/libtarget.a(language_c_libc_isalnum.o)
 .debug_abbrev  0x00004ccd       0x62 /cygdrive/C/ZOTDWP2020_SDK_0.01/ecos/ecos_install/lib/libtarget.a(language_c_libc_isalpha.o)
 .debug_abbrev  0x00004d2f       0x62 /cygdrive/C/ZOTDWP2020_SDK_0.01/ecos/ecos_install/lib/libtarget.a(language_c_libc_isdigit.o)
 .debug_abbrev  0x00004d91       0x62 /cygdrive/C/ZOTDWP2020_SDK_0.01/ecos/ecos_install/lib/libtarget.a(language_c_libc_islower.o)
 .debug_abbrev  0x00004df3       0x62 /cygdrive/C/ZOTDWP2020_SDK_0.01/ecos/ecos_install/lib/libtarget.a(language_c_libc_isprint.o)
 .debug_abbrev  0x00004e55       0x62 /cygdrive/C/ZOTDWP2020_SDK_0.01/ecos/ecos_install/lib/libtarget.a(language_c_libc_isspace.o)
 .debug_abbrev  0x00004eb7       0x62 /cygdrive/C/ZOTDWP2020_SDK_0.01/ecos/ecos_install/lib/libtarget.a(language_c_libc_isupper.o)
 .debug_abbrev  0x00004f19       0x62 /cygdrive/C/ZOTDWP2020_SDK_0.01/ecos/ecos_install/lib/libtarget.a(language_c_libc_isxdigit.o)
 .debug_abbrev  0x00004f7b       0x62 /cygdrive/C/ZOTDWP2020_SDK_0.01/ecos/ecos_install/lib/libtarget.a(language_c_libc_toupper.o)
 .debug_abbrev  0x00004fdd       0x6c /cygdrive/C/ZOTDWP2020_SDK_0.01/ecos/ecos_install/lib/libtarget.a(language_c_libc_errno.o)
 .debug_abbrev  0x00005049      0x2ae /cygdrive/C/ZOTDWP2020_SDK_0.01/ecos/ecos_install/lib/libtarget.a(language_c_libc_sprintf.o)
 .debug_abbrev  0x000052f7      0x2ae /cygdrive/C/ZOTDWP2020_SDK_0.01/ecos/ecos_install/lib/libtarget.a(language_c_libc_sscanf.o)
 .debug_abbrev  0x000055a5      0x340 /cygdrive/C/ZOTDWP2020_SDK_0.01/ecos/ecos_install/lib/libtarget.a(language_c_libc_stderr.o)
 .debug_abbrev  0x000058e5      0x27c /cygdrive/C/ZOTDWP2020_SDK_0.01/ecos/ecos_install/lib/libtarget.a(language_c_libc_stdiofiles.o)
 .debug_abbrev  0x00005b61      0x2e0 /cygdrive/C/ZOTDWP2020_SDK_0.01/ecos/ecos_install/lib/libtarget.a(language_c_libc_stdioinlines.o)
 .debug_abbrev  0x00005e41      0x2b8 /cygdrive/C/ZOTDWP2020_SDK_0.01/ecos/ecos_install/lib/libtarget.a(language_c_libc_stdiosupp.o)
 .debug_abbrev  0x000060f9      0x340 /cygdrive/C/ZOTDWP2020_SDK_0.01/ecos/ecos_install/lib/libtarget.a(language_c_libc_stdout.o)
 .debug_abbrev  0x00006439      0x31d /cygdrive/C/ZOTDWP2020_SDK_0.01/ecos/ecos_install/lib/libtarget.a(language_c_libc_stream.o)
 .debug_abbrev  0x00006756      0x2cc /cygdrive/C/ZOTDWP2020_SDK_0.01/ecos/ecos_install/lib/libtarget.a(language_c_libc_ungetc.o)
 .debug_abbrev  0x00006a22      0x2ed /cygdrive/C/ZOTDWP2020_SDK_0.01/ecos/ecos_install/lib/libtarget.a(language_c_libc_vsnprintf.o)
 .debug_abbrev  0x00006d0f      0x2ed /cygdrive/C/ZOTDWP2020_SDK_0.01/ecos/ecos_install/lib/libtarget.a(language_c_libc_vsscanf.o)
 .debug_abbrev  0x00006ffc      0x26e /cygdrive/C/ZOTDWP2020_SDK_0.01/ecos/ecos_install/lib/libtarget.a(language_c_libc_fgetc.o)
 .debug_abbrev  0x0000726a      0x2ae /cygdrive/C/ZOTDWP2020_SDK_0.01/ecos/ecos_install/lib/libtarget.a(language_c_libc_fprintf.o)
 .debug_abbrev  0x00007518      0x262 /cygdrive/C/ZOTDWP2020_SDK_0.01/ecos/ecos_install/lib/libtarget.a(language_c_libc_fputc.o)
 .debug_abbrev  0x0000777a      0x2ce /cygdrive/C/ZOTDWP2020_SDK_0.01/ecos/ecos_install/lib/libtarget.a(language_c_libc_fputs.o)
 .debug_abbrev  0x00007a48      0x2ae /cygdrive/C/ZOTDWP2020_SDK_0.01/ecos/ecos_install/lib/libtarget.a(language_c_libc_printf.o)
 .debug_abbrev  0x00007cf6      0x2ae /cygdrive/C/ZOTDWP2020_SDK_0.01/ecos/ecos_install/lib/libtarget.a(language_c_libc_vfnprintf.o)
 .debug_abbrev  0x00007fa4      0x100 /cygdrive/C/ZOTDWP2020_SDK_0.01/ecos/ecos_install/lib/libtarget.a(language_c_libc_atoi.o)
 .debug_abbrev  0x000080a4      0x100 /cygdrive/C/ZOTDWP2020_SDK_0.01/ecos/ecos_install/lib/libtarget.a(language_c_libc_atol.o)
 .debug_abbrev  0x000081a4      0x46a /cygdrive/C/ZOTDWP2020_SDK_0.01/ecos/ecos_install/lib/libtarget.a(language_c_libc_malloc.o)
 .debug_abbrev  0x0000860e      0x124 /cygdrive/C/ZOTDWP2020_SDK_0.01/ecos/ecos_install/lib/libtarget.a(language_c_libc_rand.o)
 .debug_abbrev  0x00008732      0x113 /cygdrive/C/ZOTDWP2020_SDK_0.01/ecos/ecos_install/lib/libtarget.a(language_c_libc_strtol.o)
 .debug_abbrev  0x00008845       0xdf /cygdrive/C/ZOTDWP2020_SDK_0.01/ecos/ecos_install/lib/libtarget.a(language_c_libc_memchr.o)
 .debug_abbrev  0x00008924       0xd4 /cygdrive/C/ZOTDWP2020_SDK_0.01/ecos/ecos_install/lib/libtarget.a(language_c_libc_memcmp.o)
 .debug_abbrev  0x000089f8       0xce /cygdrive/C/ZOTDWP2020_SDK_0.01/ecos/ecos_install/lib/libtarget.a(language_c_libc_memmove.o)
 .debug_abbrev  0x00008ac6       0xde /cygdrive/C/ZOTDWP2020_SDK_0.01/ecos/ecos_install/lib/libtarget.a(language_c_libc_strcat.o)
 .debug_abbrev  0x00008ba4       0xd3 /cygdrive/C/ZOTDWP2020_SDK_0.01/ecos/ecos_install/lib/libtarget.a(language_c_libc_strchr.o)
 .debug_abbrev  0x00008c77       0xeb /cygdrive/C/ZOTDWP2020_SDK_0.01/ecos/ecos_install/lib/libtarget.a(language_c_libc_strcmp.o)
 .debug_abbrev  0x00008d62       0xd3 /cygdrive/C/ZOTDWP2020_SDK_0.01/ecos/ecos_install/lib/libtarget.a(language_c_libc_strcpy.o)
 .debug_abbrev  0x00008e35       0xe0 /cygdrive/C/ZOTDWP2020_SDK_0.01/ecos/ecos_install/lib/libtarget.a(language_c_libc_strlen.o)
 .debug_abbrev  0x00008f15       0xde /cygdrive/C/ZOTDWP2020_SDK_0.01/ecos/ecos_install/lib/libtarget.a(language_c_libc_strncat.o)
 .debug_abbrev  0x00008ff3       0xe0 /cygdrive/C/ZOTDWP2020_SDK_0.01/ecos/ecos_install/lib/libtarget.a(language_c_libc_strncmp.o)
 .debug_abbrev  0x000090d3       0xd3 /cygdrive/C/ZOTDWP2020_SDK_0.01/ecos/ecos_install/lib/libtarget.a(language_c_libc_strncpy.o)
 .debug_abbrev  0x000091a6       0xc2 /cygdrive/C/ZOTDWP2020_SDK_0.01/ecos/ecos_install/lib/libtarget.a(language_c_libc_strpbrk.o)
 .debug_abbrev  0x00009268       0xcf /cygdrive/C/ZOTDWP2020_SDK_0.01/ecos/ecos_install/lib/libtarget.a(language_c_libc_strrchr.o)
 .debug_abbrev  0x00009337       0xcf /cygdrive/C/ZOTDWP2020_SDK_0.01/ecos/ecos_install/lib/libtarget.a(language_c_libc_strspn.o)
 .debug_abbrev  0x00009406       0xcd /cygdrive/C/ZOTDWP2020_SDK_0.01/ecos/ecos_install/lib/libtarget.a(language_c_libc_strstr.o)
 .debug_abbrev  0x000094d3       0x52 /cygdrive/C/ZOTDWP2020_SDK_0.01/ecos/ecos_install/lib/libtarget.a(language_c_libc_strsuppt.o)
 .debug_abbrev  0x00009525       0xdc /cygdrive/C/ZOTDWP2020_SDK_0.01/ecos/ecos_install/lib/libtarget.a(language_c_libc_strtok.o)
 .debug_abbrev  0x00009601      0x14f /cygdrive/C/ZOTDWP2020_SDK_0.01/ecos/ecos_install/lib/libtarget.a(language_c_libc_ctime.o)
 .debug_abbrev  0x00009750      0x153 /cygdrive/C/ZOTDWP2020_SDK_0.01/ecos/ecos_install/lib/libtarget.a(language_c_libc_localtime.o)
 .debug_abbrev  0x000098a3      0x165 /cygdrive/C/ZOTDWP2020_SDK_0.01/ecos/ecos_install/lib/libtarget.a(language_c_libc_localtime_r.o)
 .debug_abbrev  0x00009a08      0x18f /cygdrive/C/ZOTDWP2020_SDK_0.01/ecos/ecos_install/lib/libtarget.a(language_c_libc_time.o)
 .debug_abbrev  0x00009b97      0x1a1 /cygdrive/C/ZOTDWP2020_SDK_0.01/ecos/ecos_install/lib/libtarget.a(language_c_libc_timeutil.o)
 .debug_abbrev  0x00009d38      0x499 /cygdrive/C/ZOTDWP2020_SDK_0.01/ecos/ecos_install/lib/libtarget.a(devs_wallclock_emulate.o)
 .debug_abbrev  0x0000a1d1       0x9b /cygdrive/C/ZOTDWP2020_SDK_0.01/ecos/ecos_install/lib/libtarget.a(error_strerror.o)
 .debug_abbrev  0x0000a26c       0xf8 /cygdrive/C/ZOTDWP2020_SDK_0.01/ecos/ecos_install/lib/libtarget.a(hal_arm_arch_hal_misc.o)
 .debug_abbrev  0x0000a364      0x104 /cygdrive/C/ZOTDWP2020_SDK_0.01/ecos/ecos_install/lib/libtarget.a(hal_arm_zot716u2_zot716u2_misc.o)
 .debug_abbrev  0x0000a468       0xf9 /cygdrive/C/ZOTDWP2020_SDK_0.01/ecos/ecos_install/lib/libtarget.a(hal_arm_zot716u2_hal_diag.o)
 .debug_abbrev  0x0000a561       0x6a /cygdrive/C/ZOTDWP2020_SDK_0.01/ecos/ecos_install/lib/libtarget.a(infra_delete.o)
 .debug_abbrev  0x0000a5cb      0x595 /cygdrive/C/ZOTDWP2020_SDK_0.01/ecos/ecos_install/lib/libtarget.a(kernel_clock.o)
 .debug_abbrev  0x0000ab60      0x2a9 /cygdrive/C/ZOTDWP2020_SDK_0.01/ecos/ecos_install/lib/libtarget.a(language_c_libc_setvbuf.o)
 .debug_abbrev  0x0000ae09      0x340 /cygdrive/C/ZOTDWP2020_SDK_0.01/ecos/ecos_install/lib/libtarget.a(language_c_libc_stdin.o)
 .debug_abbrev  0x0000b149      0x102 /cygdrive/C/ZOTDWP2020_SDK_0.01/ecos/ecos_install/lib/libtarget.a(language_c_libc_div.o)
 .debug_abbrev  0x0000b24b      0x163 /cygdrive/C/ZOTDWP2020_SDK_0.01/ecos/ecos_install/lib/libtarget.a(language_c_libc_asctime.o)
 .debug_abbrev  0x0000b3ae      0x191 /cygdrive/C/ZOTDWP2020_SDK_0.01/ecos/ecos_install/lib/libtarget.a(language_c_libc_asctime_r.o)
 .debug_abbrev  0x0000b53f      0x180 /cygdrive/C/ZOTDWP2020_SDK_0.01/ecos/ecos_install/lib/libtarget.a(language_c_libc_gmtime_r.o)
 .debug_abbrev  0x0000b6bf      0x12d /cygdrive/C/ZOTDWP2020_SDK_0.01/ecos/ecos_install/lib/libtarget.a(language_c_libc_itoa.o)
 .debug_abbrev  0x0000b7ec        0xe /tools/H-i686-pc-cygwin/lib/gcc-lib/arm-elf/2.95.2/libgcc.a(_ctors.o)
 .debug_abbrev  0x0000b7fa       0x3b /tools/H-i686-pc-cygwin/lib/gcc-lib/arm-elf/2.95.2/libgcc.a(_udivdi3.o)
 .debug_abbrev  0x0000b835       0x3b /tools/H-i686-pc-cygwin/lib/gcc-lib/arm-elf/2.95.2/libgcc.a(_umoddi3.o)

.debug_line     0x00000000    0x1e62a
 *(.debug_line)
 .debug_line    0x00000000     0x1fc1 /cygdrive/C/ZOTDWP2020_SDK_0.01/ecos/ecos_install/lib/extras.o
 .debug_line    0x00001fc1      0x4d8 /cygdrive/C/ZOTDWP2020_SDK_0.01/ecos/ecos_install/lib/libtarget.a(infra_startup.o)
 .debug_line    0x00002499      0x165 /cygdrive/C/ZOTDWP2020_SDK_0.01/ecos/ecos_install/lib/libtarget.a(infra_prestart.o)
 .debug_line    0x000025fe      0x165 /cygdrive/C/ZOTDWP2020_SDK_0.01/ecos/ecos_install/lib/libtarget.a(infra_pkgstart.o)
 .debug_line    0x00002763      0x80f /cygdrive/C/ZOTDWP2020_SDK_0.01/ecos/ecos_install/lib/libtarget.a(infra_diag.o)
 .debug_line    0x00002f72      0x219 /cygdrive/C/ZOTDWP2020_SDK_0.01/ecos/ecos_install/lib/libtarget.a(infra_memcpy.o)
 .debug_line    0x0000318b      0x249 /cygdrive/C/ZOTDWP2020_SDK_0.01/ecos/ecos_install/lib/libtarget.a(infra_memset.o)
 .debug_line    0x000033d4     0x1d06 /cygdrive/C/ZOTDWP2020_SDK_0.01/ecos/ecos_install/lib/libtarget.a(kernel_kapi.o)
 .debug_line    0x000050da     0x1b3b /cygdrive/C/ZOTDWP2020_SDK_0.01/ecos/ecos_install/lib/libtarget.a(kernel_thread.o)
 .debug_line    0x00006c15      0x5ac /cygdrive/C/ZOTDWP2020_SDK_0.01/ecos/ecos_install/lib/libtarget.a(kernel_except.o)
 .debug_line    0x000071c1      0x8df /cygdrive/C/ZOTDWP2020_SDK_0.01/ecos/ecos_install/lib/libtarget.a(kernel_intr.o)
 .debug_line    0x00007aa0     0x1367 /cygdrive/C/ZOTDWP2020_SDK_0.01/ecos/ecos_install/lib/libtarget.a(kernel_memfixed.o)
 .debug_line    0x00008e07     0x169e /cygdrive/C/ZOTDWP2020_SDK_0.01/ecos/ecos_install/lib/libtarget.a(kernel_memvar.o)
 .debug_line    0x0000a4a5      0xc20 /cygdrive/C/ZOTDWP2020_SDK_0.01/ecos/ecos_install/lib/libtarget.a(kernel_mlqueue.o)
 .debug_line    0x0000b0c5      0x7a3 /cygdrive/C/ZOTDWP2020_SDK_0.01/ecos/ecos_install/lib/libtarget.a(kernel_sched.o)
 .debug_line    0x0000b868      0xaf1 /cygdrive/C/ZOTDWP2020_SDK_0.01/ecos/ecos_install/lib/libtarget.a(kernel_cnt_sem.o)
 .debug_line    0x0000c359      0xe9c /cygdrive/C/ZOTDWP2020_SDK_0.01/ecos/ecos_install/lib/libtarget.a(kernel_flag.o)
 .debug_line    0x0000d1f5     0x16b6 /cygdrive/C/ZOTDWP2020_SDK_0.01/ecos/ecos_install/lib/libtarget.a(kernel_mbox.o)
 .debug_line    0x0000e8ab      0xfeb /cygdrive/C/ZOTDWP2020_SDK_0.01/ecos/ecos_install/lib/libtarget.a(kernel_mutex.o)
 .debug_line    0x0000f896      0x11f /cygdrive/C/ZOTDWP2020_SDK_0.01/ecos/ecos_install/lib/libtarget.a(language_c_libc_isalnum.o)
 .debug_line    0x0000f9b5      0x11f /cygdrive/C/ZOTDWP2020_SDK_0.01/ecos/ecos_install/lib/libtarget.a(language_c_libc_isalpha.o)
 .debug_line    0x0000fad4      0x11f /cygdrive/C/ZOTDWP2020_SDK_0.01/ecos/ecos_install/lib/libtarget.a(language_c_libc_isdigit.o)
 .debug_line    0x0000fbf3      0x11f /cygdrive/C/ZOTDWP2020_SDK_0.01/ecos/ecos_install/lib/libtarget.a(language_c_libc_islower.o)
 .debug_line    0x0000fd12      0x11f /cygdrive/C/ZOTDWP2020_SDK_0.01/ecos/ecos_install/lib/libtarget.a(language_c_libc_isprint.o)
 .debug_line    0x0000fe31      0x11f /cygdrive/C/ZOTDWP2020_SDK_0.01/ecos/ecos_install/lib/libtarget.a(language_c_libc_isspace.o)
 .debug_line    0x0000ff50      0x11f /cygdrive/C/ZOTDWP2020_SDK_0.01/ecos/ecos_install/lib/libtarget.a(language_c_libc_isupper.o)
 .debug_line    0x0001006f      0x120 /cygdrive/C/ZOTDWP2020_SDK_0.01/ecos/ecos_install/lib/libtarget.a(language_c_libc_isxdigit.o)
 .debug_line    0x0001018f      0x11f /cygdrive/C/ZOTDWP2020_SDK_0.01/ecos/ecos_install/lib/libtarget.a(language_c_libc_toupper.o)
 .debug_line    0x000102ae      0x4a1 /cygdrive/C/ZOTDWP2020_SDK_0.01/ecos/ecos_install/lib/libtarget.a(language_c_libc_sprintf.o)
 .debug_line    0x0001074f      0x4a0 /cygdrive/C/ZOTDWP2020_SDK_0.01/ecos/ecos_install/lib/libtarget.a(language_c_libc_sscanf.o)
 .debug_line    0x00010bef      0x5f5 /cygdrive/C/ZOTDWP2020_SDK_0.01/ecos/ecos_install/lib/libtarget.a(language_c_libc_stderr.o)
 .debug_line    0x000111e4      0x5a6 /cygdrive/C/ZOTDWP2020_SDK_0.01/ecos/ecos_install/lib/libtarget.a(language_c_libc_stdioinlines.o)
 .debug_line    0x0001178a      0x4c3 /cygdrive/C/ZOTDWP2020_SDK_0.01/ecos/ecos_install/lib/libtarget.a(language_c_libc_stdiosupp.o)
 .debug_line    0x00011c4d      0x5f5 /cygdrive/C/ZOTDWP2020_SDK_0.01/ecos/ecos_install/lib/libtarget.a(language_c_libc_stdout.o)
 .debug_line    0x00012242      0x7df /cygdrive/C/ZOTDWP2020_SDK_0.01/ecos/ecos_install/lib/libtarget.a(language_c_libc_stream.o)
 .debug_line    0x00012a21      0x4d7 /cygdrive/C/ZOTDWP2020_SDK_0.01/ecos/ecos_install/lib/libtarget.a(language_c_libc_ungetc.o)
 .debug_line    0x00012ef8      0x543 /cygdrive/C/ZOTDWP2020_SDK_0.01/ecos/ecos_install/lib/libtarget.a(language_c_libc_vsnprintf.o)
 .debug_line    0x0001343b      0x5a9 /cygdrive/C/ZOTDWP2020_SDK_0.01/ecos/ecos_install/lib/libtarget.a(language_c_libc_vsscanf.o)
 .debug_line    0x000139e4      0x40d /cygdrive/C/ZOTDWP2020_SDK_0.01/ecos/ecos_install/lib/libtarget.a(language_c_libc_fgetc.o)
 .debug_line    0x00013df1      0x4a1 /cygdrive/C/ZOTDWP2020_SDK_0.01/ecos/ecos_install/lib/libtarget.a(language_c_libc_fprintf.o)
 .debug_line    0x00014292      0x415 /cygdrive/C/ZOTDWP2020_SDK_0.01/ecos/ecos_install/lib/libtarget.a(language_c_libc_fputc.o)
 .debug_line    0x000146a7      0x509 /cygdrive/C/ZOTDWP2020_SDK_0.01/ecos/ecos_install/lib/libtarget.a(language_c_libc_fputs.o)
 .debug_line    0x00014bb0      0x4a0 /cygdrive/C/ZOTDWP2020_SDK_0.01/ecos/ecos_install/lib/libtarget.a(language_c_libc_printf.o)
 .debug_line    0x00015050      0xba2 /cygdrive/C/ZOTDWP2020_SDK_0.01/ecos/ecos_install/lib/libtarget.a(language_c_libc_vfnprintf.o)
 .debug_line    0x00015bf2      0x1b4 /cygdrive/C/ZOTDWP2020_SDK_0.01/ecos/ecos_install/lib/libtarget.a(language_c_libc_atoi.o)
 .debug_line    0x00015da6      0x1b4 /cygdrive/C/ZOTDWP2020_SDK_0.01/ecos/ecos_install/lib/libtarget.a(language_c_libc_atol.o)
 .debug_line    0x00015f5a      0x6fe /cygdrive/C/ZOTDWP2020_SDK_0.01/ecos/ecos_install/lib/libtarget.a(language_c_libc_malloc.o)
 .debug_line    0x00016658      0x230 /cygdrive/C/ZOTDWP2020_SDK_0.01/ecos/ecos_install/lib/libtarget.a(language_c_libc_rand.o)
 .debug_line    0x00016888      0x37c /cygdrive/C/ZOTDWP2020_SDK_0.01/ecos/ecos_install/lib/libtarget.a(language_c_libc_strtol.o)
 .debug_line    0x00016c04      0x317 /cygdrive/C/ZOTDWP2020_SDK_0.01/ecos/ecos_install/lib/libtarget.a(language_c_libc_memchr.o)
 .debug_line    0x00016f1b      0x2d5 /cygdrive/C/ZOTDWP2020_SDK_0.01/ecos/ecos_install/lib/libtarget.a(language_c_libc_memcmp.o)
 .debug_line    0x000171f0      0x23e /cygdrive/C/ZOTDWP2020_SDK_0.01/ecos/ecos_install/lib/libtarget.a(language_c_libc_memmove.o)
 .debug_line    0x0001742e      0x297 /cygdrive/C/ZOTDWP2020_SDK_0.01/ecos/ecos_install/lib/libtarget.a(language_c_libc_strcat.o)
 .debug_line    0x000176c5      0x2df /cygdrive/C/ZOTDWP2020_SDK_0.01/ecos/ecos_install/lib/libtarget.a(language_c_libc_strchr.o)
 .debug_line    0x000179a4      0x2b7 /cygdrive/C/ZOTDWP2020_SDK_0.01/ecos/ecos_install/lib/libtarget.a(language_c_libc_strcmp.o)
 .debug_line    0x00017c5b      0x2b7 /cygdrive/C/ZOTDWP2020_SDK_0.01/ecos/ecos_install/lib/libtarget.a(language_c_libc_strcpy.o)
 .debug_line    0x00017f12      0x297 /cygdrive/C/ZOTDWP2020_SDK_0.01/ecos/ecos_install/lib/libtarget.a(language_c_libc_strlen.o)
 .debug_line    0x000181a9      0x2a8 /cygdrive/C/ZOTDWP2020_SDK_0.01/ecos/ecos_install/lib/libtarget.a(language_c_libc_strncat.o)
 .debug_line    0x00018451      0x2f8 /cygdrive/C/ZOTDWP2020_SDK_0.01/ecos/ecos_install/lib/libtarget.a(language_c_libc_strncmp.o)
 .debug_line    0x00018749      0x2c8 /cygdrive/C/ZOTDWP2020_SDK_0.01/ecos/ecos_install/lib/libtarget.a(language_c_libc_strncpy.o)
 .debug_line    0x00018a11      0x246 /cygdrive/C/ZOTDWP2020_SDK_0.01/ecos/ecos_install/lib/libtarget.a(language_c_libc_strpbrk.o)
 .debug_line    0x00018c57      0x246 /cygdrive/C/ZOTDWP2020_SDK_0.01/ecos/ecos_install/lib/libtarget.a(language_c_libc_strrchr.o)
 .debug_line    0x00018e9d      0x255 /cygdrive/C/ZOTDWP2020_SDK_0.01/ecos/ecos_install/lib/libtarget.a(language_c_libc_strspn.o)
 .debug_line    0x000190f2      0x24d /cygdrive/C/ZOTDWP2020_SDK_0.01/ecos/ecos_install/lib/libtarget.a(language_c_libc_strstr.o)
 .debug_line    0x0001933f      0x2d9 /cygdrive/C/ZOTDWP2020_SDK_0.01/ecos/ecos_install/lib/libtarget.a(language_c_libc_strtok.o)
 .debug_line    0x00019618      0x1ad /cygdrive/C/ZOTDWP2020_SDK_0.01/ecos/ecos_install/lib/libtarget.a(language_c_libc_ctime.o)
 .debug_line    0x000197c5      0x1fa /cygdrive/C/ZOTDWP2020_SDK_0.01/ecos/ecos_install/lib/libtarget.a(language_c_libc_localtime.o)
 .debug_line    0x000199bf      0x23b /cygdrive/C/ZOTDWP2020_SDK_0.01/ecos/ecos_install/lib/libtarget.a(language_c_libc_localtime_r.o)
 .debug_line    0x00019bfa      0x254 /cygdrive/C/ZOTDWP2020_SDK_0.01/ecos/ecos_install/lib/libtarget.a(language_c_libc_time.o)
 .debug_line    0x00019e4e      0x55e /cygdrive/C/ZOTDWP2020_SDK_0.01/ecos/ecos_install/lib/libtarget.a(language_c_libc_timeutil.o)
 .debug_line    0x0001a3ac      0x6c9 /cygdrive/C/ZOTDWP2020_SDK_0.01/ecos/ecos_install/lib/libtarget.a(devs_wallclock_emulate.o)
 .debug_line    0x0001aa75      0x2e8 /cygdrive/C/ZOTDWP2020_SDK_0.01/ecos/ecos_install/lib/libtarget.a(error_strerror.o)
 .debug_line    0x0001ad5d      0x2fc /cygdrive/C/ZOTDWP2020_SDK_0.01/ecos/ecos_install/lib/libtarget.a(hal_arm_arch_hal_misc.o)
 .debug_line    0x0001b059      0x877 /cygdrive/C/ZOTDWP2020_SDK_0.01/ecos/ecos_install/lib/libtarget.a(hal_arm_zot716u2_zot716u2_misc.o)
 .debug_line    0x0001b8d0      0x2b0 /cygdrive/C/ZOTDWP2020_SDK_0.01/ecos/ecos_install/lib/libtarget.a(hal_arm_zot716u2_hal_diag.o)
 .debug_line    0x0001bb80      0x138 /cygdrive/C/ZOTDWP2020_SDK_0.01/ecos/ecos_install/lib/libtarget.a(infra_delete.o)
 .debug_line    0x0001bcb8      0xef0 /cygdrive/C/ZOTDWP2020_SDK_0.01/ecos/ecos_install/lib/libtarget.a(kernel_clock.o)
 .debug_line    0x0001cba8      0x4a1 /cygdrive/C/ZOTDWP2020_SDK_0.01/ecos/ecos_install/lib/libtarget.a(language_c_libc_setvbuf.o)
 .debug_line    0x0001d049      0x5ec /cygdrive/C/ZOTDWP2020_SDK_0.01/ecos/ecos_install/lib/libtarget.a(language_c_libc_stdin.o)
 .debug_line    0x0001d635      0x20d /cygdrive/C/ZOTDWP2020_SDK_0.01/ecos/ecos_install/lib/libtarget.a(language_c_libc_div.o)
 .debug_line    0x0001d842      0x1f8 /cygdrive/C/ZOTDWP2020_SDK_0.01/ecos/ecos_install/lib/libtarget.a(language_c_libc_asctime.o)
 .debug_line    0x0001da3a      0x3fe /cygdrive/C/ZOTDWP2020_SDK_0.01/ecos/ecos_install/lib/libtarget.a(language_c_libc_asctime_r.o)
 .debug_line    0x0001de38      0x4d5 /cygdrive/C/ZOTDWP2020_SDK_0.01/ecos/ecos_install/lib/libtarget.a(language_c_libc_gmtime_r.o)
 .debug_line    0x0001e30d      0x31d /cygdrive/C/ZOTDWP2020_SDK_0.01/ecos/ecos_install/lib/libtarget.a(language_c_libc_itoa.o)

.debug_frame
 *(.debug_frame)

.debug_str
 *(.debug_str)

.debug_loc
 *(.debug_loc)

.debug_macinfo
 *(.debug_macinfo)
                0x00000000                __reserved=0x0
                0x00008000                .=(__reserved+0x8000)

.rom_vectors    0x00008000       0x60
                0x00008000                .=.
 *(.vectors)
 .vectors       0x00008000       0x60 /cygdrive/C/ZOTDWP2020_SDK_0.01/ecos/ecos_install/lib/vectors.o
                0x00008000                __exception_handlers
                0x00008020                vectors

.text           0x00008060    0xe5588
                0x00008060                stext=L(.)
                0x00008060                PROVIDE (__stext, L(.))
 *(.text*)
 .text          0x00008060      0x660 /cygdrive/C/ZOTDWP2020_SDK_0.01/ecos/ecos_install/lib/vectors.o
                0x00008580                hal_interrupt_stack_call_pending_DSRs
                0x000085e0                __gccmain
                0x00008288                reset_platform
                0x00008060                reset_vector
                0x000085ec                _sp
                0x000085e4                _psr
                0x000081b0                start
 .text.USB_init
                0x000086c0       0x6c /cygdrive/C/ZOTDWP2020_SDK_0.01/prod/zotdwp2020/build/obj/zotmain.o
                0x000086c0                USB_init
 .text.cyg_user_start
                0x0000872c      0x104 /cygdrive/C/ZOTDWP2020_SDK_0.01/prod/zotdwp2020/build/obj/zotmain.o
                0x0000872c                cyg_user_start
 .text.perror   0x00008830       0x10 /cygdrive/C/ZOTDWP2020_SDK_0.01/prod/zotdwp2020/build/obj/zotmain.o
                0x00008830                perror
 .text.star_nic_phy_config
                0x00008840      0x170 ./lib/mac.a(star_nic.o)
 .text.star_nic_phy_powerdown
                0x000089b0      0x12c ./lib/mac.a(star_nic.o)
 .text.star_nic_install_isr
                0x00008adc      0x12c ./lib/mac.a(star_nic.o)
 .text.star_nic_buffer_alloc
                0x00008c08      0x27c ./lib/mac.a(star_nic.o)
 .text.star_nic_receive_packet
                0x00008e84      0x170 ./lib/mac.a(star_nic.o)
                0x00008e84                star_nic_receive_packet
 .text.send_frame
                0x00008ff4      0x1b4 ./lib/mac.a(star_nic.o)
                0x00008ff4                send_frame
 .text.star_nic_init
                0x000091a8      0x368 ./lib/mac.a(star_nic.o)
 .text.rxrc_isr
                0x00009510       0x24 ./lib/mac.a(star_nic.o)
                0x00009510                rxrc_isr
 .text.rxqf_isr
                0x00009534       0x24 ./lib/mac.a(star_nic.o)
                0x00009534                rxqf_isr
 .text.status_isr
                0x00009558       0x24 ./lib/mac.a(star_nic.o)
                0x00009558                status_isr
 .text.star_nic_receive_isr
                0x0000957c       0x50 ./lib/mac.a(star_nic.o)
                0x0000957c                star_nic_receive_isr
 .text.star_nic_rxqf_isr
                0x000095cc       0x50 ./lib/mac.a(star_nic.o)
                0x000095cc                star_nic_rxqf_isr
 .text.star_nic_status_isr
                0x0000961c       0x5c ./lib/mac.a(star_nic.o)
                0x0000961c                star_nic_status_isr
 .text.star_nic_lan_init
                0x00009678       0x88 ./lib/mac.a(star_nic.o)
                0x00009678                star_nic_lan_init
 .text.usb_calc_bus_time
                0x00009700      0x230 ./lib/usb_host.a(usb.o)
 .text.usb_register_bus
                0x00009930       0xf0 ./lib/usb_host.a(usb.o)
                0x00009930                usb_register_bus
 .text.usb_match_id
                0x00009a20      0x164 ./lib/usb_host.a(usb.o)
                0x00009a20                usb_match_id
 .text.usb_find_interface_driver
                0x00009b84      0x1e0 ./lib/usb_host.a(usb.o)
 .text.usb_start_wait_urb
                0x00009d64      0x1a0 ./lib/usb_host.a(usb.o)
 .text.usb_control_msg
                0x00009f04      0x138 ./lib/usb_host.a(usb.o)
                0x00009f04                usb_control_msg
 .text.usb_parse_endpoint
                0x0000a03c      0x1a0 ./lib/usb_host.a(usb.o)
 .text.usb_parse_interface
                0x0000a1dc      0x320 ./lib/usb_host.a(usb.o)
 .text.usb_parse_configuration
                0x0000a4fc      0x240 ./lib/usb_host.a(usb.o)
                0x0000a4fc                usb_parse_configuration
 .text.usb_destroy_configuration
                0x0000a73c      0x22c ./lib/usb_host.a(usb.o)
                0x0000a73c                usb_destroy_configuration
 .text.usb_disconnect
                0x0000a968      0x18c ./lib/usb_host.a(usb.o)
                0x0000a968                usb_disconnect
 .text.usb_connect
                0x0000aaf4      0x15c ./lib/usb_host.a(usb.o)
                0x0000aaf4                usb_connect
 .text.usb_set_maxpacket
                0x0000ac50      0x140 ./lib/usb_host.a(usb.o)
                0x0000ac50                usb_set_maxpacket
 .text.usb_set_interface
                0x0000ad90      0x11c ./lib/usb_host.a(usb.o)
                0x0000ad90                usb_set_interface
 .text.usb_get_configuration
                0x0000aeac      0x2c8 ./lib/usb_host.a(usb.o)
                0x0000aeac                usb_get_configuration
 .text.usb_new_device
                0x0000b174      0x360 ./lib/usb_host.a(usb.o)
                0x0000b174                usb_new_device
 .text.usb_alloc_urb
                0x0000b4d4       0x4c ./lib/usb_host.a(usb.o)
                0x0000b4d4                usb_alloc_urb
 .text.usb_free_urb
                0x0000b520       0x1c ./lib/usb_host.a(usb.o)
                0x0000b520                usb_free_urb
 .text.usb_submit_urb
                0x0000b53c       0x4c ./lib/usb_host.a(usb.o)
                0x0000b53c                usb_submit_urb
 .text.usb_unlink_urb
                0x0000b588       0x4c ./lib/usb_host.a(usb.o)
                0x0000b588                usb_unlink_urb
 .text.usb_register
                0x0000b5d4       0x80 ./lib/usb_host.a(usb.o)
                0x0000b5d4                usb_register
 .text.usb_scan_devices
                0x0000b654       0x40 ./lib/usb_host.a(usb.o)
                0x0000b654                usb_scan_devices
 .text.usb_alloc_bus
                0x0000b694       0x9c ./lib/usb_host.a(usb.o)
                0x0000b694                usb_alloc_bus
 .text.usb_free_bus
                0x0000b730       0x30 ./lib/usb_host.a(usb.o)
                0x0000b730                usb_free_bus
 .text.usb_deregister_bus
                0x0000b760       0x70 ./lib/usb_host.a(usb.o)
                0x0000b760                usb_deregister_bus
 .text.usb_alloc_dev
                0x0000b7d0       0xa8 ./lib/usb_host.a(usb.o)
                0x0000b7d0                usb_alloc_dev
 .text.usb_free_dev
                0x0000b878       0x64 ./lib/usb_host.a(usb.o)
                0x0000b878                usb_free_dev
 .text.usb_inc_dev_use
                0x0000b8dc       0x1c ./lib/usb_host.a(usb.o)
                0x0000b8dc                usb_inc_dev_use
 .text.usb_check_bandwidth
                0x0000b8f8       0x98 ./lib/usb_host.a(usb.o)
                0x0000b8f8                usb_check_bandwidth
 .text.usb_claim_bandwidth
                0x0000b990       0x58 ./lib/usb_host.a(usb.o)
                0x0000b990                usb_claim_bandwidth
 .text.usb_release_bandwidth
                0x0000b9e8       0x60 ./lib/usb_host.a(usb.o)
                0x0000b9e8                usb_release_bandwidth
 .text.usb_root_hub_string
                0x0000ba48       0xec ./lib/usb_host.a(usb.o)
                0x0000ba48                usb_root_hub_string
 .text.usb_set_address
                0x0000bb34       0x54 ./lib/usb_host.a(usb.o)
                0x0000bb34                usb_set_address
 .text.usb_get_descriptor
                0x0000bb88       0xbc ./lib/usb_host.a(usb.o)
                0x0000bb88                usb_get_descriptor
 .text.usb_get_device_descriptor
                0x0000bc44       0xa8 ./lib/usb_host.a(usb.o)
                0x0000bc44                usb_get_device_descriptor
 .text.usb_set_configuration
                0x0000bcec       0xf8 ./lib/usb_host.a(usb.o)
                0x0000bcec                usb_set_configuration
 .text.usb_check_support
                0x0000bde4       0x84 ./lib/usb_host.a(usb.o)
 .text.wait_ms  0x0000be68       0x20 ./lib/usb_host.a(usb.o)
                0x0000be68                wait_ms
 .text.clear_bit
                0x0000be88       0x34 ./lib/usb_host.a(usb.o)
                0x0000be88                clear_bit
 .text.usb_api_blocking_completion
                0x0000bebc       0x18 ./lib/usb_host.a(usb.o)
 .text.usb_init
                0x0000bed4       0x18 ./lib/usb_host.a(usb.o)
                0x0000bed4                usb_init
 .text.usb_hub_configure
                0x0000beec      0x370 ./lib/usb_host.a(hub.o)
 .text.hub_probe
                0x0000c25c      0x1bc ./lib/usb_host.a(hub.o)
 .text.usb_hub_reset
                0x0000c418      0x140 ./lib/usb_host.a(hub.o)
 .text.usb_hub_port_wait_reset
                0x0000c558      0x144 ./lib/usb_host.a(hub.o)
 .text.usb_hub_port_debounce
                0x0000c69c      0x150 ./lib/usb_host.a(hub.o)
 .text.usb_hub_port_connect_change
                0x0000c7ec      0x4c0 ./lib/usb_host.a(hub.o)
 .text.usb_hub_events
                0x0000ccac      0x628 ./lib/usb_host.a(hub.o)
 .text.usb_reset_device
                0x0000d2d4      0x3f4 ./lib/usb_host.a(hub.o)
                0x0000d2d4                usb_reset_device
 .text.hub_irq  0x0000d6c8       0xbc ./lib/usb_host.a(hub.o)
 .text.usb_hub_thread
                0x0000d784       0x24 ./lib/usb_host.a(hub.o)
                0x0000d784                usb_hub_thread
 .text.usb_hub_init
                0x0000d7a8       0xe0 ./lib/usb_host.a(hub.o)
                0x0000d7a8                usb_hub_init
 .text.usb_hub_link_devices
                0x0000d888       0x28 ./lib/usb_host.a(hub.o)
                0x0000d888                usb_hub_link_devices
 .text.hub_disconnect
                0x0000d8b0       0xd8 ./lib/usb_host.a(hub.o)
 .text.hub_ioctl
                0x0000d988       0x14 ./lib/usb_host.a(hub.o)
 .text.usblp_check_status
                0x0000d99c       0xc0 ./lib/usb_host.a(printer.o)
 .text.usblp_open
                0x0000da5c      0x338 ./lib/usb_host.a(printer.o)
                0x0000da5c                usblp_open
 .text.usblp_release
                0x0000dd94      0x254 ./lib/usb_host.a(printer.o)
 .text.usblp_write
                0x0000dfe8      0x174 ./lib/usb_host.a(printer.o)
 .text.usblp_read
                0x0000e15c      0x128 ./lib/usb_host.a(printer.o)
 .text.usblp_probe
                0x0000e284      0x320 ./lib/usb_host.a(printer.o)
 .text.usblp_select_alts
                0x0000e5a4      0x250 ./lib/usb_host.a(printer.o)
 .text.usblp_set_protocol
                0x0000e7f4      0x174 ./lib/usb_host.a(printer.o)
 .text.usblp_cache_device_id_string
                0x0000e968       0xf4 ./lib/usb_host.a(printer.o)
 .text.usbprn_attach
                0x0000ea5c      0x134 ./lib/usb_host.a(printer.o)
                0x0000ea5c                usbprn_attach
 .text.usbprn_unattach
                0x0000eb90       0x90 ./lib/usb_host.a(printer.o)
                0x0000eb90                usbprn_unattach
 .text.usblp_bulk_read
                0x0000ec20       0x50 ./lib/usb_host.a(printer.o)
 .text.usblp_bulk_write
                0x0000ec70       0x50 ./lib/usb_host.a(printer.o)
 .text.usblp_init
                0x0000ecc0       0x58 ./lib/usb_host.a(printer.o)
                0x0000ecc0                usblp_init
 .text.usbprn_read_status
                0x0000ed18       0x4c ./lib/usb_host.a(printer.o)
                0x0000ed18                usbprn_read_status
 .text.usbprn_open
                0x0000ed64       0x4c ./lib/usb_host.a(printer.o)
                0x0000ed64                usbprn_open
 .text.usbprn_close
                0x0000edb0       0x50 ./lib/usb_host.a(printer.o)
                0x0000edb0                usbprn_close
 .text.usbprn_write
                0x0000ee00       0x58 ./lib/usb_host.a(printer.o)
                0x0000ee00                usbprn_write
 .text.usblp_disconnect
                0x0000ee58       0xcc ./lib/usb_host.a(printer.o)
 .text.ehci_start
                0x0000ef24      0x21c ./lib/usb_host.a(ehcihcd.o)
 .text.ehci_urb_dequeue
                0x0000f140      0x158 ./lib/usb_host.a(ehcihcd.o)
 .text.ehci_free_config
                0x0000f298      0x138 ./lib/usb_host.a(ehcihcd.o)
 .text.inw2     0x0000f3d0       0x14 ./lib/usb_host.a(ehcihcd.o)
                0x0000f3d0                inw2
 .text.inl2     0x0000f3e4       0x14 ./lib/usb_host.a(ehcihcd.o)
                0x0000f3e4                inl2
 .text.outl2    0x0000f3f8       0x14 ./lib/usb_host.a(ehcihcd.o)
                0x0000f3f8                outl2
 .text.ehci_ready
                0x0000f40c       0x54 ./lib/usb_host.a(ehcihcd.o)
                0x0000f40c                ehci_ready
 .text.ehci_tasklet
                0x0000f460       0x88 ./lib/usb_host.a(ehcihcd.o)
                0x0000f460                ehci_tasklet
 .text.ehci_stop
                0x0000f4e8       0xb8 ./lib/usb_host.a(ehcihcd.o)
 .text.ehci_get_frame
                0x0000f5a0       0x28 ./lib/usb_host.a(ehcihcd.o)
                0x0000f5a0                ehci_get_frame
 .text.ehci_irq
                0x0000f5c8       0x98 ./lib/usb_host.a(ehcihcd.o)
 .text.ehci_urb_enqueue
                0x0000f660       0xf8 ./lib/usb_host.a(ehcihcd.o)
 .text.ehci_hcd_init
                0x0000f758       0xd4 ./lib/usb_host.a(ehcihcd.o)
                0x0000f758                ehci_hcd_init
 .text.ehci_hub_status_data
                0x0000f82c      0x114 ./lib/usb_host.a(ehcihub.o)
                0x0000f82c                ehci_hub_status_data
 .text.ehci_hub_descriptor
                0x0000f940       0xa0 ./lib/usb_host.a(ehcihub.o)
 .text.ehci_hub_control
                0x0000f9e0      0x478 ./lib/usb_host.a(ehcihub.o)
                0x0000f9e0                ehci_hub_control
 .text.ehci_mem_init
                0x0000fe58      0x114 ./lib/usb_host.a(ehcimem.o)
                0x0000fe58                ehci_mem_init
 .text.ehci_kfree
                0x0000ff6c       0x14 ./lib/usb_host.a(ehcimem.o)
                0x0000ff6c                ehci_kfree
 .text.ehci_hcd_alloc
                0x0000ff80       0x3c ./lib/usb_host.a(ehcimem.o)
                0x0000ff80                ehci_hcd_alloc
 .text.ehci_hcd_free
                0x0000ffbc       0x18 ./lib/usb_host.a(ehcimem.o)
                0x0000ffbc                ehci_hcd_free
 .text.ehci_qtd_alloc
                0x0000ffd4       0x74 ./lib/usb_host.a(ehcimem.o)
                0x0000ffd4                ehci_qtd_alloc
 .text.ehci_qtd_free
                0x00010048       0x18 ./lib/usb_host.a(ehcimem.o)
                0x00010048                ehci_qtd_free
 .text.ehci_qh_alloc
                0x00010060       0x70 ./lib/usb_host.a(ehcimem.o)
                0x00010060                ehci_qh_alloc
 .text.qh_get   0x000100d0       0x1c ./lib/usb_host.a(ehcimem.o)
                0x000100d0                qh_get
 .text.qh_put   0x000100ec       0x2c ./lib/usb_host.a(ehcimem.o)
                0x000100ec                qh_put
 .text.ehci_mem_cleanup
                0x00010118       0x40 ./lib/usb_host.a(ehcimem.o)
                0x00010118                ehci_mem_cleanup
 .text.qh_completions
                0x00010158      0x580 ./lib/usb_host.a(ehciq.o)
                0x00010158                qh_completions
 .text.qh_urb_transaction
                0x000106d8      0x448 ./lib/usb_host.a(ehciq.o)
                0x000106d8                qh_urb_transaction
 .text.ehci_qh_make
                0x00010b20      0x1d4 ./lib/usb_host.a(ehciq.o)
                0x00010b20                ehci_qh_make
 .text.submit_async
                0x00010cf4      0x34c ./lib/usb_host.a(ehciq.o)
                0x00010cf4                submit_async
 .text.end_unlink_async
                0x00011040      0x124 ./lib/usb_host.a(ehciq.o)
                0x00011040                end_unlink_async
 .text.start_unlink_async
                0x00011164      0x16c ./lib/usb_host.a(ehciq.o)
                0x00011164                start_unlink_async
 .text.qh_update
                0x000112d0       0x34 ./lib/usb_host.a(ehciq.o)
                0x000112d0                qh_update
 .text.qtd_list_free
                0x00011304       0x84 ./lib/usb_host.a(ehciq.o)
                0x00011304                qtd_list_free
 .text.scan_async
                0x00011388       0xe0 ./lib/usb_host.a(ehciq.o)
                0x00011388                scan_async
 .text.periodic_unlink
                0x00011468      0x104 ./lib/usb_host.a(ehcische.o)
 .text.intr_submit
                0x0001156c      0x544 ./lib/usb_host.a(ehcische.o)
                0x0001156c                intr_submit
 .text.intr_complete
                0x00011ab0      0x250 ./lib/usb_host.a(ehcische.o)
 .text.itd_fill
                0x00011d00      0x18c ./lib/usb_host.a(ehcische.o)
 .text.itd_urb_transaction
                0x00011e8c      0x138 ./lib/usb_host.a(ehcische.o)
 .text.get_iso_range
                0x00011fc4      0x1b4 ./lib/usb_host.a(ehcische.o)
 .text.itd_schedule
                0x00012178      0x340 ./lib/usb_host.a(ehcische.o)
 .text.itd_complete
                0x000124b8      0x1c0 ./lib/usb_host.a(ehcische.o)
 .text.scan_periodic
                0x00012678      0x26c ./lib/usb_host.a(ehcische.o)
                0x00012678                scan_periodic
 .text.intr_deschedule
                0x000128e4      0x104 ./lib/usb_host.a(ehcische.o)
                0x000128e4                intr_deschedule
 .text.itd_submit
                0x000129e8       0xc4 ./lib/usb_host.a(ehcische.o)
                0x000129e8                itd_submit
 .text.rh_call_control
                0x00012aac      0x368 ./lib/usb_host.a(u2hcd.o)
 .text.rh_report_status
                0x00012e14      0x1a4 ./lib/usb_host.a(u2hcd.o)
                0x00012e14                rh_report_status
 .text.rh_urb_enqueue
                0x00012fb8       0xfc ./lib/usb_host.a(u2hcd.o)
 .text.usb_hcd_pci_probe
                0x000130b4      0x1a0 ./lib/usb_host.a(u2hcd.o)
                0x000130b4                usb_hcd_pci_probe
 .text.hcd_alloc_dev
                0x00013254       0xf4 ./lib/usb_host.a(u2hcd.o)
 .text.hcd_submit_urb
                0x00013348      0x3b8 ./lib/usb_host.a(u2hcd.o)
 .text.hcd_unlink_urb
                0x00013700      0x214 ./lib/usb_host.a(u2hcd.o)
 .text.hcd_irq  0x00013914      0x130 ./lib/usb_host.a(u2hcd.o)
                0x00013914                hcd_irq
 .text.usb_hcd_giveback_urb
                0x00013a44       0x98 ./lib/usb_host.a(u2hcd.o)
                0x00013a44                usb_hcd_giveback_urb
 .text.usb_hcd_pci_remove
                0x00013adc       0xac ./lib/usb_host.a(u2hcd.o)
                0x00013adc                usb_hcd_pci_remove
 .text.ehci_isr
                0x00013b88       0x24 ./lib/usb_host.a(u2hcd.o)
                0x00013b88                ehci_isr
 .text.ehci_dsr
                0x00013bac       0x30 ./lib/usb_host.a(u2hcd.o)
                0x00013bac                ehci_dsr
 .text.hcd_get_frame_number
                0x00013bdc       0x24 ./lib/usb_host.a(u2hcd.o)
 .text.unlink_complete
                0x00013c00       0x2c ./lib/usb_host.a(u2hcd.o)
 .text.hcd_free_dev
                0x00013c2c       0xbc ./lib/usb_host.a(u2hcd.o)
 .text.urb_rm_priv_locked
                0x00013ce8       0xd0 ./lib/usb_host.a(ohci.o)
 .text.sohci_return_urb
                0x00013db8      0x1ec ./lib/usb_host.a(ohci.o)
 .text.sohci_submit_urb
                0x00013fa4      0x518 ./lib/usb_host.a(ohci.o)
 .text.sohci_unlink_urb
                0x000144bc      0x1b0 ./lib/usb_host.a(ohci.o)
 .text.sohci_free_dev
                0x0001466c      0x104 ./lib/usb_host.a(ohci.o)
 .text.ep_link  0x00014770      0x3bc ./lib/usb_host.a(ohci.o)
 .text.ep_unlink
                0x00014b2c      0x234 ./lib/usb_host.a(ohci.o)
 .text.ep_add_ed
                0x00014d60      0x204 ./lib/usb_host.a(ohci.o)
 .text.td_submit_urb
                0x00014f64      0x8f0 ./lib/usb_host.a(ohci.o)
 .text.dl_transfer_length
                0x00015854      0x11c ./lib/usb_host.a(ohci.o)
 .text.dl_reverse_done_list
                0x00015970      0x100 ./lib/usb_host.a(ohci.o)
 .text.dl_del_list
                0x00015a70      0x2fc ./lib/usb_host.a(ohci.o)
 .text.dl_done_list
                0x00015d6c      0x1dc ./lib/usb_host.a(ohci.o)
 .text.rh_send_irq
                0x00015f48      0x17c ./lib/usb_host.a(ohci.o)
 .text.rh_submit_urb
                0x000160c4      0x830 ./lib/usb_host.a(ohci.o)
 .text.hc_start
                0x000168f4      0x1ec ./lib/usb_host.a(ohci.o)
 .text.hc_interrupt
                0x00016ae0      0x1c0 ./lib/usb_host.a(ohci.o)
                0x00016ae0                hc_interrupt
 .text.hc_alloc_ohci
                0x00016ca0      0x108 ./lib/usb_host.a(ohci.o)
 .text.hc_release_ohci
                0x00016da8      0x15c ./lib/usb_host.a(ohci.o)
 .text.hc_found_ohci
                0x00016f04      0x1cc ./lib/usb_host.a(ohci.o)
 .text.ep_rm_ed
                0x000170d0       0xcc ./lib/usb_host.a(ohci.o)
 .text.rh_unlink_urb
                0x0001719c       0x84 ./lib/usb_host.a(ohci.o)
 .text.ohci_isr
                0x00017220       0x24 ./lib/usb_host.a(ohci.o)
                0x00017220                ohci_isr
 .text.sohci_alloc_dev
                0x00017244       0x8c ./lib/usb_host.a(ohci.o)
 .text.sohci_get_current_frame_number
                0x000172d0       0x20 ./lib/usb_host.a(ohci.o)
 .text.rh_int_timer_do
                0x000172f0       0xb4 ./lib/usb_host.a(ohci.o)
                0x000172f0                rh_int_timer_do
 .text.ohci_dsr
                0x000173a4       0x30 ./lib/usb_host.a(ohci.o)
                0x000173a4                ohci_dsr
 .text.ohci_hcd_init
                0x000173d4       0x38 ./lib/usb_host.a(ohci.o)
                0x000173d4                ohci_hcd_init
 .text.rh_init_int_timer
                0x0001740c       0xd0 ./lib/usb_host.a(ohci.o)
 .text.usbnet_get_endpoints
                0x000174dc      0x1bc ./lib/usb_host.a(usbnet.o)
                0x000174dc                usbnet_get_endpoints
 .text.ax8817x_write_cmd_async
                0x00017698       0xf0 ./lib/usb_host.a(usbnet.o)
 .text.ax8817x_mdio_read
                0x00017788      0x114 ./lib/usb_host.a(usbnet.o)
 .text.ax8817x_mdio_write
                0x0001789c      0x110 ./lib/usb_host.a(usbnet.o)
 .text.ax8817x_bind
                0x000179ac      0x650 ./lib/usb_host.a(usbnet.o)
                0x000179ac                ax8817x_bind
 .text.ax88772a_bind
                0x00017ffc      0x628 ./lib/usb_host.a(usbnet.o)
 .text.ax88772_bind
                0x00018624      0x94c ./lib/usb_host.a(usbnet.o)
 .text.mediacheck
                0x00018f70      0x310 ./lib/usb_host.a(usbnet.o)
 .text.ax88178_bind
                0x00019280     0x3140 ./lib/usb_host.a(usbnet.o)
 .text.rx_complete
                0x0001c3c0      0x14c ./lib/usb_host.a(usbnet.o)
 .text.usbnet_start_xmit
                0x0001c50c      0x15c ./lib/usb_host.a(usbnet.o)
                0x0001c50c                usbnet_start_xmit
 .text.usbnet_probe
                0x0001c668      0x2ec ./lib/usb_host.a(usbnet.o)
 .text.usb_enqueue
                0x0001c954       0xcc ./lib/usb_host.a(usbnet.o)
 .text.usbnet_thread
                0x0001ca20      0x27c ./lib/usb_host.a(usbnet.o)
                0x0001ca20                usbnet_thread
 .text.UlanRecv
                0x0001cc9c      0x14c ./lib/usb_host.a(usbnet.o)
                0x0001cc9c                UlanRecv
 .text.USB_attach
                0x0001cde8       0x98 ./lib/usb_host.a(usbnet.o)
                0x0001cde8                USB_attach
 .text.usbnet_bh
                0x0001ce80       0x60 ./lib/usb_host.a(usbnet.o)
 .text.ax8817x_async_cmd_callback
                0x0001cee0       0x24 ./lib/usb_host.a(usbnet.o)
 .text.ax88772_rx_fixup
                0x0001cf04       0x94 ./lib/usb_host.a(usbnet.o)
 .text.ax88772_tx_fixup
                0x0001cf98       0x64 ./lib/usb_host.a(usbnet.o)
 .text.tx_complete
                0x0001cffc       0x1c ./lib/usb_host.a(usbnet.o)
 .text.usbnet_init
                0x0001d018       0xc4 ./lib/usb_host.a(usbnet.o)
                0x0001d018                usbnet_init
 .text.usbnet_disconnect
                0x0001d0dc       0x94 ./lib/usb_host.a(usbnet.o)
 .text.ps_init  0x0001d170      0x678 ./lib/psglobal.a(psmain.o)
                0x0001d170                ps_init
 .text.sti      0x0001d7e8       0x14 ./lib/psglobal.a(psmain.o)
                0x0001d7e8                sti
 .text.cli      0x0001d7fc       0x14 ./lib/psglobal.a(psmain.o)
                0x0001d7fc                cli
 .text.restore  0x0001d810       0x24 ./lib/psglobal.a(psmain.o)
                0x0001d810                restore
 .text.dirps    0x0001d834       0x20 ./lib/psglobal.a(psmain.o)
                0x0001d834                dirps
 .text.rdclock  0x0001d854       0x14 ./lib/psglobal.a(psmain.o)
                0x0001d854                rdclock
 .text.msclock  0x0001d868       0x1c ./lib/psglobal.a(psmain.o)
                0x0001d868                msclock
 .text.urandom  0x0001d884       0x20 ./lib/psglobal.a(psmain.o)
                0x0001d884                urandom
 .text.NGET16   0x0001d8a4       0x1c ./lib/psglobal.a(psmain.o)
                0x0001d8a4                NGET16
 .text.NSET16   0x0001d8c0       0x24 ./lib/psglobal.a(psmain.o)
                0x0001d8c0                NSET16
 .text.NGET32   0x0001d8e4       0x2c ./lib/psglobal.a(psmain.o)
                0x0001d8e4                NGET32
 .text.get32    0x0001d910       0x2c ./lib/psglobal.a(psmain.o)
                0x0001d910                get32
 .text.NSET32   0x0001d93c       0x2c ./lib/psglobal.a(psmain.o)
                0x0001d93c                NSET32
 .text.NCOPY32  0x0001d968       0x30 ./lib/psglobal.a(psmain.o)
                0x0001d968                NCOPY32
 .text.aton     0x0001d998       0x84 ./lib/psglobal.a(psmain.o)
                0x0001d998                aton
 .text.__spin_lock_init
                0x0001da1c       0x14 ./lib/psglobal.a(psmain.o)
                0x0001da1c                __spin_lock_init
 .text.spin_unlock_irqrestore
                0x0001da30       0x30 ./lib/psglobal.a(psmain.o)
                0x0001da30                spin_unlock_irqrestore
 .text.spin_lock_irqsave
                0x0001da60       0x28 ./lib/psglobal.a(psmain.o)
                0x0001da60                spin_lock_irqsave
 .text.spin_unlock
                0x0001da88       0x14 ./lib/psglobal.a(psmain.o)
                0x0001da88                spin_unlock
 .text.spin_lock
                0x0001da9c       0x14 ./lib/psglobal.a(psmain.o)
                0x0001da9c                spin_lock
 .text.memicmp  0x0001dab0       0x88 ./lib/psglobal.a(psmain.o)
                0x0001dab0                memicmp
 .text.strnicmp
                0x0001db38       0x84 ./lib/psglobal.a(psmain.o)
                0x0001db38                strnicmp
 .text.stricmp  0x0001dbbc       0x7c ./lib/psglobal.a(psmain.o)
                0x0001dbbc                stricmp
 .text.strupr   0x0001dc38       0x40 ./lib/psglobal.a(psmain.o)
                0x0001dc38                strupr
 .text.strdup   0x0001dc78       0x38 ./lib/psglobal.a(psmain.o)
                0x0001dc78                strdup
 .text.mallocw  0x0001dcb0       0x3c ./lib/psglobal.a(psmain.o)
                0x0001dcb0                mallocw
 .text.callocw  0x0001dcec       0x54 ./lib/psglobal.a(psmain.o)
                0x0001dcec                callocw
 .text.udelay   0x0001dd40       0x6c ./lib/psglobal.a(psmain.o)
                0x0001dd40                udelay
 .text.starSAPThread
                0x0001ddac       0x20 ./lib/psglobal.a(psmain.o)
                0x0001ddac                starSAPThread
 .text.sysreboot
                0x0001ddcc       0x38 ./lib/psglobal.a(psmain.o)
                0x0001ddcc                sysreboot
 .text.REBOOT   0x0001de04       0xa4 ./lib/psglobal.a(psmain.o)
                0x0001de04                REBOOT
 .text.get_randnodeid
                0x0001dea8      0x228 ./lib/psglobal.a(eeprom.o)
                0x0001dea8                get_randnodeid
 .text.ReadFromFactory
                0x0001e0d0      0x704 ./lib/psglobal.a(eeprom.o)
                0x0001e0d0                ReadFromFactory
 .text.EEPROMInit_DEFAULT_O_TPLINK
                0x0001e7d4       0xe8 ./lib/psglobal.a(eeprom.o)
                0x0001e7d4                EEPROMInit_DEFAULT_O_TPLINK
 .text.EEPROMInit
                0x0001e8bc      0x41c ./lib/psglobal.a(eeprom.o)
                0x0001e8bc                EEPROMInit
 .text.read_version
                0x0001ecd8      0x160 ./lib/psglobal.a(eeprom.o)
                0x0001ecd8                read_version
 .text.clock    0x0001ee38       0x20 ./lib/psglobal.a(eeprom.o)
                0x0001ee38                clock
 .text.WriteToFlash
                0x0001ee58      0x12c ./lib/psglobal.a(rwflash.o)
                0x0001ee58                WriteToFlash
 .text.ResetToDefalutFlash
                0x0001ef84      0x10c ./lib/psglobal.a(rwflash.o)
                0x0001ef84                ResetToDefalutFlash
 .text.WriteToDefault
                0x0001f090      0x134 ./lib/psglobal.a(rwflash.o)
                0x0001f090                WriteToDefault
 .text.WriteToQC0_Default
                0x0001f1c4      0x19c ./lib/psglobal.a(rwflash.o)
                0x0001f1c4                WriteToQC0_Default
 .text.vProgramCode1
                0x0001f360      0x1bc ./lib/psglobal.a(rwflash.o)
                0x0001f360                vProgramCode1
 .text.vProgramCode2
                0x0001f51c      0x1bc ./lib/psglobal.a(rwflash.o)
                0x0001f51c                vProgramCode2
 .text.vProgramWeb
                0x0001f6d8      0x17c ./lib/psglobal.a(rwflash.o)
                0x0001f6d8                vProgramWeb
 .text.ApUpgradeFirmware
                0x0001f854      0x350 ./lib/psglobal.a(rwflash.o)
                0x0001f854                ApUpgradeFirmware
 .text.vEraseDefault
                0x0001fba4       0x20 ./lib/psglobal.a(rwflash.o)
                0x0001fba4                vEraseDefault
 .text.vEraseEEP
                0x0001fbc4       0x20 ./lib/psglobal.a(rwflash.o)
                0x0001fbc4                vEraseEEP
 .text.vEraseCode2
                0x0001fbe4       0x20 ./lib/psglobal.a(rwflash.o)
                0x0001fbe4                vEraseCode2
 .text.vAllocCode2Memory
                0x0001fc04       0x6c ./lib/psglobal.a(rwflash.o)
                0x0001fc04                vAllocCode2Memory
 .text.vReleaseCode2Memory
                0x0001fc70       0x40 ./lib/psglobal.a(rwflash.o)
                0x0001fc70                vReleaseCode2Memory
 .text.ReadFromFlash
                0x0001fcb0       0x80 ./lib/psglobal.a(rwflash.o)
                0x0001fcb0                ReadFromFlash
 .text.ReadFromDefault
                0x0001fd30       0x80 ./lib/psglobal.a(rwflash.o)
                0x0001fd30                ReadFromDefault
 .text.ReadFromQC0_Default
                0x0001fdb0       0x80 ./lib/psglobal.a(rwflash.o)
                0x0001fdb0                ReadFromQC0_Default
 .text.Reset    0x0001fe30       0x38 ./lib/psglobal.a(rwflash.o)
                0x0001fe30                Reset
 .text.LightToggleProc
                0x0001fe68      0x2c4 ./lib/psglobal.a(led.o)
                0x0001fe68                LightToggleProc
 .text.LightOnForever
                0x0002012c       0xb8 ./lib/psglobal.a(led.o)
                0x0002012c                LightOnForever
 .text.Light_On
                0x000201e4       0x5c ./lib/psglobal.a(led.o)
                0x000201e4                Light_On
 .text.Light_Off
                0x00020240       0x5c ./lib/psglobal.a(led.o)
                0x00020240                Light_Off
 .text.LED_Init
                0x0002029c       0x74 ./lib/psglobal.a(led.o)
                0x0002029c                LED_Init
 .text.SendPacket
                0x00020310      0x2bc ./lib/psglobal.a(pkdriver.o)
                0x00020310                SendPacket
 .text.send_pkt
                0x000205cc      0x230 ./lib/psglobal.a(pkdriver.o)
                0x000205cc                send_pkt
 .text.LanPktInit
                0x000207fc      0x264 ./lib/psglobal.a(pkdriver.o)
                0x000207fc                LanPktInit
 .text.ProcessOtherPckt
                0x00020a60      0x228 ./lib/psglobal.a(pkdriver.o)
                0x00020a60                ProcessOtherPckt
 .text.LanRecv  0x00020c88      0x1d0 ./lib/psglobal.a(pkdriver.o)
                0x00020c88                LanRecv
 .text.OtherPckt_input
                0x00020e58       0x9c ./lib/psglobal.a(pkdriver.o)
                0x00020e58                OtherPckt_input
 .text.BridgeTask
                0x00020ef4       0x24 ./lib/psglobal.a(pkdriver.o)
                0x00020ef4                BridgeTask
 .text.ProcessOtherPcktTask
                0x00020f18       0x88 ./lib/psglobal.a(pkdriver.o)
                0x00020f18                ProcessOtherPcktTask
 .text.WLAN_TX_Thread
                0x00020fa0       0xe4 ./lib/psglobal.a(pkdriver.o)
                0x00020fa0                WLAN_TX_Thread
 .text.arp_timer
                0x00021084       0x2c ./lib/psglobal.a(pkdriver.o)
                0x00021084                arp_timer
 .text.cpyfrompbuf
                0x000210b0       0x40 ./lib/psglobal.a(pkdriver.o)
                0x000210b0                cpyfrompbuf
 .text.ethernetif_output
                0x000210f0       0x28 ./lib/psglobal.a(pkdriver.o)
                0x000210f0                ethernetif_output
 .text.pk_attach
                0x00021118       0xa8 ./lib/psglobal.a(pkdriver.o)
                0x00021118                pk_attach
 .text.LanPktStart
                0x000211c0       0x30 ./lib/psglobal.a(pkdriver.o)
                0x000211c0                LanPktStart
 .text.WLan_tx_enqueue
                0x000211f0       0x78 ./lib/psglobal.a(pkdriver.o)
                0x000211f0                WLan_tx_enqueue
 .text.WLan_tx_dequeue
                0x00021268       0x38 ./lib/psglobal.a(pkdriver.o)
                0x00021268                WLan_tx_dequeue
 .text.CacheEnable
                0x000212a0      0x11c ./lib/psglobal.a(io.o)
                0x000212a0                CacheEnable
 .text.IOInit   0x000213bc      0x120 ./lib/psglobal.a(io.o)
                0x000213bc                IOInit
 .text.CacheDisable
                0x000214dc       0x2c ./lib/psglobal.a(io.o)
                0x000214dc                CacheDisable
 .text.Spi_Flash_Read_Status_Register
                0x00021508      0x178 ./lib/psglobal.a(spiflash.o)
 .text.Spi_Flash_Set_Write_Enable
                0x00021680      0x110 ./lib/psglobal.a(spiflash.o)
 .text.Spi_Flash_Sector_Erase
                0x00021790      0x2b8 ./lib/psglobal.a(spiflash.o)
 .text.Spi_Flash_Read_Data_Bytes
                0x00021a48      0x4e8 ./lib/psglobal.a(spiflash.o)
                0x00021a48                Spi_Flash_Read_Data_Bytes
 .text.Spi_Flash_Page_Program_Data_Bytes
                0x00021f30      0x414 ./lib/psglobal.a(spiflash.o)
 .text.AT91F_SpiInit
                0x00022344       0xf4 ./lib/psglobal.a(spiflash.o)
                0x00022344                AT91F_SpiInit
 .text.read_flash
                0x00022438       0x2c ./lib/psglobal.a(spiflash.o)
                0x00022438                read_flash
 .text.vEraseFlash
                0x00022464       0x60 ./lib/psglobal.a(spiflash.o)
                0x00022464                vEraseFlash
 .text.vProgramFlash
                0x000224c4       0x60 ./lib/psglobal.a(spiflash.o)
                0x000224c4                vProgramFlash
 .text.crc32    0x00022524       0x44 ./lib/psglobal.a(crc32.o)
                0x00022524                crc32
 .text.zot_idle_task
                0x00022568       0xa4 ./lib/psglobal.a(pm.o)
                0x00022568                zot_idle_task
 .text.zot_idle_task_init
                0x0002260c       0x64 ./lib/psglobal.a(pm.o)
                0x0002260c                zot_idle_task_init
 .text.bdginit  0x00022670      0x100 ./lib/psglobal.a(bridge.o)
                0x00022670                bdginit
 .text.bridge_in
                0x00022770      0x24c ./lib/psglobal.a(bridge.o)
                0x00022770                bridge_in
 .text.bridge_dst_lookup
                0x000229bc      0x1d0 ./lib/psglobal.a(bridge.o)
                0x000229bc                bridge_dst_lookup
 .text.zot_fgets
                0x00022b8c      0x104 ./lib/http_zot.a(httpd.o)
                0x00022b8c                zot_fgets
 .text.AddrToIP
                0x00022c90      0x128 ./lib/http_zot.a(httpd.o)
                0x00022c90                AddrToIP
 .text.httpstart
                0x00022db8      0x2c0 ./lib/http_zot.a(httpd.o)
                0x00022db8                httpstart
 .text.httpd    0x00023078     0x1154 ./lib/http_zot.a(httpd.o)
                0x00023078                httpd
 .text.httpFileInfo
                0x000241cc      0x4b4 ./lib/http_zot.a(httpd.o)
                0x000241cc                httpFileInfo
 .text.httpHeaders
                0x00024680      0x21c ./lib/http_zot.a(httpd.o)
                0x00024680                httpHeaders
 .text.ippSendResp
                0x0002489c      0x4ac ./lib/http_zot.a(httpd.o)
                0x0002489c                ippSendResp
 .text.httpError
                0x00024d48      0x268 ./lib/http_zot.a(httpd.o)
                0x00024d48                httpError
 .text.authorization
                0x00024fb0      0x350 ./lib/http_zot.a(httpd.o)
                0x00024fb0                authorization
 .text.base64encode
                0x00025300      0x128 ./lib/http_zot.a(httpd.o)
                0x00025300                base64encode
 .text.IsSeedPassword
                0x00025428      0x128 ./lib/http_zot.a(httpd.o)
                0x00025428                IsSeedPassword
 .text.decode   0x00025550      0x138 ./lib/http_zot.a(httpd.o)
                0x00025550                decode
 .text.sendhtml
                0x00025688      0x598 ./lib/http_zot.a(httpd.o)
                0x00025688                sendhtml
 .text.EchoOutput
                0x00025c20     0x7410 ./lib/http_zot.a(httpd.o)
                0x00025c20                EchoOutput
 .text.EchoSetFSName
                0x0002d030      0x480 ./lib/http_zot.a(httpd.o)
                0x0002d030                EchoSetFSName
 .text.HasDSExist
                0x0002d4b0       0xdc ./lib/http_zot.a(httpd.o)
                0x0002d4b0                HasDSExist
 .text.EchoSetNDSTreeName
                0x0002d58c      0x4f0 ./lib/http_zot.a(httpd.o)
                0x0002d58c                EchoSetNDSTreeName
 .text.CGIBoxSetting
                0x0002da7c     0x2080 ./lib/http_zot.a(httpd.o)
                0x0002da7c                CGIBoxSetting
 .text.DisplayCGIMsg
                0x0002fafc      0x1c0 ./lib/http_zot.a(httpd.o)
                0x0002fafc                DisplayCGIMsg
 .text.HttpGetMessage
                0x0002fcbc      0x134 ./lib/http_zot.a(httpd.o)
                0x0002fcbc                HttpGetMessage
 .text.zot_fflush
                0x0002fdf0       0x58 ./lib/http_zot.a(httpd.o)
                0x0002fdf0                zot_fflush
 .text.fmode    0x0002fe48       0x48 ./lib/http_zot.a(httpd.o)
                0x0002fe48                fmode
 .text.zot_fopen
                0x0002fe90       0xbc ./lib/http_zot.a(httpd.o)
                0x0002fe90                zot_fopen
 .text.zot_fclose
                0x0002ff4c       0x64 ./lib/http_zot.a(httpd.o)
                0x0002ff4c                zot_fclose
 .text.zot_fputs
                0x0002ffb0       0xa0 ./lib/http_zot.a(httpd.o)
                0x0002ffb0                zot_fputs
 .text.zot_fputc
                0x00030050       0xc4 ./lib/http_zot.a(httpd.o)
                0x00030050                zot_fputc
 .text.zot_fgetc
                0x00030114       0x88 ./lib/http_zot.a(httpd.o)
                0x00030114                zot_fgetc
 .text.rip      0x0003019c       0x40 ./lib/http_zot.a(httpd.o)
                0x0003019c                rip
 .text.availmem
                0x000301dc       0x30 ./lib/http_zot.a(httpd.o)
                0x000301dc                availmem
 .text.sendfile
                0x0003020c       0x8c ./lib/http_zot.a(httpd.o)
                0x0003020c                sendfile
 .text.sendfileCFG
                0x00030298       0x64 ./lib/http_zot.a(httpd.o)
                0x00030298                sendfileCFG
 .text.process_cgi
                0x000302fc       0x6c ./lib/http_zot.a(httpd.o)
                0x000302fc                process_cgi
 .text.IsFSSelected
                0x00030368       0x80 ./lib/http_zot.a(httpd.o)
                0x00030368                IsFSSelected
 .text.skipwhite
                0x000303e8       0x44 ./lib/http_zot.a(httpd.o)
                0x000303e8                skipwhite
 .text.skipnonwhite
                0x0003042c       0x44 ./lib/http_zot.a(httpd.o)
                0x0003042c                skipnonwhite
 .text.SearchEchoName
                0x00030470       0x9c ./lib/http_zot.a(httpd.o)
                0x00030470                SearchEchoName
 .text.UptimeString
                0x0003050c       0xfc ./lib/http_zot.a(httpd.o)
                0x0003050c                UptimeString
 .text.timeString
                0x00030608       0xf4 ./lib/http_zot.a(httpd.o)
                0x00030608                timeString
 .text.portString
                0x000306fc       0xf8 ./lib/http_zot.a(httpd.o)
                0x000306fc                portString
 .text.httpd_init
                0x000307f4       0xcc ./lib/http_zot.a(httpd.o)
                0x000307f4                httpd_init
 .text.gmtimeX  0x000308c0      0x1ec ./lib/http_zot.a(gmtime.o)
 .text.gmt_ptime
                0x00030aac       0x88 ./lib/http_zot.a(gmtime.o)
                0x00030aac                gmt_ptime
 .text.SearchFileName
                0x00030b34       0xd0 ./lib/http_zot.a(pfs.o)
 .text.PFSopen  0x00030c04       0x98 ./lib/http_zot.a(pfs.o)
                0x00030c04                PFSopen
 .text.PFSread  0x00030c9c       0x5c ./lib/http_zot.a(pfs.o)
                0x00030c9c                PFSread
 .text.PFSgets  0x00030cf8       0xa4 ./lib/http_zot.a(pfs.o)
                0x00030cf8                PFSgets
 .text.PFSclose
                0x00030d9c       0x14 ./lib/http_zot.a(pfs.o)
                0x00030d9c                PFSclose
 .text.SearchDirName
                0x00030db0       0x9c ./lib/http_zot.a(pfs.o)
 .text.IPXOpenSocket
                0x00030e4c      0x178 ./lib/ipxbeui.a(ipx.o)
                0x00030e4c                IPXOpenSocket
 .text.IPXSendPacket
                0x00030fc4      0x3bc ./lib/ipxbeui.a(ipx.o)
                0x00030fc4                IPXSendPacket
 .text.IPXListenForPacket
                0x00031380       0xb8 ./lib/ipxbeui.a(ipx.o)
                0x00031380                IPXListenForPacket
 .text.IPXInput
                0x00031438      0x1b8 ./lib/ipxbeui.a(ipx.o)
                0x00031438                IPXInput
 .text.GetIPXFrameType
                0x000315f0       0x2c ./lib/ipxbeui.a(ipx.o)
                0x000315f0                GetIPXFrameType
 .text.IPXInitialize
                0x0003161c       0x60 ./lib/ipxbeui.a(ipx.o)
                0x0003161c                IPXInitialize
 .text.IPXCancelEvent
                0x0003167c       0x7c ./lib/ipxbeui.a(ipx.o)
                0x0003167c                IPXCancelEvent
 .text.NT_NETBEUItoIPXInput
                0x000316f8      0x294 ./lib/ipxbeui.a(netbeui.o)
                0x000316f8                NT_NETBEUItoIPXInput
 .text.Node2Num
                0x0003198c       0x6c ./lib/ipxbeui.a(netbeui.o)
                0x0003198c                Node2Num
 .text.NETBEUInit
                0x000319f8       0x88 ./lib/ipxbeui.a(netbeui.o)
                0x000319f8                NETBEUInit
 .text.NT_IPXtoNETBEUIHeader
                0x00031a80       0xac ./lib/ipxbeui.a(netbeui.o)
                0x00031a80                NT_IPXtoNETBEUIHeader
 .text.NT3main  0x00031b2c      0x280 ./lib/ntps.a(ntps.o)
                0x00031b2c                NT3main
 .text.NTPrinterServerInit
                0x00031dac       0x4c ./lib/ntps.a(ntps.o)
                0x00031dac                NTPrinterServerInit
 .text.NTStartPrintUDP
                0x00031df8      0x258 ./lib/ntps.a(ntudp.o)
 .text.NTRequestUDP
                0x00032050      0x2f0 ./lib/ntps.a(ntudp.o)
                0x00032050                NTRequestUDP
 .text.NTQueryAckUDP
                0x00032340      0x104 ./lib/ntps.a(ntudp.o)
 .text.NTUtilityUDP
                0x00032444      0x13c ./lib/ntps.a(ntudp.o)
                0x00032444                NTUtilityUDP
 .text.NTDoCommandUDP
                0x00032580      0x228 ./lib/ntps.a(ntudp.o)
 .text.UtilSendDeviceInfoUDP
                0x000327a8      0x204 ./lib/ntps.a(ntudp.o)
 .text.UtilConfigBoxUDP_Adv
                0x000329ac      0x190 ./lib/ntps.a(ntudp.o)
 .text.UtilViewBoxUDP_Adv
                0x00032b3c      0x1ec ./lib/ntps.a(ntudp.o)
 .text.my_send_view_box
                0x00032d28      0x21c ./lib/ntps.a(ntudp.o)
                0x00032d28                my_send_view_box
 .text.NTUDPOpenDataPort
                0x00032f44       0xb0 ./lib/ntps.a(ntudp.o)
 .text.NTSendAckStartPrintUDP
                0x00032ff4       0xf0 ./lib/ntps.a(ntudp.o)
 .text.NTSendAckEndPrintUDP
                0x000330e4       0x98 ./lib/ntps.a(ntudp.o)
 .text.UtilConfigBoxUDP
                0x0003317c       0x98 ./lib/ntps.a(ntudp.o)
 .text.UtilViewBoxUDP
                0x00033214       0xa4 ./lib/ntps.a(ntudp.o)
 .text.UtilPrintStatusUDP
                0x000332b8       0xb8 ./lib/ntps.a(ntudp.o)
 .text.UtilReadPrinterDataUDP
                0x00033370       0xcc ./lib/ntps.a(ntudp.o)
 .text.UtilWritePrinterDataUDP
                0x0003343c       0x9c ./lib/ntps.a(ntudp.o)
 .text.UtilLoadDefaultUDP
                0x000334d8       0x70 ./lib/ntps.a(ntudp.o)
 .text.UtilGetListViewData
                0x00033548      0x494 ./lib/ntps.a(ntutil.o)
                0x00033548                UtilGetListViewData
 .text.UtilSetListViewData
                0x000339dc      0x64c ./lib/ntps.a(ntutil.o)
                0x000339dc                UtilSetListViewData
 .text.UtilSetListViewData_Adv
                0x00034028      0x154 ./lib/ntps.a(ntutil.o)
                0x00034028                UtilSetListViewData_Adv
 .text.UtilGetListViewData_Adv
                0x0003417c      0x10c ./lib/ntps.a(ntutil.o)
                0x0003417c                UtilGetListViewData_Adv
 .text.UtilGetFWData
                0x00034288      0x198 ./lib/ntps.a(ntutil.o)
                0x00034288                UtilGetFWData
 .text.UtilRemoveBusyStatus
                0x00034420       0x4c ./lib/ntps.a(ntutil.o)
                0x00034420                UtilRemoveBusyStatus
 .text.UtilGetVersionString
                0x0003446c       0xdc ./lib/ntps.a(ntutil.o)
                0x0003446c                UtilGetVersionString
 .text.ipx_recvfrom
                0x00034548      0x120 ./lib/ntps.a(ntipxbeui.o)
                0x00034548                ipx_recvfrom
 .text.NTRequestECB
                0x00034668      0x240 ./lib/ntps.a(ntipxbeui.o)
                0x00034668                NTRequestECB
 .text.SendUpgradePacket
                0x000348a8       0xd0 ./lib/ntps.a(ntipxbeui.o)
                0x000348a8                SendUpgradePacket
 .text.SendUtilityPacket
                0x00034978      0x130 ./lib/ntps.a(ntipxbeui.o)
                0x00034978                SendUtilityPacket
 .text.IPXUpgrade
                0x00034aa8      0x2f0 ./lib/ntps.a(ntipxbeui.o)
                0x00034aa8                IPXUpgrade
 .text.NTSendAckStartPrintECB
                0x00034d98       0xc4 ./lib/ntps.a(ntipxbeui.o)
                0x00034d98                NTSendAckStartPrintECB
 .text.NTStartPrint
                0x00034e5c      0x2c4 ./lib/ntps.a(ntipxbeui.o)
                0x00034e5c                NTStartPrint
 .text.NTQueryAckECB
                0x00035120      0x1f4 ./lib/ntps.a(ntipxbeui.o)
                0x00035120                NTQueryAckECB
 .text.NTEndPrint
                0x00035314       0xe8 ./lib/ntps.a(ntipxbeui.o)
                0x00035314                NTEndPrint
 .text.UtilPrintStatus
                0x000353fc       0x8c ./lib/ntps.a(ntipxbeui.o)
                0x000353fc                UtilPrintStatus
 .text.UtilRecvEEPROM
                0x00035488      0x148 ./lib/ntps.a(ntipxbeui.o)
                0x00035488                UtilRecvEEPROM
 .text.UtilSendDeviceInfo
                0x000355d0      0x1bc ./lib/ntps.a(ntipxbeui.o)
                0x000355d0                UtilSendDeviceInfo
 .text.UtilWirelessLoopback1
                0x0003578c       0xc4 ./lib/ntps.a(ntipxbeui.o)
                0x0003578c                UtilWirelessLoopback1
 .text.UtilWirelessLoopback2
                0x00035850       0xf0 ./lib/ntps.a(ntipxbeui.o)
                0x00035850                UtilWirelessLoopback2
 .text.UtilSendEEPROM_Adv
                0x00035940      0x158 ./lib/ntps.a(ntipxbeui.o)
                0x00035940                UtilSendEEPROM_Adv
 .text.UtilConfigBox_Adv
                0x00035a98      0x160 ./lib/ntps.a(ntipxbeui.o)
                0x00035a98                UtilConfigBox_Adv
 .text.UtilViewBox_Adv
                0x00035bf8      0x190 ./lib/ntps.a(ntipxbeui.o)
                0x00035bf8                UtilViewBox_Adv
 .text.NTUSBTestDataReply
                0x00035d88       0x80 ./lib/ntps.a(ntipxbeui.o)
                0x00035d88                NTUSBTestDataReply
 .text.UtilRecvEEPROM_Adv
                0x00035e08      0x1f0 ./lib/ntps.a(ntipxbeui.o)
                0x00035e08                UtilRecvEEPROM_Adv
 .text.UtilityESR
                0x00035ff8      0x754 ./lib/ntps.a(ntipxbeui.o)
                0x00035ff8                UtilityESR
 .text.NTReceiveData
                0x0003674c      0x16c ./lib/ntps.a(ntipxbeui.o)
                0x0003674c                NTReceiveData
 .text.IPXReceiveInit
                0x000368b8       0xe0 ./lib/ntps.a(ntipxbeui.o)
                0x000368b8                IPXReceiveInit
 .text.UtilUpgradeESR
                0x00036998       0xc0 ./lib/ntps.a(ntipxbeui.o)
                0x00036998                UtilUpgradeESR
 .text.ListenUtilPack
                0x00036a58       0x70 ./lib/ntps.a(ntipxbeui.o)
                0x00036a58                ListenUtilPack
 .text.NTWaitforDataECB
                0x00036ac8       0x98 ./lib/ntps.a(ntipxbeui.o)
                0x00036ac8                NTWaitforDataECB
 .text.IPXUtilityInit
                0x00036b60       0x8c ./lib/ntps.a(ntipxbeui.o)
                0x00036b60                IPXUtilityInit
 .text.UpgradeSocketInit
                0x00036bec       0x88 ./lib/ntps.a(ntipxbeui.o)
                0x00036bec                UpgradeSocketInit
 .text.PrnDeviceInfo
                0x00036c74      0x10c ./lib/spooler.a(prnport.o)
                0x00036c74                PrnDeviceInfo
 .text.PrnFreeDeviceInfo
                0x00036d80       0x98 ./lib/spooler.a(prnport.o)
                0x00036d80                PrnFreeDeviceInfo
 .text.parse_device_id
                0x00036e18      0x31c ./lib/spooler.a(prnport.o)
                0x00036e18                parse_device_id
 .text.PrnStateSpooler
                0x00037134      0x148 ./lib/spooler.a(prnport.o)
                0x00037134                PrnStateSpooler
 .text.PortNWrite
                0x0003727c      0x218 ./lib/spooler.a(prnport.o)
                0x0003727c                PortNWrite
 .text.PrnReadPortStatus
                0x00037494      0x140 ./lib/spooler.a(prnport.o)
                0x00037494                PrnReadPortStatus
 .text.Spooler_init
                0x000375d4      0x13c ./lib/spooler.a(prnport.o)
                0x000375d4                Spooler_init
 .text.ReadPortStatus
                0x00037710       0x44 ./lib/spooler.a(prnport.o)
                0x00037710                ReadPortStatus
 .text.ReadPrintStatus
                0x00037754       0x6c ./lib/spooler.a(prnport.o)
                0x00037754                ReadPrintStatus
 .text.StartDMAIO
                0x000377c0       0x68 ./lib/spooler.a(prnport.o)
                0x000377c0                StartDMAIO
 .text.RealPortStatus
                0x00037828       0x1c ./lib/spooler.a(prnport.o)
                0x00037828                RealPortStatus
 .text.PrnPrinterInit
                0x00037844       0xc4 ./lib/spooler.a(prnqueue.o)
                0x00037844                PrnPrinterInit
 .text.PrnGetInQueueBuf
                0x00037908       0x84 ./lib/spooler.a(prnqueue.o)
                0x00037908                PrnGetInQueueBuf
 .text.PrnPutOutQueueBuf
                0x0003798c       0x94 ./lib/spooler.a(prnqueue.o)
                0x0003798c                PrnPutOutQueueBuf
 .text.PrnGetOutQueueBuf
                0x00037a20       0x80 ./lib/spooler.a(prnqueue.o)
 .text.PrnPutInQueueBuf
                0x00037aa0       0x8c ./lib/spooler.a(prnqueue.o)
                0x00037aa0                PrnPutInQueueBuf
 .text.PrnPrintPattern
                0x00037b2c       0xe4 ./lib/spooler.a(prnqueue.o)
                0x00037b2c                PrnPrintPattern
 .text.PrnQueueInit
                0x00037c10       0x4c ./lib/spooler.a(prnqueue.o)
                0x00037c10                PrnQueueInit
 .text.PrnCheckPrinter
                0x00037c5c       0x44 ./lib/spooler.a(prnqueue.o)
                0x00037c5c                PrnCheckPrinter
 .text.PrnGetPrinterName
                0x00037ca0       0x24 ./lib/spooler.a(prnqueue.o)
                0x00037ca0                PrnGetPrinterName
 .text.PrnGetPrinterStatus
                0x00037cc4       0x28 ./lib/spooler.a(prnqueue.o)
                0x00037cc4                PrnGetPrinterStatus
 .text.PrnGetAvailQueueNO
                0x00037cec       0x28 ./lib/spooler.a(prnqueue.o)
                0x00037cec                PrnGetAvailQueueNO
 .text.PrnAbortSpooler
                0x00037d14       0x60 ./lib/spooler.a(prnqueue.o)
                0x00037d14                PrnAbortSpooler
 .text.PrnSetQueueInUse
                0x00037d74       0x38 ./lib/spooler.a(prnqueue.o)
                0x00037d74                PrnSetQueueInUse
 .text.PrnStartSpooler
                0x00037dac       0x68 ./lib/spooler.a(prnqueue.o)
                0x00037dac                PrnStartSpooler
 .text.DMAPrinting
                0x00037e14       0x84 ./lib/spooler.a(prnqueue.o)
                0x00037e14                DMAPrinting
 .text.NovellPrintServerInit
                0x00037e98       0x94 ./lib/novell.a(nps3.o)
                0x00037e98                NovellPrintServerInit
 .text.BinderyPrintServerInit
                0x00037f2c       0xfc ./lib/novell.a(nps3.o)
                0x00037f2c                BinderyPrintServerInit
 .text.NovellPrintSocketInit
                0x00038028      0x150 ./lib/novell.a(nps3.o)
                0x00038028                NovellPrintSocketInit
 .text.ConnectNetware
                0x00038178      0x130 ./lib/novell.a(nps3.o)
                0x00038178                ConnectNetware
 .text.QueryNearestFileServer
                0x000382a8      0x284 ./lib/novell.a(nps3.o)
                0x000382a8                QueryNearestFileServer
 .text.AttachToFileServer
                0x0003852c      0x1d4 ./lib/novell.a(nps3.o)
 .text.ServiceNetWareQueue
                0x00038700      0x220 ./lib/novell.a(nps3.o)
                0x00038700                ServiceNetWareQueue
 .text.QueueToPort
                0x00038920      0x2d8 ./lib/novell.a(nps3.o)
                0x00038920                QueueToPort
 .text.LoginPSToFileServer
                0x00038bf8       0xec ./lib/novell.a(nps3.o)
 .text.GetPSQueueID
                0x00038ce4      0x328 ./lib/novell.a(nps3.o)
 .text.RequestRIP
                0x0003900c      0x2a0 ./lib/novell.a(nps3.o)
                0x0003900c                RequestRIP
 .text.ReadPropertyValue
                0x000392ac      0x1f4 ./lib/novell.a(nps3.o)
                0x000392ac                ReadPropertyValue
 .text.GetLoginKey
                0x000394a0      0x160 ./lib/novell.a(nps3.o)
 .text.GetBinderyObjectID
                0x00039600      0x1c4 ./lib/novell.a(nps3.o)
 .text.LoginToFS
                0x000397c4      0x1c0 ./lib/novell.a(nps3.o)
 .text.OpenQueueInfoFile
                0x00039984      0x180 ./lib/novell.a(nps3.o)
 .text.ReadFileData
                0x00039b04      0x1e0 ./lib/novell.a(nps3.o)
 .text.AttachQueueServer
                0x00039ce4      0x160 ./lib/novell.a(nps3.o)
                0x00039ce4                AttachQueueServer
 .text.CloseQueueInfoFile
                0x00039e44      0x148 ./lib/novell.a(nps3.o)
 .text.ServiceQueueJob
                0x00039f8c      0x258 ./lib/novell.a(nps3.o)
 .text.ReadQueueJobEntry
                0x0003a1e4      0x3e4 ./lib/novell.a(nps3.o)
                0x0003a1e4                ReadQueueJobEntry
 .text.FinishServiceQueueJob
                0x0003a5c8      0x19c ./lib/novell.a(nps3.o)
 .text.RequestCreateServiceConnect
                0x0003a764      0x120 ./lib/novell.a(nps3.o)
                0x0003a764                RequestCreateServiceConnect
 .text.RequestNegotiateBufferSize
                0x0003a884      0x13c ./lib/novell.a(nps3.o)
                0x0003a884                RequestNegotiateBufferSize
 .text.NCPRequest
                0x0003a9c0      0x194 ./lib/novell.a(nps3.o)
                0x0003a9c0                NCPRequest
 .text.DisConnection
                0x0003ab54      0x100 ./lib/novell.a(nps3.o)
                0x0003ab54                DisConnection
 .text.CheckConnection
                0x0003ac54       0xf8 ./lib/novell.a(nps3.o)
 .text.InitSAP  0x0003ad4c      0x118 ./lib/novell.a(nps3.o)
 .text.WatchDogESR
                0x0003ae64      0x110 ./lib/novell.a(nps3.o)
 .text.NPS3main
                0x0003af74      0x2a4 ./lib/novell.a(nps3.o)
                0x0003af74                NPS3main
 .text.TryConnectNoAttachFS
                0x0003b218       0xd0 ./lib/novell.a(nps3.o)
 .text.MoveAttachPortToFreePort
                0x0003b2e8      0x23c ./lib/novell.a(nps3.o)
 .text.SendStatusData
                0x0003b524      0x4a0 ./lib/novell.a(nps3.o)
                0x0003b524                SendStatusData
 .text.SearchObjectInit
                0x0003b9c4      0x13c ./lib/novell.a(nps3.o)
                0x0003b9c4                SearchObjectInit
 .text.SearchBinaryObjectName
                0x0003bb00      0x1f4 ./lib/novell.a(nps3.o)
                0x0003bb00                SearchBinaryObjectName
 .text.NovellPSmain
                0x0003bcf4      0x170 ./lib/novell.a(nps3.o)
                0x0003bcf4                NovellPSmain
 .text.ListenWatchDog
                0x0003be64       0x64 ./lib/novell.a(nps3.o)
 .text.ProcessLoginKey
                0x0003bec8       0x54 ./lib/novell.a(nps3.o)
 .text.CheckInUseFlag
                0x0003bf1c       0x5c ./lib/novell.a(nps3.o)
 .text.ListenPsECB
                0x0003bf78       0x5c ./lib/novell.a(nps3.o)
                0x0003bf78                ListenPsECB
 .text.SendPsECBInit
                0x0003bfd4       0x7c ./lib/novell.a(nps3.o)
                0x0003bfd4                SendPsECBInit
 .text.SendNovellSAP
                0x0003c050       0x58 ./lib/novell.a(nps3.o)
                0x0003c050                SendNovellSAP
 .text.print_large
                0x0003c0a8      0x1b4 ./lib/novell.a(banner.o)
                0x0003c0a8                print_large
 .text.shuffle  0x0003c25c      0x1c0 ./lib/nds.a(nwcrypt.o)
                0x0003c25c                shuffle
 .text.nw_encrypt
                0x0003c41c       0x90 ./lib/nds.a(nwcrypt.o)
                0x0003c41c                nw_encrypt
 .text.NDSAttachQueueServer
                0x0003c4ac       0xf8 ./lib/nds.a(ndsqueue.o)
                0x0003c4ac                NDSAttachQueueServer
 .text.NDSGetPrinterQueue
                0x0003c5a4     0x1190 ./lib/nds.a(ndsqueue.o)
                0x0003c5a4                NDSGetPrinterQueue
 .text.NDSGetRealQueueID
                0x0003d734      0x138 ./lib/nds.a(ndsqueue.o)
                0x0003d734                NDSGetRealQueueID
 .text.NDSMoveFreePortToActivePort
                0x0003d86c      0x18c ./lib/nds.a(ndsqueue.o)
                0x0003d86c                NDSMoveFreePortToActivePort
 .text.NDSTryConnectNoAttachFS
                0x0003d9f8      0x1d4 ./lib/nds.a(ndsqueue.o)
                0x0003d9f8                NDSTryConnectNoAttachFS
 .text.NDSMoveActivePortToFreePort
                0x0003dbcc      0x1d4 ./lib/nds.a(ndsqueue.o)
                0x0003dbcc                NDSMoveActivePortToFreePort
 .text.SetNetwareLED
                0x0003dda0       0x10 ./lib/nds.a(ndsqueue.o)
                0x0003dda0                SetNetwareLED
 .text.BEGIN_NETWARE_CRITICAL
                0x0003ddb0       0x40 ./lib/nds.a(ndsqueue.o)
                0x0003ddb0                BEGIN_NETWARE_CRITICAL
 .text.END_NETWARE_CRITICAL
                0x0003ddf0       0x20 ./lib/nds.a(ndsqueue.o)
                0x0003ddf0                END_NETWARE_CRITICAL
 .text.NDSmain  0x0003de10      0x1a0 ./lib/nds.a(ndsmain.o)
                0x0003de10                NDSmain
 .text.GetTreeServer
                0x0003dfb0      0x120 ./lib/nds.a(ndsmain.o)
                0x0003dfb0                GetTreeServer
 .text.ScanBinderyDSName
                0x0003e0d0      0x188 ./lib/nds.a(ndsmain.o)
                0x0003e0d0                ScanBinderyDSName
 .text.QueryNearestDirectoryServer
                0x0003e258      0x250 ./lib/nds.a(ndsmain.o)
                0x0003e258                QueryNearestDirectoryServer
 .text.RequestConnect2Server
                0x0003e4a8       0xc0 ./lib/nds.a(ndsmain.o)
                0x0003e4a8                RequestConnect2Server
 .text.NDSReqGetBigNCPMaxPacket
                0x0003e568       0xf4 ./lib/nds.a(ndsmain.o)
                0x0003e568                NDSReqGetBigNCPMaxPacket
 .text.NDSWatchDogESR
                0x0003e65c       0xcc ./lib/nds.a(ndsmain.o)
                0x0003e65c                NDSWatchDogESR
 .text.SendNotifyMessage
                0x0003e728      0x288 ./lib/nds.a(ndsmain.o)
                0x0003e728                SendNotifyMessage
 .text.NDSAttachToFS
                0x0003e9b0       0x4c ./lib/nds.a(ndsmain.o)
                0x0003e9b0                NDSAttachToFS
 .text.NDSListenWatchDog
                0x0003e9fc       0x64 ./lib/nds.a(ndsmain.o)
                0x0003e9fc                NDSListenWatchDog
 .text.checkkey
                0x0003ea60      0x14c ./lib/nds.a(ndslogin.o)
                0x0003ea60                checkkey
 .text.modexpkey
                0x0003ebac      0x3b8 ./lib/nds.a(ndslogin.o)
                0x0003ebac                modexpkey
 .text.NDSencrypt
                0x0003ef64      0x32c ./lib/nds.a(ndslogin.o)
                0x0003ef64                NDSencrypt
 .text.NDSNCPSendFrag
                0x0003f290      0x464 ./lib/nds.a(ndslogin.o)
                0x0003f290                NDSNCPSendFrag
 .text.NDSResolveName
                0x0003f6f4      0x2f4 ./lib/nds.a(ndslogin.o)
                0x0003f6f4                NDSResolveName
 .text.NDSRead  0x0003f9e8      0x21c ./lib/nds.a(ndslogin.o)
                0x0003f9e8                NDSRead
 .text.NDSGetPublicKey
                0x0003fc04      0x210 ./lib/nds.a(ndslogin.o)
                0x0003fc04                NDSGetPublicKey
 .text.NDSLogin
                0x0003fe14      0x84c ./lib/nds.a(ndslogin.o)
                0x0003fe14                NDSLogin
 .text.NDSBeginAuth
                0x00040660      0x540 ./lib/nds.a(ndslogin.o)
                0x00040660                NDSBeginAuth
 .text.NDSReadEntryName
                0x00040ba0      0x144 ./lib/nds.a(ndslogin.o)
                0x00040ba0                NDSReadEntryName
 .text.NDSGenAuthData
                0x00040ce4      0xe20 ./lib/nds.a(ndslogin.o)
                0x00040ce4                NDSGenAuthData
 .text.NDSNCPChangeConnState
                0x00041b04      0x100 ./lib/nds.a(ndslogin.o)
                0x00041b04                NDSNCPChangeConnState
 .text.NDSAuthenticate
                0x00041c04      0x2dc ./lib/nds.a(ndslogin.o)
                0x00041c04                NDSAuthenticate
 .text.NDSLoginAuth
                0x00041ee0      0x450 ./lib/nds.a(ndslogin.o)
                0x00041ee0                NDSLoginAuth
 .text.NDSu2c_strcpy
                0x00042330       0x20 ./lib/nds.a(ndslogin.o)
                0x00042330                NDSu2c_strcpy
 .text.NDSc2u_strcpy
                0x00042350       0x48 ./lib/nds.a(ndslogin.o)
                0x00042350                NDSc2u_strcpy
 .text.NDSuni_strlen
                0x00042398       0x44 ./lib/nds.a(ndslogin.o)
                0x00042398                NDSuni_strlen
 .text.NDSget_dword_lh
                0x000423dc       0x28 ./lib/nds.a(ndslogin.o)
                0x000423dc                NDSget_dword_lh
 .text.mp_recip
                0x00042404      0x2b4 ./lib/nds.a(mpilib.o)
                0x00042404                mp_recip
 .text.mp_mult  0x000426b8      0x238 ./lib/nds.a(mpilib.o)
                0x000426b8                mp_mult
 .text.stage_smith_modulus
                0x000428f0      0x358 ./lib/nds.a(mpilib.o)
                0x000428f0                stage_smith_modulus
 .text.smith_modmult
                0x00042c48      0x540 ./lib/nds.a(mpilib.o)
                0x00042c48                smith_modmult
 .text.mp_modexp
                0x00043188      0x4d0 ./lib/nds.a(mpilib.o)
                0x00043188                mp_modexp
 .text.mp_addc  0x00043658       0xb0 ./lib/nds.a(mpilib.o)
                0x00043658                mp_addc
 .text.mp_subb  0x00043708       0xa8 ./lib/nds.a(mpilib.o)
                0x00043708                mp_subb
 .text.mp_compare
                0x000437b0       0x74 ./lib/nds.a(mpilib.o)
                0x000437b0                mp_compare
 .text.mp_dec   0x00043824       0x60 ./lib/nds.a(mpilib.o)
                0x00043824                mp_dec
 .text.mp_neg   0x00043884       0x7c ./lib/nds.a(mpilib.o)
                0x00043884                mp_neg
 .text.mp_init  0x00043900       0x38 ./lib/nds.a(mpilib.o)
                0x00043900                mp_init
 .text.countbits
                0x00043938       0x90 ./lib/nds.a(mpilib.o)
                0x00043938                countbits
 .text.nwencrypt
                0x000439c8      0x258 ./lib/nds.a(ndscrypt.o)
                0x000439c8                nwencrypt
 .text.nwdecrypt
                0x00043c20      0x268 ./lib/nds.a(ndscrypt.o)
                0x00043c20                nwdecrypt
 .text.nwencryptblock
                0x00043e88      0x1ac ./lib/nds.a(ndscrypt.o)
                0x00043e88                nwencryptblock
 .text.nwdecryptblock
                0x00044034      0x1b4 ./lib/nds.a(ndscrypt.o)
                0x00044034                nwdecryptblock
 .text.nwhash2end
                0x000441e8      0x1b8 ./lib/nds.a(ndscrypt.o)
                0x000441e8                nwhash2end
 .text.nwcryptinit
                0x000443a0       0xfc ./lib/nds.a(ndscrypt.o)
                0x000443a0                nwcryptinit
 .text.nwhash1  0x0004449c       0xd8 ./lib/nds.a(ndscrypt.o)
                0x0004449c                nwhash1
 .text.nwhash2block
                0x00044574       0xf8 ./lib/nds.a(ndscrypt.o)
                0x00044574                nwhash2block
 .text.lpdstart
                0x0004466c      0x35c ./lib/lpd.a(lpd.o)
                0x0004466c                lpdstart
 .text.CheckServiceMode
                0x000449c8      0x1e4 ./lib/lpd.a(lpd.o)
 .text.receive_job
                0x00044bac      0x37c ./lib/lpd.a(lpd.o)
 .text.receive_bin_data_file
                0x00044f28      0x1cc ./lib/lpd.a(lpd.o)
 .text.receive_txt_data_file
                0x000450f4      0x29c ./lib/lpd.a(lpd.o)
 .text.abort_job
                0x00045390      0x19c ./lib/lpd.a(lpd.o)
 .text.receive_control_file
                0x0004552c       0xa0 ./lib/lpd.a(lpd.o)
 .text.receive_data_file
                0x000455cc       0xe8 ./lib/lpd.a(lpd.o)
 .text.service_job
                0x000456b4       0x84 ./lib/lpd.a(lpd.o)
 .text.send_queue
                0x00045738       0xd0 ./lib/lpd.a(lpd.o)
 .text.hold_job
                0x00045808       0xcc ./lib/lpd.a(lpd.o)
 .text.GetQueueID
                0x000458d4       0x94 ./lib/lpd.a(lpd.o)
 .text.CheckRemoveJobID
                0x00045968       0xc8 ./lib/lpd.a(lpd.o)
 .text.rawtcpd  0x00045a30      0x2b4 ./lib/rawtcpd.a(rawtcpd.o)
                0x00045a30                rawtcpd
 .text.ippd     0x00045ce4      0x2d0 ./lib/ippd.a(ippd.o)
                0x00045ce4                ippd
 .text.ippProcessJob
                0x00045fb4      0x1e0 ./lib/ippd.a(ippd.o)
 .text.ippProcessBINJob
                0x00046194      0x138 ./lib/ippd.a(ippd.o)
 .text.ippProcessTXTJob
                0x000462cc      0x230 ./lib/ippd.a(ippd.o)
 .text.ippGetAttribute
                0x000464fc      0x48c ./lib/ippd.a(ippd.o)
 .text.ippPrintValidateJob
                0x00046988      0x53c ./lib/ippd.a(ippd.o)
 .text.ippCancelJob
                0x00046ec4      0x520 ./lib/ippd.a(ippd.o)
 .text.ippGetJobAttribute
                0x000473e4      0x4c8 ./lib/ippd.a(ippd.o)
 .text.ippGetJobs
                0x000478ac      0x5c8 ./lib/ippd.a(ippd.o)
 .text.ippGetPrinterAttr
                0x00047e74      0x414 ./lib/ippd.a(ippd.o)
 .text.ippSetJobAttribute
                0x00048288      0x250 ./lib/ippd.a(ippd.o)
 .text.ippSetPrinterAttribute
                0x000484d8      0x580 ./lib/ippd.a(ippd.o)
 .text.httpRead
                0x00048a58      0x188 ./lib/ippd.a(ippd.o)
 .text.ippAddAttribute
                0x00048be0      0x360 ./lib/ippd.a(ippd.o)
 .text.ippSetRespBuf
                0x00048f40      0x210 ./lib/ippd.a(ippd.o)
                0x00048f40                ippSetRespBuf
 .text.ippCheckPort
                0x00049150       0xf0 ./lib/ippd.a(ippd.o)
                0x00049150                ippCheckPort
 .text.zot_recv
                0x00049240       0xa8 ./lib/ippd.a(ippd.o)
                0x00049240                zot_recv
 .text.ProcessCRLF
                0x000492e8       0xc4 ./lib/ippd.a(ippd.o)
                0x000492e8                ProcessCRLF
 .text.ippFreeAttribute
                0x000493ac      0x168 ./lib/ippd.a(ippd.o)
 .text.ippRead  0x00049514       0x50 ./lib/ippd.a(ippd.o)
 .text.ippFindAttribute
                0x00049564       0x74 ./lib/ippd.a(ippd.o)
 .text.ippValidDestPort
                0x000495d8       0xb0 ./lib/ippd.a(ippd.o)
 .text.ippValidDestJob
                0x00049688       0xc8 ./lib/ippd.a(ippd.o)
 .text.ippSetPrintJobResp
                0x00049750       0xfc ./lib/ippd.a(ippd.o)
 .text.ippAppend
                0x0004984c       0x5c ./lib/ippd.a(ippd.o)
 .text.telnetstart
                0x000498a8      0x1e0 ./lib/telnet.a(telserv.o)
                0x000498a8                telnetstart
 .text.CheckNameRights
                0x00049a88      0x104 ./lib/telnet.a(telserv.o)
                0x00049a88                CheckNameRights
 .text.TServerMainFunction
                0x00049b8c      0x100 ./lib/telnet.a(telserv.o)
                0x00049b8c                TServerMainFunction
 .text.doMenu   0x00049c8c      0x110 ./lib/telnet.a(telutil.o)
                0x00049c8c                doMenu
 .text.GetCharFromString
                0x00049d9c      0x1bc ./lib/telnet.a(telutil.o)
                0x00049d9c                GetCharFromString
 .text.InputString
                0x00049f58      0x1c0 ./lib/telnet.a(telutil.o)
                0x00049f58                InputString
 .text.InputPassword
                0x0004a118      0x1c0 ./lib/telnet.a(telutil.o)
                0x0004a118                InputPassword
 .text.CheckInputIPAddress
                0x0004a2d8      0x1c8 ./lib/telnet.a(telutil.o)
                0x0004a2d8                CheckInputIPAddress
 .text.GetPassword
                0x0004a4a0      0x184 ./lib/telnet.a(telutil.o)
                0x0004a4a0                GetPassword
 .text.PutIEEE1284PrinterData
                0x0004a624      0x114 ./lib/telnet.a(telutil.o)
                0x0004a624                PutIEEE1284PrinterData
 .text.GetNDSTreeName
                0x0004a738      0x1e4 ./lib/telnet.a(telutil.o)
                0x0004a738                GetNDSTreeName
 .text.GetCommunity1
                0x0004a91c      0x130 ./lib/telnet.a(telutil.o)
                0x0004a91c                GetCommunity1
 .text.GetCommunity2
                0x0004aa4c      0x130 ./lib/telnet.a(telutil.o)
                0x0004aa4c                GetCommunity2
 .text.PutChooserName
                0x0004ab7c      0x134 ./lib/telnet.a(telutil.o)
                0x0004ab7c                PutChooserName
 .text.GetFileServerName
                0x0004acb0      0x2dc ./lib/telnet.a(telutil.o)
                0x0004acb0                GetFileServerName
 .text.ExitSetup
                0x0004af8c       0xa0 ./lib/telnet.a(telutil.o)
                0x0004af8c                ExitSetup
 .text.PutDeviceName
                0x0004b02c       0x60 ./lib/telnet.a(telutil.o)
                0x0004b02c                PutDeviceName
 .text.GetDeviceName
                0x0004b08c       0xb4 ./lib/telnet.a(telutil.o)
                0x0004b08c                GetDeviceName
 .text.PutContact
                0x0004b140       0x54 ./lib/telnet.a(telutil.o)
                0x0004b140                PutContact
 .text.GetContact
                0x0004b194       0x8c ./lib/telnet.a(telutil.o)
                0x0004b194                GetContact
 .text.PutLocation
                0x0004b220       0x54 ./lib/telnet.a(telutil.o)
                0x0004b220                PutLocation
 .text.GetLocation
                0x0004b274       0x8c ./lib/telnet.a(telutil.o)
                0x0004b274                GetLocation
 .text.PutPassword
                0x0004b300       0x94 ./lib/telnet.a(telutil.o)
                0x0004b300                PutPassword
 .text.PutNovellPassword
                0x0004b394       0x7c ./lib/telnet.a(telutil.o)
                0x0004b394                PutNovellPassword
 .text.GetNovellPassword
                0x0004b410       0x88 ./lib/telnet.a(telutil.o)
                0x0004b410                GetNovellPassword
 .text.PutNDSStatus
                0x0004b498       0x94 ./lib/telnet.a(telutil.o)
                0x0004b498                PutNDSStatus
 .text.GetNDSStatus
                0x0004b52c       0xac ./lib/telnet.a(telutil.o)
                0x0004b52c                GetNDSStatus
 .text.PutNDSTreeName
                0x0004b5d8       0x4c ./lib/telnet.a(telutil.o)
                0x0004b5d8                PutNDSTreeName
 .text.PutNDSContext
                0x0004b624       0x4c ./lib/telnet.a(telutil.o)
                0x0004b624                PutNDSContext
 .text.GetNDSContext
                0x0004b670       0x8c ./lib/telnet.a(telutil.o)
                0x0004b670                GetNDSContext
 .text.PutNetwareStatus
                0x0004b6fc       0x94 ./lib/telnet.a(telutil.o)
                0x0004b6fc                PutNetwareStatus
 .text.GetNetwareStatus
                0x0004b790       0xac ./lib/telnet.a(telutil.o)
                0x0004b790                GetNetwareStatus
 .text.PutPrintServerName
                0x0004b83c       0x54 ./lib/telnet.a(telutil.o)
                0x0004b83c                PutPrintServerName
 .text.GetPrintServerName
                0x0004b890       0x8c ./lib/telnet.a(telutil.o)
                0x0004b890                GetPrintServerName
 .text.PutFileServerName
                0x0004b91c       0xb8 ./lib/telnet.a(telutil.o)
                0x0004b91c                PutFileServerName
 .text.PutPollingTime
                0x0004b9d4       0x48 ./lib/telnet.a(telutil.o)
                0x0004b9d4                PutPollingTime
 .text.GetPollingTime
                0x0004ba1c       0x78 ./lib/telnet.a(telutil.o)
                0x0004ba1c                GetPollingTime
 .text.PutDhcpAndBootp
                0x0004ba94       0x94 ./lib/telnet.a(telutil.o)
                0x0004ba94                PutDhcpAndBootp
 .text.GetDhcpAndBootp
                0x0004bb28       0xac ./lib/telnet.a(telutil.o)
                0x0004bb28                GetDhcpAndBootp
 .text.PutIPAddress
                0x0004bbd4       0x5c ./lib/telnet.a(telutil.o)
                0x0004bbd4                PutIPAddress
 .text.GetIPAddress
                0x0004bc30       0xc0 ./lib/telnet.a(telutil.o)
                0x0004bc30                GetIPAddress
 .text.PutSubnetMask
                0x0004bcf0       0x5c ./lib/telnet.a(telutil.o)
                0x0004bcf0                PutSubnetMask
 .text.GetSubnetMask
                0x0004bd4c       0xc0 ./lib/telnet.a(telutil.o)
                0x0004bd4c                GetSubnetMask
 .text.PutGateway
                0x0004be0c       0x5c ./lib/telnet.a(telutil.o)
                0x0004be0c                PutGateway
 .text.GetGateway
                0x0004be68       0xc0 ./lib/telnet.a(telutil.o)
                0x0004be68                GetGateway
 .text.PutCommunity1
                0x0004bf28       0xe8 ./lib/telnet.a(telutil.o)
                0x0004bf28                PutCommunity1
 .text.PutCommunity2
                0x0004c010       0xe8 ./lib/telnet.a(telutil.o)
                0x0004c010                PutCommunity2
 .text.PutSNNPTraps
                0x0004c0f8       0x8c ./lib/telnet.a(telutil.o)
                0x0004c0f8                PutSNNPTraps
 .text.GetSNNPTraps
                0x0004c184       0xc0 ./lib/telnet.a(telutil.o)
                0x0004c184                GetSNNPTraps
 .text.PutAuthenTraps
                0x0004c244       0x94 ./lib/telnet.a(telutil.o)
                0x0004c244                PutAuthenTraps
 .text.GetAuthenTraps
                0x0004c2d8       0xc8 ./lib/telnet.a(telutil.o)
                0x0004c2d8                GetAuthenTraps
 .text.PutTrap1
                0x0004c3a0       0x5c ./lib/telnet.a(telutil.o)
                0x0004c3a0                PutTrap1
 .text.GetTrap1
                0x0004c3fc       0xc4 ./lib/telnet.a(telutil.o)
                0x0004c3fc                GetTrap1
 .text.PutTrap2
                0x0004c4c0       0x5c ./lib/telnet.a(telutil.o)
                0x0004c4c0                PutTrap2
 .text.GetTrap2
                0x0004c51c       0xc4 ./lib/telnet.a(telutil.o)
                0x0004c51c                GetTrap2
 .text.PutZoneName
                0x0004c5e0       0x54 ./lib/telnet.a(telutil.o)
                0x0004c5e0                PutZoneName
 .text.GetZoneName
                0x0004c634       0x8c ./lib/telnet.a(telutil.o)
                0x0004c634                GetZoneName
 .text.PutApplePortName
                0x0004c6c0       0x54 ./lib/telnet.a(telutil.o)
                0x0004c6c0                PutApplePortName
 .text.GetApplePortName
                0x0004c714       0x8c ./lib/telnet.a(telutil.o)
                0x0004c714                GetApplePortName
 .text.PutPrinterType1
                0x0004c7a0       0x54 ./lib/telnet.a(telutil.o)
                0x0004c7a0                PutPrinterType1
 .text.GetPrinterType1
                0x0004c7f4       0x8c ./lib/telnet.a(telutil.o)
                0x0004c7f4                GetPrinterType1
 .text.PutDataFormat1
                0x0004c880       0xb8 ./lib/telnet.a(telutil.o)
                0x0004c880                PutDataFormat1
 .text.GetDataFormat1
                0x0004c938       0xe4 ./lib/telnet.a(telutil.o)
                0x0004c938                GetDataFormat1
 .text.ResetPrinter
                0x0004ca1c       0x90 ./lib/telnet.a(telutil.o)
                0x0004ca1c                ResetPrinter
 .text.LoadDefault
                0x0004caac       0xa0 ./lib/telnet.a(telutil.o)
                0x0004caac                LoadDefault
 .text.SaveDataToPrint
                0x0004cb4c       0xa8 ./lib/telnet.a(telutil.o)
                0x0004cb4c                SaveDataToPrint
 .text.PutUpTime
                0x0004cbf4       0x40 ./lib/telnet.a(telutil.o)
                0x0004cbf4                PutUpTime
 .text.PutVersion
                0x0004cc34       0x44 ./lib/telnet.a(telutil.o)
                0x0004cc34                PutVersion
 .text.PutNodeID
                0x0004cc78       0x6c ./lib/telnet.a(telutil.o)
                0x0004cc78                PutNodeID
 .text.PutPrinterStatus
                0x0004cce4       0xd8 ./lib/telnet.a(telutil.o)
                0x0004cce4                PutPrinterStatus
 .text.PutConnectStatus
                0x0004cdbc       0x98 ./lib/telnet.a(telutil.o)
                0x0004cdbc                PutConnectStatus
 .text.PutNDSConnectStatus
                0x0004ce54       0x98 ./lib/telnet.a(telutil.o)
                0x0004ce54                PutNDSConnectStatus
 .text.PutCurrentZoneName
                0x0004ceec       0x34 ./lib/telnet.a(telutil.o)
                0x0004ceec                PutCurrentZoneName
 .text.ShowItems
                0x0004cf20       0xa0 ./lib/telnet.a(telutil.o)
                0x0004cf20                ShowItems
 .text.GetInputString
                0x0004cfc0      0x1bc ./lib/telnet.a(telutil.o)
                0x0004cfc0                GetInputString
 .text.UsersLogin
                0x0004d17c       0x68 ./lib/telnet.a(telutil.o)
                0x0004d17c                UsersLogin
 .text.SendPrintTestData
                0x0004d1e4      0x164 ./lib/tftp_zot.a(tftpd.o)
                0x0004d1e4                SendPrintTestData
 .text.tftpd    0x0004d348      0x23c ./lib/tftp_zot.a(tftpd.o)
                0x0004d348                tftpd
 .text.tftp     0x0004d584      0x25c ./lib/tftp_zot.a(tftpd.o)
 .text.SendConfigFile
                0x0004d7e0      0x110 ./lib/tftp_zot.a(tftpd.o)
 .text.SendZeroByteFile
                0x0004d8f0       0xdc ./lib/tftp_zot.a(tftpd.o)
 .text.RecvConfigFile
                0x0004d9cc      0x154 ./lib/tftp_zot.a(tftpd.o)
 .text.TftpSetEEPROM
                0x0004db20       0xf4 ./lib/tftp_zot.a(tftpd.o)
 .text.nak      0x0004dc14       0xf8 ./lib/tftp_zot.a(tftpd.o)
 .text.FillConfigFile
                0x0004dd0c      0x2f0 ./lib/tftp_zot.a(tftpd.o)
 .text.ReadConfigData
                0x0004dffc      0x3a0 ./lib/tftp_zot.a(tftpd.o)
 .text.SkipLineTitle
                0x0004e39c      0x118 ./lib/tftp_zot.a(tftpd.o)
 .text.TftpDLFlash
                0x0004e4b4      0x288 ./lib/tftp_zot.a(tftpd.o)
                0x0004e4b4                TftpDLFlash
 .text.TftpDLCode1
                0x0004e73c      0x23c ./lib/tftp_zot.a(tftpd.o)
                0x0004e73c                TftpDLCode1
 .text.TftpEraseCode2
                0x0004e978       0x1c ./lib/tftp_zot.a(tftpd.o)
                0x0004e978                TftpEraseCode2
 .text.TftpEraseEE
                0x0004e994       0x20 ./lib/tftp_zot.a(tftpd.o)
                0x0004e994                TftpEraseEE
 .text.TftpRebootBox
                0x0004e9b4       0x14 ./lib/tftp_zot.a(tftpd.o)
                0x0004e9b4                TftpRebootBox
 .text.TftpResetBox
                0x0004e9c8       0x14 ./lib/tftp_zot.a(tftpd.o)
                0x0004e9c8                TftpResetBox
 .text.TftpUpgradeBox
                0x0004e9dc       0x10 ./lib/tftp_zot.a(tftpd.o)
                0x0004e9dc                TftpUpgradeBox
 .text.TftpPrinter1Test
                0x0004e9ec       0x18 ./lib/tftp_zot.a(tftpd.o)
                0x0004e9ec                TftpPrinter1Test
 .text.TftpBridge
                0x0004ea04       0x10 ./lib/tftp_zot.a(tftpd.o)
                0x0004ea04                TftpBridge
 .text.IsDHCPOn
                0x0004ea14       0x84 ./lib/tftp_zot.a(tftpd.o)
 .text.IsPsEnable
                0x0004ea98       0xb0 ./lib/tftp_zot.a(tftpd.o)
 .text.etharp_tmr
                0x0004eb48       0xd8 ./lib/tcpip.a(etharp.o)
                0x0004eb48                etharp_tmr
 .text.find_entry
                0x0004ec20      0x2d8 ./lib/tcpip.a(etharp.o)
 .text.update_arp_entry
                0x0004eef8      0x24c ./lib/tcpip.a(etharp.o)
 .text.etharp_arp_input
                0x0004f144      0x4dc ./lib/tcpip.a(etharp.o)
                0x0004f144                etharp_arp_input
 .text.etharp_output
                0x0004f620      0x2e8 ./lib/tcpip.a(etharp.o)
                0x0004f620                etharp_output
 .text.etharp_query
                0x0004f908      0x1ec ./lib/tcpip.a(etharp.o)
                0x0004f908                etharp_query
 .text.etharp_request
                0x0004faf4      0x190 ./lib/tcpip.a(etharp.o)
                0x0004faf4                etharp_request
 .text.linklocal_msg_timer
                0x0004fc84      0x160 ./lib/tcpip.a(etharp.o)
                0x0004fc84                linklocal_msg_timer
 .text.etharp_init
                0x0004fde4       0x50 ./lib/tcpip.a(etharp.o)
                0x0004fde4                etharp_init
 .text.etharp_ip_input
                0x0004fe34       0x24 ./lib/tcpip.a(etharp.o)
                0x0004fe34                etharp_ip_input
 .text.linklocal_alarm
                0x0004fe58       0x9c ./lib/tcpip.a(etharp.o)
                0x0004fe58                linklocal_alarm
 .text.tcpip_thread
                0x0004fef4      0x100 ./lib/tcpip.a(tcpip.o)
 .text.erase_netif_ipaddr
                0x0004fff4       0xe4 ./lib/tcpip.a(tcpip.o)
                0x0004fff4                erase_netif_ipaddr
 .text.updata_netif_ipaddr
                0x000500d8      0x108 ./lib/tcpip.a(tcpip.o)
                0x000500d8                updata_netif_ipaddr
 .text.UseEEPROMIP
                0x000501e0      0x124 ./lib/tcpip.a(tcpip.o)
                0x000501e0                UseEEPROMIP
 .text.dhcp_init
                0x00050304      0x260 ./lib/tcpip.a(tcpip.o)
                0x00050304                dhcp_init
 .text.zot_network_task
                0x00050564      0x110 ./lib/tcpip.a(tcpip.o)
                0x00050564                zot_network_task
 .text.tcp_timer_needed
                0x00050674       0x68 ./lib/tcpip.a(tcpip.o)
                0x00050674                tcp_timer_needed
 .text.tcpip_apimsg
                0x000506dc       0x50 ./lib/tcpip.a(tcpip.o)
                0x000506dc                tcpip_apimsg
 .text.tcpip_input
                0x0005072c       0x5c ./lib/tcpip.a(tcpip.o)
                0x0005072c                tcpip_input
 .text.tcpip_tcp_timer
                0x00050788       0x60 ./lib/tcpip.a(tcpip.o)
 .text.zot_network_init
                0x000507e8       0x64 ./lib/tcpip.a(tcpip.o)
                0x000507e8                zot_network_init
 .text.ip_input
                0x0005084c      0x424 ./lib/tcpip.a(ip.o)
                0x0005084c                ip_input
 .text.ip_output_if
                0x00050c70      0x248 ./lib/tcpip.a(ip.o)
                0x00050c70                ip_output_if
 .text.ip_init  0x00050eb8       0x10 ./lib/tcpip.a(ip.o)
                0x00050eb8                ip_init
 .text.ip_route
                0x00050ec8       0xa8 ./lib/tcpip.a(ip.o)
                0x00050ec8                ip_route
 .text.ip_output
                0x00050f70      0x114 ./lib/tcpip.a(ip.o)
                0x00050f70                ip_output
 .text.icmp_input
                0x00051084      0x2b0 ./lib/tcpip.a(icmp.o)
                0x00051084                icmp_input
 .text.icmp_dest_unreach
                0x00051334      0x10c ./lib/tcpip.a(icmp.o)
                0x00051334                icmp_dest_unreach
 .text.ip_addr_isbroadcast
                0x00051440       0xcc ./lib/tcpip.a(ip_addr.o)
                0x00051440                ip_addr_isbroadcast
 .text.ip_reass
                0x0005150c      0x590 ./lib/tcpip.a(ip_frag.o)
                0x0005150c                ip_reass
 .text.ip_frag  0x00051a9c      0x2e0 ./lib/tcpip.a(ip_frag.o)
                0x00051a9c                ip_frag
 .text.ip_reass_timer
                0x00051d7c       0x4c ./lib/tcpip.a(ip_frag.o)
 .text.alloc_socket
                0x00051dc8       0xb8 ./lib/tcpip.a(sockets.o)
 .text.lwip_accept
                0x00051e80      0x160 ./lib/tcpip.a(sockets.o)
                0x00051e80                lwip_accept
 .text.lwip_recvfrom
                0x00051fe0      0x248 ./lib/tcpip.a(sockets.o)
                0x00051fe0                lwip_recvfrom
 .text.lwip_send
                0x00052228      0x124 ./lib/tcpip.a(sockets.o)
                0x00052228                lwip_send
 .text.event_callback
                0x0005234c      0x1ac ./lib/tcpip.a(sockets.o)
 .text.lwip_setsockopt
                0x000524f8      0x280 ./lib/tcpip.a(sockets.o)
                0x000524f8                lwip_setsockopt
 .text.lwip_bind
                0x00052778       0xb8 ./lib/tcpip.a(sockets.o)
                0x00052778                lwip_bind
 .text.lwip_shutdown
                0x00052830       0xbc ./lib/tcpip.a(sockets.o)
                0x00052830                lwip_shutdown
 .text.lwip_close
                0x000528ec       0xbc ./lib/tcpip.a(sockets.o)
                0x000528ec                lwip_close
 .text.lwip_connect
                0x000529a8       0xcc ./lib/tcpip.a(sockets.o)
                0x000529a8                lwip_connect
 .text.lwip_listen
                0x00052a74       0x8c ./lib/tcpip.a(sockets.o)
                0x00052a74                lwip_listen
 .text.lwip_recv
                0x00052b00       0x24 ./lib/tcpip.a(sockets.o)
                0x00052b00                lwip_recv
 .text.lwip_sendto
                0x00052b24       0xec ./lib/tcpip.a(sockets.o)
                0x00052b24                lwip_sendto
 .text.lwip_socket
                0x00052c10       0xa8 ./lib/tcpip.a(sockets.o)
                0x00052c10                lwip_socket
 .text.sendack  0x00052cb8       0x60 ./lib/tcpip.a(sockets.o)
                0x00052cb8                sendack
 .text.netbuf_copy_partial
                0x00052d18      0x128 ./lib/tcpip.a(api_lib.o)
                0x00052d18                netbuf_copy_partial
 .text.netconn_new_with_callback
                0x00052e40       0xe0 ./lib/tcpip.a(api_lib.o)
                0x00052e40                netconn_new_with_callback
 .text.netconn_delete
                0x00052f20      0x15c ./lib/tcpip.a(api_lib.o)
                0x00052f20                netconn_delete
 .text.netconn_recv
                0x0005307c      0x200 ./lib/tcpip.a(api_lib.o)
                0x0005307c                netconn_recv
 .text.netconn_write
                0x0005327c      0x1ac ./lib/tcpip.a(api_lib.o)
                0x0005327c                netconn_write
 .text.netbuf_new
                0x00053428       0x34 ./lib/tcpip.a(api_lib.o)
                0x00053428                netbuf_new
 .text.netbuf_delete
                0x0005345c       0x40 ./lib/tcpip.a(api_lib.o)
                0x0005345c                netbuf_delete
 .text.netbuf_ref
                0x0005349c       0x64 ./lib/tcpip.a(api_lib.o)
                0x0005349c                netbuf_ref
 .text.netbuf_len
                0x00053500       0x18 ./lib/tcpip.a(api_lib.o)
                0x00053500                netbuf_len
 .text.netbuf_fromaddr
                0x00053518       0x14 ./lib/tcpip.a(api_lib.o)
                0x00053518                netbuf_fromaddr
 .text.netbuf_fromport
                0x0005352c       0x14 ./lib/tcpip.a(api_lib.o)
                0x0005352c                netbuf_fromport
 .text.netconn_new_with_proto_and_callback
                0x00053540       0xf8 ./lib/tcpip.a(api_lib.o)
                0x00053540                netconn_new_with_proto_and_callback
 .text.netconn_type
                0x00053638       0x14 ./lib/tcpip.a(api_lib.o)
                0x00053638                netconn_type
 .text.netconn_peer
                0x0005364c       0xa8 ./lib/tcpip.a(api_lib.o)
                0x0005364c                netconn_peer
 .text.netconn_bind
                0x000536f4       0xb0 ./lib/tcpip.a(api_lib.o)
                0x000536f4                netconn_bind
 .text.netconn_connect
                0x000537a4       0x9c ./lib/tcpip.a(api_lib.o)
                0x000537a4                netconn_connect
 .text.netconn_disconnect
                0x00053840       0x64 ./lib/tcpip.a(api_lib.o)
                0x00053840                netconn_disconnect
 .text.netconn_listen
                0x000538a4       0x90 ./lib/tcpip.a(api_lib.o)
                0x000538a4                netconn_listen
 .text.netconn_accept
                0x00053934       0x50 ./lib/tcpip.a(api_lib.o)
                0x00053934                netconn_accept
 .text.netconn_send
                0x00053984       0x84 ./lib/tcpip.a(api_lib.o)
                0x00053984                netconn_send
 .text.accept_function
                0x00053a08      0x14c ./lib/tcpip.a(api_msg.o)
 .text.do_newconn
                0x00053b54      0x19c ./lib/tcpip.a(api_msg.o)
 .text.do_delconn
                0x00053cf0      0x170 ./lib/tcpip.a(api_msg.o)
 .text.do_bind  0x00053e60      0x1bc ./lib/tcpip.a(api_msg.o)
 .text.do_connect
                0x0005401c      0x1fc ./lib/tcpip.a(api_msg.o)
 .text.do_write
                0x00054218       0xec ./lib/tcpip.a(api_msg.o)
 .text.api_msg_input
                0x00054304       0x24 ./lib/tcpip.a(api_msg.o)
                0x00054304                api_msg_input
 .text.api_msg_post
                0x00054328       0x14 ./lib/tcpip.a(api_msg.o)
                0x00054328                api_msg_post
 .text.recv_raw
                0x0005433c       0xa0 ./lib/tcpip.a(api_msg.o)
 .text.recv_udp
                0x000543dc       0xe8 ./lib/tcpip.a(api_msg.o)
 .text.recv_tcp
                0x000544c4       0x98 ./lib/tcpip.a(api_msg.o)
 .text.poll_tcp
                0x0005455c       0x3c ./lib/tcpip.a(api_msg.o)
 .text.sent_tcp
                0x00054598       0x70 ./lib/tcpip.a(api_msg.o)
 .text.err_tcp  0x00054608       0xb0 ./lib/tcpip.a(api_msg.o)
 .text.do_connected
                0x000546b8       0x98 ./lib/tcpip.a(api_msg.o)
 .text.do_disconnect
                0x00054750       0x58 ./lib/tcpip.a(api_msg.o)
 .text.do_listen
                0x000547a8       0xb0 ./lib/tcpip.a(api_msg.o)
 .text.do_accept
                0x00054858       0x10 ./lib/tcpip.a(api_msg.o)
 .text.do_send  0x00054868       0x7c ./lib/tcpip.a(api_msg.o)
 .text.do_recv  0x000548e4       0x48 ./lib/tcpip.a(api_msg.o)
 .text.do_close
                0x0005492c       0x60 ./lib/tcpip.a(api_msg.o)
 .text.mem_free
                0x0005498c      0x134 ./lib/tcpip.a(mem.o)
                0x0005498c                mem_free
 .text.mem_realloc
                0x00054ac0      0x188 ./lib/tcpip.a(mem.o)
                0x00054ac0                mem_realloc
 .text.mem_malloc
                0x00054c48      0x18c ./lib/tcpip.a(mem.o)
                0x00054c48                mem_malloc
 .text.mem_init
                0x00054dd4       0x84 ./lib/tcpip.a(mem.o)
                0x00054dd4                mem_init
 .text.memp_init
                0x00054e58      0x13c ./lib/tcpip.a(memp.o)
                0x00054e58                memp_init
 .text.memp_malloc
                0x00054f94       0xa8 ./lib/tcpip.a(memp.o)
                0x00054f94                memp_malloc
 .text.memp_free
                0x0005503c       0x58 ./lib/tcpip.a(memp.o)
                0x0005503c                memp_free
 .text.sys_timeout
                0x00055094       0xc8 ./lib/tcpip.a(sys.o)
                0x00055094                sys_timeout
 .text.sys_untimeout
                0x0005515c       0x8c ./lib/tcpip.a(sys.o)
                0x0005515c                sys_untimeout
 .text.sys_sem_wait
                0x000551e8       0xb4 ./lib/tcpip.a(sys.o)
                0x000551e8                sys_sem_wait
 .text.sys_mbox_fetch
                0x0005529c       0xc0 ./lib/tcpip.a(sys.o)
                0x0005529c                sys_mbox_fetch
 .text.sys_my_mbox_fetch
                0x0005535c       0x24 ./lib/tcpip.a(sys.o)
                0x0005535c                sys_my_mbox_fetch
 .text.pbuf_alloc
                0x00055380      0x2a0 ./lib/tcpip.a(pbuf.o)
                0x00055380                pbuf_alloc
 .text.pbuf_realloc
                0x00055620       0xd8 ./lib/tcpip.a(pbuf.o)
                0x00055620                pbuf_realloc
 .text.pbuf_free
                0x000556f8       0xf8 ./lib/tcpip.a(pbuf.o)
                0x000556f8                pbuf_free
 .text.pbuf_take
                0x000557f0       0xe4 ./lib/tcpip.a(pbuf.o)
                0x000557f0                pbuf_take
 .text.pbuf_init
                0x000558d4       0x84 ./lib/tcpip.a(pbuf.o)
                0x000558d4                pbuf_init
 .text.pbuf_header
                0x00055958       0xb0 ./lib/tcpip.a(pbuf.o)
                0x00055958                pbuf_header
 .text.pbuf_ref
                0x00055a08       0x2c ./lib/tcpip.a(pbuf.o)
                0x00055a08                pbuf_ref
 .text.pbuf_clen
                0x00055a34       0x34 ./lib/tcpip.a(pbuf.o)
                0x00055a34                pbuf_clen
 .text.pbuf_cat
                0x00055a68       0x68 ./lib/tcpip.a(pbuf.o)
                0x00055a68                pbuf_cat
 .text.pbuf_chain
                0x00055ad0       0x84 ./lib/tcpip.a(pbuf.o)
                0x00055ad0                pbuf_chain
 .text.pbuf_dequeue
                0x00055b54       0x38 ./lib/tcpip.a(pbuf.o)
                0x00055b54                pbuf_dequeue
 .text.raw_send
                0x00055b8c      0x110 ./lib/tcpip.a(raw.o)
                0x00055b8c                raw_send
 .text.raw_new  0x00055c9c       0x5c ./lib/tcpip.a(raw.o)
                0x00055c9c                raw_new
 .text.raw_remove
                0x00055cf8       0x64 ./lib/tcpip.a(raw.o)
                0x00055cf8                raw_remove
 .text.raw_bind
                0x00055d5c       0x58 ./lib/tcpip.a(raw.o)
                0x00055d5c                raw_bind
 .text.raw_connect
                0x00055db4       0x58 ./lib/tcpip.a(raw.o)
                0x00055db4                raw_connect
 .text.raw_recv
                0x00055e0c       0x18 ./lib/tcpip.a(raw.o)
                0x00055e0c                raw_recv
 .text.raw_input
                0x00055e24       0x9c ./lib/tcpip.a(raw.o)
                0x00055e24                raw_input
 .text.udp_input
                0x00055ec0      0x414 ./lib/tcpip.a(udp.o)
                0x00055ec0                udp_input
 .text.udp_send
                0x000562d4      0x254 ./lib/tcpip.a(udp.o)
                0x000562d4                udp_send
 .text.udp_bind
                0x00056528      0x268 ./lib/tcpip.a(udp.o)
                0x00056528                udp_bind
 .text.udp_connect
                0x00056790       0xdc ./lib/tcpip.a(udp.o)
                0x00056790                udp_connect
 .text.udp_new  0x0005686c       0x3c ./lib/tcpip.a(udp.o)
                0x0005686c                udp_new
 .text.udp_remove
                0x000568a8       0x64 ./lib/tcpip.a(udp.o)
                0x000568a8                udp_remove
 .text.udp_disconnect
                0x0005690c       0x70 ./lib/tcpip.a(udp.o)
                0x0005690c                udp_disconnect
 .text.udp_recv
                0x0005697c       0x18 ./lib/tcpip.a(udp.o)
                0x0005697c                udp_recv
 .text.udp_sendto
                0x00056994       0x60 ./lib/tcpip.a(udp.o)
                0x00056994                udp_sendto
 .text.udp_init
                0x000569f4       0x2c ./lib/tcpip.a(udp.o)
                0x000569f4                udp_init
 .text.tcp_close
                0x00056a20      0x110 ./lib/tcpip.a(tcp.o)
                0x00056a20                tcp_close
 .text.tcp_abort
                0x00056b30      0x148 ./lib/tcpip.a(tcp.o)
                0x00056b30                tcp_abort
 .text.tcp_bind
                0x00056c78      0x374 ./lib/tcpip.a(tcp.o)
                0x00056c78                tcp_bind
 .text.tcp_listen
                0x00056fec       0xe4 ./lib/tcpip.a(tcp.o)
                0x00056fec                tcp_listen
 .text.tcp_new_port
                0x000570d0       0xcc ./lib/tcpip.a(tcp.o)
 .text.tcp_connect
                0x0005719c      0x124 ./lib/tcpip.a(tcp.o)
                0x0005719c                tcp_connect
 .text.tcp_slowtmr
                0x000572c0      0x3a8 ./lib/tcpip.a(tcp.o)
                0x000572c0                tcp_slowtmr
 .text.tcp_alloc
                0x00057668      0x1fc ./lib/tcpip.a(tcp.o)
                0x00057668                tcp_alloc
 .text.tcp_pcb_purge
                0x00057864       0xa0 ./lib/tcpip.a(tcp.o)
                0x00057864                tcp_pcb_purge
 .text.tcp_init
                0x00057904       0x5c ./lib/tcpip.a(tcp.o)
                0x00057904                tcp_init
 .text.tcp_tmr  0x00057960       0x34 ./lib/tcpip.a(tcp.o)
                0x00057960                tcp_tmr
 .text.tcp_new  0x00057994       0x18 ./lib/tcpip.a(tcp.o)
                0x00057994                tcp_new
 .text.tcp_arg  0x000579ac       0x14 ./lib/tcpip.a(tcp.o)
                0x000579ac                tcp_arg
 .text.tcp_accept
                0x000579c0       0x14 ./lib/tcpip.a(tcp.o)
                0x000579c0                tcp_accept
 .text.tcp_recv
                0x000579d4       0x14 ./lib/tcpip.a(tcp.o)
                0x000579d4                tcp_recv
 .text.tcp_sent
                0x000579e8       0x14 ./lib/tcpip.a(tcp.o)
                0x000579e8                tcp_sent
 .text.tcp_poll
                0x000579fc       0x18 ./lib/tcpip.a(tcp.o)
                0x000579fc                tcp_poll
 .text.tcp_err  0x00057a14       0x14 ./lib/tcpip.a(tcp.o)
                0x00057a14                tcp_err
 .text.tcp_recved
                0x00057a28       0x90 ./lib/tcpip.a(tcp.o)
                0x00057a28                tcp_recved
 .text.tcp_fasttmr
                0x00057ab8       0x58 ./lib/tcpip.a(tcp.o)
                0x00057ab8                tcp_fasttmr
 .text.tcp_pcb_remove
                0x00057b10       0xb4 ./lib/tcpip.a(tcp.o)
                0x00057b10                tcp_pcb_remove
 .text.tcp_segs_free
                0x00057bc4       0x3c ./lib/tcpip.a(tcp.o)
                0x00057bc4                tcp_segs_free
 .text.tcp_seg_free
                0x00057c00       0x40 ./lib/tcpip.a(tcp.o)
                0x00057c00                tcp_seg_free
 .text.tcp_seg_copy
                0x00057c40       0x50 ./lib/tcpip.a(tcp.o)
                0x00057c40                tcp_seg_copy
 .text.tcp_next_iss
                0x00057c90       0x30 ./lib/tcpip.a(tcp.o)
                0x00057c90                tcp_next_iss
 .text.tcp_accept_null
                0x00057cc0       0x14 ./lib/tcpip.a(tcp.o)
 .text.tcp_recv_null
                0x00057cd4       0x40 ./lib/tcpip.a(tcp.o)
 .text.tcp_input
                0x00057d14      0x808 ./lib/tcpip.a(tcp_in.o)
                0x00057d14                tcp_input
 .text.tcp_listen_input
                0x0005851c      0x270 ./lib/tcpip.a(tcp_in.o)
 .text.tcp_process
                0x0005878c      0x6a4 ./lib/tcpip.a(tcp_in.o)
 .text.tcp_receive
                0x00058e30      0xc8c ./lib/tcpip.a(tcp_in.o)
 .text.tcp_parseopt
                0x00059abc       0xe4 ./lib/tcpip.a(tcp_in.o)
 .text.tcp_timewait_input
                0x00059ba0       0x70 ./lib/tcpip.a(tcp_in.o)
 .text.tcp_enqueue
                0x00059c10      0x5e0 ./lib/tcpip.a(tcp_out.o)
                0x00059c10                tcp_enqueue
 .text.tcp_output
                0x0005a1f0      0x440 ./lib/tcpip.a(tcp_out.o)
                0x0005a1f0                tcp_output
 .text.tcp_output_segment
                0x0005a630      0x200 ./lib/tcpip.a(tcp_out.o)
 .text.tcp_rst  0x0005a830      0x1b0 ./lib/tcpip.a(tcp_out.o)
                0x0005a830                tcp_rst
 .text.tcp_keepalive
                0x0005a9e0      0x164 ./lib/tcpip.a(tcp_out.o)
                0x0005a9e0                tcp_keepalive
 .text.tcp_write
                0x0005ab44       0x78 ./lib/tcpip.a(tcp_out.o)
                0x0005ab44                tcp_write
 .text.tcp_rexmit
                0x0005abbc       0x7c ./lib/tcpip.a(tcp_out.o)
                0x0005abbc                tcp_rexmit
 .text.tcp_rexmit_rto
                0x0005ac38       0x98 ./lib/tcpip.a(tcp_out.o)
                0x0005ac38                tcp_rexmit_rto
 .text.tcp_send_ctrl
                0x0005acd0       0x40 ./lib/tcpip.a(tcp_out.o)
                0x0005acd0                tcp_send_ctrl
 .text.dhcp_select
                0x0005ad10      0x1cc ./lib/tcpip.a(dhcp.o)
 .text.dhcp_timeout
                0x0005aedc       0xf0 ./lib/tcpip.a(dhcp.o)
 .text.dhcp_handle_ack
                0x0005afcc      0x1e0 ./lib/tcpip.a(dhcp.o)
 .text.dhcp_discover
                0x0005b1ac      0x1e8 ./lib/tcpip.a(dhcp.o)
                0x0005b1ac                dhcp_discover
 .text.dhcp_bind
                0x0005b394      0x1b8 ./lib/tcpip.a(dhcp.o)
 .text.dhcp_renew
                0x0005b54c      0x134 ./lib/tcpip.a(dhcp.o)
                0x0005b54c                dhcp_renew
 .text.dhcp_rebind
                0x0005b680      0x140 ./lib/tcpip.a(dhcp.o)
 .text.dhcp_release
                0x0005b7c0      0x114 ./lib/tcpip.a(dhcp.o)
                0x0005b7c0                dhcp_release
 .text.dhcp_unfold_reply
                0x0005b8d4      0x134 ./lib/tcpip.a(dhcp.o)
 .text.dhcp_recv
                0x0005ba08      0x214 ./lib/tcpip.a(dhcp.o)
 .text.dhcp_create_request
                0x0005bc1c      0x228 ./lib/tcpip.a(dhcp.o)
 .text.dhcp_get_option_ptr
                0x0005be44      0x18c ./lib/tcpip.a(dhcp.o)
 .text.dhcp_start
                0x0005bfd0       0xac ./lib/tcpip.a(dhcp.o)
                0x0005bfd0                dhcp_start
 .text.dhcp_stop
                0x0005c07c       0x68 ./lib/tcpip.a(dhcp.o)
                0x0005c07c                dhcp_stop
 .text.dhcp_coarse_tmr
                0x0005c0e4       0x84 ./lib/tcpip.a(dhcp.o)
                0x0005c0e4                dhcp_coarse_tmr
 .text.dhcp_fine_tmr
                0x0005c168       0x64 ./lib/tcpip.a(dhcp.o)
                0x0005c168                dhcp_fine_tmr
 .text.dhcp_set_state
                0x0005c1cc       0x28 ./lib/tcpip.a(dhcp.o)
 .text.dhcp_get_option_byte
                0x0005c1f4       0x14 ./lib/tcpip.a(dhcp.o)
 .text.dhcp_get_option_long
                0x0005c208       0x30 ./lib/tcpip.a(dhcp.o)
 .text.dhcp_free_reply
                0x0005c238       0x48 ./lib/tcpip.a(dhcp.o)
 .text.dhcp_t1_timeout
                0x0005c280       0x30 ./lib/tcpip.a(dhcp.o)
 .text.dhcp_t2_timeout
                0x0005c2b0       0x30 ./lib/tcpip.a(dhcp.o)
 .text.dhcp_delete_request
                0x0005c2e0       0x28 ./lib/tcpip.a(dhcp.o)
 .text.dhcp_option
                0x0005c308       0x44 ./lib/tcpip.a(dhcp.o)
 .text.dhcp_option_byte
                0x0005c34c       0x2c ./lib/tcpip.a(dhcp.o)
 .text.dhcp_option_short
                0x0005c378       0x50 ./lib/tcpip.a(dhcp.o)
 .text.dhcp_option_long
                0x0005c3c8       0x88 ./lib/tcpip.a(dhcp.o)
 .text.dhcp_option_trailer
                0x0005c450       0x78 ./lib/tcpip.a(dhcp.o)
 .text.dhcp_set_timer
                0x0005c4c8      0x114 ./lib/tcpip.a(dhcp.o)
                0x0005c4c8                dhcp_set_timer
 .text.delete_dhcp_time
                0x0005c5dc       0x30 ./lib/tcpip.a(dhcp.o)
                0x0005c5dc                delete_dhcp_time
 .text.netif_set_ipaddr
                0x0005c60c      0x12c ./lib/tcpip.a(netif.o)
                0x0005c60c                netif_set_ipaddr
 .text.netif_init
                0x0005c738       0x2c ./lib/tcpip.a(netif.o)
                0x0005c738                netif_init
 .text.netif_add
                0x0005c764       0x8c ./lib/tcpip.a(netif.o)
                0x0005c764                netif_add
 .text.netif_set_addr
                0x0005c7f0       0x38 ./lib/tcpip.a(netif.o)
                0x0005c7f0                netif_set_addr
 .text.netif_remove
                0x0005c828       0x7c ./lib/tcpip.a(netif.o)
                0x0005c828                netif_remove
 .text.netif_set_default
                0x0005c8a4       0x1c ./lib/tcpip.a(netif.o)
                0x0005c8a4                netif_set_default
 .text.netif_set_netmask
                0x0005c8c0       0x54 ./lib/tcpip.a(netif.o)
                0x0005c8c0                netif_set_netmask
 .text.netif_set_gw
                0x0005c914       0x54 ./lib/tcpip.a(netif.o)
                0x0005c914                netif_set_gw
 .text.netif_set_up
                0x0005c968       0x1c ./lib/tcpip.a(netif.o)
                0x0005c968                netif_set_up
 .text.netif_is_up
                0x0005c984       0x18 ./lib/tcpip.a(netif.o)
                0x0005c984                netif_is_up
 .text.inet_chksum_pseudo
                0x0005c99c      0x188 ./lib/tcpip.a(inet.o)
                0x0005c99c                inet_chksum_pseudo
 .text.inet_chksum
                0x0005cb24       0x74 ./lib/tcpip.a(inet.o)
                0x0005cb24                inet_chksum
 .text.inet_chksum_pbuf
                0x0005cb98       0xd8 ./lib/tcpip.a(inet.o)
                0x0005cb98                inet_chksum_pbuf
 .text.inet_ntoa
                0x0005cc70       0xd4 ./lib/tcpip.a(inet.o)
                0x0005cc70                inet_ntoa
 .text.htons    0x0005cd44       0x24 ./lib/tcpip.a(inet.o)
                0x0005cd44                htons
 .text.ntohs    0x0005cd68       0x24 ./lib/tcpip.a(inet.o)
                0x0005cd68                ntohs
 .text.htonl    0x0005cd8c       0x2c ./lib/tcpip.a(inet.o)
                0x0005cd8c                htonl
 .text.ntohl    0x0005cdb8       0x2c ./lib/tcpip.a(inet.o)
                0x0005cdb8                ntohl
 .text.sys_init
                0x0005cde4       0x10 ./lib/tcpip.a(sys_arch.o)
                0x0005cde4                sys_init
 .text.sys_arch_timeouts
                0x0005cdf4       0x54 ./lib/tcpip.a(sys_arch.o)
                0x0005cdf4                sys_arch_timeouts
 .text.sys_sem_new
                0x0005ce48       0x40 ./lib/tcpip.a(sys_arch.o)
                0x0005ce48                sys_sem_new
 .text.sys_sem_signal
                0x0005ce88       0x14 ./lib/tcpip.a(sys_arch.o)
                0x0005ce88                sys_sem_signal
 .text.sys_arch_sem_wait
                0x0005ce9c       0x6c ./lib/tcpip.a(sys_arch.o)
                0x0005ce9c                sys_arch_sem_wait
 .text.sys_sem_free
                0x0005cf08       0x20 ./lib/tcpip.a(sys_arch.o)
                0x0005cf08                sys_sem_free
 .text.sys_mbox_new
                0x0005cf28       0x74 ./lib/tcpip.a(sys_arch.o)
                0x0005cf28                sys_mbox_new
 .text.sys_mbox_post
                0x0005cf9c       0x18 ./lib/tcpip.a(sys_arch.o)
                0x0005cf9c                sys_mbox_post
 .text.sys_arch_mbox_fetch
                0x0005cfb4       0x70 ./lib/tcpip.a(sys_arch.o)
                0x0005cfb4                sys_arch_mbox_fetch
 .text.sys_mbox_free
                0x0005d024       0x3c ./lib/tcpip.a(sys_arch.o)
                0x0005d024                sys_mbox_free
 .text.sys_thread_new
                0x0005d060       0xd8 ./lib/tcpip.a(sys_arch.o)
                0x0005d060                sys_thread_new
 .text.sys_arch_protect
                0x0005d138       0x20 ./lib/tcpip.a(sys_arch.o)
                0x0005d138                sys_arch_protect
 .text.sys_arch_unprotect
                0x0005d158       0x24 ./lib/tcpip.a(sys_arch.o)
                0x0005d158                sys_arch_unprotect
 .text.LinkLocal_ip_Task
                0x0005d17c      0x49c ./lib/tcpip.a(linklip.o)
                0x0005d17c                LinkLocal_ip_Task
 .text.is_linklocal_ip
                0x0005d618       0x2c ./lib/tcpip.a(linklip.o)
                0x0005d618                is_linklocal_ip
 .text.LinkLocal_get_current_state
                0x0005d644       0x1c ./lib/tcpip.a(linklip.o)
                0x0005d644                LinkLocal_get_current_state
 .text.LinkLocal_set_state
                0x0005d660       0x1c ./lib/tcpip.a(linklip.o)
                0x0005d660                LinkLocal_set_state
 .text.is_linklocal
                0x0005d67c       0x58 ./lib/tcpip.a(linklip.o)
                0x0005d67c                is_linklocal
 .text.Give_ip_by_myself
                0x0005d6d4       0xf8 ./lib/tcpip.a(linklip.o)
                0x0005d6d4                Give_ip_by_myself
 .text.Link_local_ip_init
                0x0005d7cc       0x64 ./lib/tcpip.a(linklip.o)
                0x0005d7cc                Link_local_ip_init
 .text.send_ddp
                0x0005d830      0x110 ./lib/atalk.a(ddp.o)
                0x0005d830                send_ddp
 .text.ddp_input
                0x0005d940      0x18c ./lib/atalk.a(ddp.o)
                0x0005d940                ddp_input
 .text.ddp_output
                0x0005dacc      0x154 ./lib/atalk.a(ddp.o)
                0x0005dacc                ddp_output
 .text.at_gateway
                0x0005dc20       0x74 ./lib/atalk.a(ddp.o)
 .text.open_ddp
                0x0005dc94       0x98 ./lib/atalk.a(ddp.o)
                0x0005dc94                open_ddp
 .text.recv_ddp
                0x0005dd2c       0xd8 ./lib/atalk.a(ddp.o)
                0x0005dd2c                recv_ddp
 .text.del_ddp  0x0005de04       0xd4 ./lib/atalk.a(ddp.o)
                0x0005de04                del_ddp
 .text.GetATport
                0x0005ded8       0xc8 ./lib/atalk.a(ddp.o)
                0x0005ded8                GetATport
 .text.ddp_lookup
                0x0005dfa0       0x74 ./lib/atalk.a(ddp.o)
 .text.atIsMyAddr
                0x0005e014       0x70 ./lib/atalk.a(ddp.o)
 .text.ddp_input2ambf
                0x0005e084       0xb0 ./lib/atalk.a(ddp.o)
                0x0005e084                ddp_input2ambf
 .text.aarp_output
                0x0005e134      0x198 ./lib/atalk.a(aarp.o)
                0x0005e134                aarp_output
 .text.aarpresolve
                0x0005e2cc      0x1c0 ./lib/atalk.a(aarp.o)
                0x0005e2cc                aarpresolve
 .text.aarp_input
                0x0005e48c      0x3b8 ./lib/atalk.a(aarp.o)
                0x0005e48c                aarp_input
 .text.aarptfree
                0x0005e844      0x1b0 ./lib/atalk.a(aarp.o)
                0x0005e844                aarptfree
 .text.aarp_update
                0x0005e9f4      0x1ac ./lib/atalk.a(aarp.o)
 .text.aarp_probe
                0x0005eba0      0x1bc ./lib/atalk.a(aarp.o)
                0x0005eba0                aarp_probe
 .text.at_broadcast
                0x0005ed5c       0x68 ./lib/atalk.a(aarp.o)
 .text.probe_last_addr
                0x0005edc4       0x88 ./lib/atalk.a(aarp.o)
                0x0005edc4                probe_last_addr
 .text.aarptadd
                0x0005ee4c       0xc0 ./lib/atalk.a(aarp.o)
 .text.aarp_set_rand_node
                0x0005ef0c       0x8c ./lib/atalk.a(aarp.o)
 .text.aarp_input2ambf
                0x0005ef98       0xa0 ./lib/atalk.a(aarp.o)
                0x0005ef98                aarp_input2ambf
 .text.aep_input
                0x0005f038      0x128 ./lib/atalk.a(aep.o)
                0x0005f038                aep_input
 .text.nbp_rgstr
                0x0005f160      0x3d4 ./lib/atalk.a(nbp.o)
                0x0005f160                nbp_rgstr
 .text.nbp_input
                0x0005f534      0x2f8 ./lib/atalk.a(nbp.o)
                0x0005f534                nbp_input
 .text.nbp_set  0x0005f82c      0x168 ./lib/atalk.a(nbp.o)
 .text.nbp_find
                0x0005f994       0xf4 ./lib/atalk.a(nbp.o)
 .text.nbpMatch
                0x0005fa88      0x104 ./lib/atalk.a(nbp.o)
 .text.SetATPortName
                0x0005fb8c       0xa8 ./lib/atalk.a(nbp.o)
 .text.GetATPortName
                0x0005fc34       0x34 ./lib/atalk.a(nbp.o)
                0x0005fc34                GetATPortName
 .text.strnchr  0x0005fc68       0x58 ./lib/atalk.a(nbp.o)
 .text.atalkd_init
                0x0005fcc0       0xe8 ./lib/atalk.a(atalkd.o)
                0x0005fcc0                atalkd_init
 .text.zip_info_query
                0x0005fda8      0x160 ./lib/atalk.a(zip.o)
                0x0005fda8                zip_info_query
 .text.zip_getnetinfo
                0x0005ff08      0x29c ./lib/atalk.a(zip.o)
                0x0005ff08                zip_getnetinfo
 .text.markline
                0x000601a4      0x188 ./lib/atalk.a(file.o)
                0x000601a4                markline
 .text.morespace
                0x0006032c      0x124 ./lib/atalk.a(file.o)
                0x0006032c                morespace
 .text.consumetomark
                0x00060450       0x24 ./lib/atalk.a(file.o)
                0x00060450                consumetomark
 .text.papd     0x00060474      0x434 ./lib/atalk.a(papd.o)
                0x00060474                papd
 .text.getstatus
                0x000608a8       0xf0 ./lib/atalk.a(papd.o)
                0x000608a8                getstatus
 .text.papd_init
                0x00060998       0x40 ./lib/atalk.a(papd.o)
                0x00060998                papd_init
 .text.pushdown2
                0x000609d8      0x11c ./lib/atalk.a(socket2.o)
                0x000609d8                pushdown2
 .text.socket2  0x00060af4      0x16c ./lib/atalk.a(socket2.o)
                0x00060af4                socket2
 .text.pullup2  0x00060c60      0x108 ./lib/atalk.a(socket2.o)
                0x00060c60                pullup2
 .text.enqueue2
                0x00060d68       0x60 ./lib/atalk.a(socket2.o)
                0x00060d68                enqueue2
 .text.dequeue2
                0x00060dc8       0x38 ./lib/atalk.a(socket2.o)
                0x00060dc8                dequeue2
 .text.itop     0x00060e00       0x44 ./lib/atalk.a(socket2.o)
                0x00060e00                itop
 .text.setsocketopt2
                0x00060e44       0x58 ./lib/atalk.a(socket2.o)
                0x00060e44                setsocketopt2
 .text.recvfrom2
                0x00060e9c       0x78 ./lib/atalk.a(socket2.o)
                0x00060e9c                recvfrom2
 .text.sendto2  0x00060f14       0x9c ./lib/atalk.a(socket2.o)
                0x00060f14                sendto2
 .text.bind2    0x00060fb0       0xf0 ./lib/atalk.a(socket2.o)
                0x00060fb0                bind2
 .text.recv_mbuf2
                0x000610a0       0x7c ./lib/atalk.a(socket2.o)
                0x000610a0                recv_mbuf2
 .text.send_mbuf2
                0x0006111c      0x10c ./lib/atalk.a(socket2.o)
                0x0006111c                send_mbuf2
 .text.close_s2
                0x00061228       0xd8 ./lib/atalk.a(socket2.o)
                0x00061228                close_s2
 .text.trim_mbuf2
                0x00061300       0x48 ./lib/atalk.a(socket2.o)
                0x00061300                trim_mbuf2
 .text.free_p   0x00061348       0x30 ./lib/atalk.a(socket2.o)
                0x00061348                free_p
 .text.free_q   0x00061378       0x58 ./lib/atalk.a(socket2.o)
                0x00061378                free_q
 .text.so_ddp_recv
                0x000613d0      0x118 ./lib/atalk.a(ddpsock.o)
                0x000613d0                so_ddp_recv
 .text.ddp_select
                0x000614e8       0x34 ./lib/atalk.a(ddpsock.o)
                0x000614e8                ddp_select
 .text.so_ddp_bind
                0x0006151c       0x54 ./lib/atalk.a(ddpsock.o)
                0x0006151c                so_ddp_bind
 .text.so_ddp_send
                0x00061570       0x90 ./lib/atalk.a(ddpsock.o)
                0x00061570                so_ddp_send
 .text.so_ddp_close
                0x00061600       0x24 ./lib/atalk.a(ddpsock.o)
                0x00061600                so_ddp_close
 .text.atp_open
                0x00061624       0xd0 ./lib/atalk.a(atp_open.o)
                0x00061624                atp_open
 .text.atp_close
                0x000616f4       0xf8 ./lib/atalk.a(atp_clos.o)
                0x000616f4                atp_close
 .text.alloc_atpbuf
                0x000617ec       0x74 ./lib/atalk.a(atp_bufs.o)
                0x000617ec                alloc_atpbuf
 .text.free_atpbuf
                0x00061860       0x38 ./lib/atalk.a(atp_bufs.o)
                0x00061860                free_atpbuf
 .text.atp_rsel
                0x00061898      0x56c ./lib/atalk.a(atp_rsel.o)
                0x00061898                atp_rsel
 .text.resend_request
                0x00061e04       0xa8 ./lib/atalk.a(atp_rsel.o)
                0x00061e04                resend_request
 .text.atp_rreq
                0x00061eac      0x13c ./lib/atalk.a(atp_rreq.o)
                0x00061eac                atp_rreq
 .text.atp_sresp
                0x00061fe8      0x1d4 ./lib/atalk.a(atp_srsp.o)
                0x00061fe8                atp_sresp
 .text.pap_session
                0x000621bc      0x7cc ./lib/atalk.a(session.o)
                0x000621bc                pap_session
 .text.recv_atp
                0x00062988      0x31c ./lib/atalk.a(atp_pkt.o)
                0x00062988                recv_atp
 .text.build_req_packet
                0x00062ca4       0x84 ./lib/atalk.a(atp_pkt.o)
                0x00062ca4                build_req_packet
 .text.build_resp_packet
                0x00062d28       0xa0 ./lib/atalk.a(atp_pkt.o)
                0x00062d28                build_resp_packet
 .text.at_addr_eq
                0x00062dc8       0x70 ./lib/atalk.a(atp_pkt.o)
                0x00062dc8                at_addr_eq
 .text.atp_rresp
                0x00062e38       0xf0 ./lib/atalk.a(atp_rrsp.o)
                0x00062e38                atp_rresp
 .text.atp_sreq
                0x00062f28      0x1ac ./lib/atalk.a(atp_sreq.o)
                0x00062f28                atp_sreq
 .text.PostScript
                0x000630d4      0x2d4 ./lib/atalk.a(magics.o)
                0x000630d4                PostScript
 .text.cm_psadobe
                0x000633a8      0x25c ./lib/atalk.a(magics.o)
 .text.cm_psswitch
                0x00063604      0x16c ./lib/atalk.a(magics.o)
                0x00063604                cm_psswitch
 .text.cm_psquery
                0x00063770       0xbc ./lib/atalk.a(magics.o)
                0x00063770                cm_psquery
 .text.commatch
                0x0006382c       0xb0 ./lib/atalk.a(comment.o)
                0x0006382c                commatch
 .text.comfree  0x000638dc       0x40 ./lib/atalk.a(comment.o)
                0x000638dc                comfree
 .text.compop   0x0006391c       0x2c ./lib/atalk.a(comment.o)
                0x0006391c                compop
 .text.compush  0x00063948       0x58 ./lib/atalk.a(comment.o)
                0x00063948                compush
 .text.comswitch
                0x000639a0       0xac ./lib/atalk.a(comment.o)
                0x000639a0                comswitch
 .text.comcmp   0x00063a4c       0x80 ./lib/atalk.a(comment.o)
                0x00063a4c                comcmp
 .text.cq_default
                0x00063acc      0x17c ./lib/atalk.a(queries.o)
                0x00063acc                cq_default
 .text.cq_font_answer
                0x00063c48      0x1f4 ./lib/atalk.a(queries.o)
                0x00063c48                cq_font_answer
 .text.cq_font  0x00063e3c      0x1d8 ./lib/atalk.a(queries.o)
                0x00063e3c                cq_font
 .text.ascpaprint
                0x00064014      0x174 ./lib/atalk.a(paprint.o)
                0x00064014                ascpaprint
 .text.binpaprint
                0x00064188      0x298 ./lib/atalk.a(paprint.o)
                0x00064188                binpaprint
 .text.paprint  0x00064420       0x78 ./lib/atalk.a(paprint.o)
                0x00064420                paprint
 .text.xBCP_Encode
                0x00064498       0x98 ./lib/atalk.a(paprint.o)
                0x00064498                xBCP_Encode
 .text.SnmpCheckPrintStatus
                0x00064530      0x100 ./lib/snmp.a(snmpd.o)
                0x00064530                SnmpCheckPrintStatus
 .text.snmpd    0x00064630      0x110 ./lib/snmp.a(snmpd.o)
                0x00064630                snmpd
 .text.init_snmp_variable
                0x00064740       0x48 ./lib/snmp.a(snmpd.o)
                0x00064740                init_snmp_variable
 .text.init_modules
                0x00064788       0x14 ./lib/snmp.a(mibmodl.o)
                0x00064788                init_modules
 .text.snmp_open
                0x0006479c       0xd0 ./lib/snmp.a(snmpaget.o)
                0x0006479c                snmp_open
 .text.snmp_agent_parse
                0x0006486c      0x508 ./lib/snmp.a(snmpaget.o)
                0x0006486c                snmp_agent_parse
 .text.parse_var_op_list
                0x00064d74      0x3a0 ./lib/snmp.a(snmpaget.o)
                0x00064d74                parse_var_op_list
 .text.create_identical
                0x00065114      0x164 ./lib/snmp.a(snmpaget.o)
                0x00065114                create_identical
 .text.community_auth
                0x00065278      0x234 ./lib/snmp.a(snmpaget.o)
                0x00065278                community_auth
 .text.SnmpAgent
                0x000654ac       0x34 ./lib/snmp.a(snmpaget.o)
                0x000654ac                SnmpAgent
 .text.snmp_read
                0x000654e0       0xc8 ./lib/snmp.a(snmpaget.o)
                0x000654e0                snmp_read
 .text.goodValue
                0x000655a8       0x34 ./lib/snmp.a(snmpaget.o)
 .text.setVariable
                0x000655dc      0x184 ./lib/snmp.a(snmpaget.o)
                0x000655dc                setVariable
 .text.asn_build_sequence
                0x00065760       0xfc ./lib/snmp.a(asn1.o)
                0x00065760                asn_build_sequence
 .text.asn_parse_objid
                0x0006585c      0x1d4 ./lib/snmp.a(asn1.o)
                0x0006585c                asn_parse_objid
 .text.asn_build_objid
                0x00065a30      0x154 ./lib/snmp.a(asn1.o)
                0x00065a30                asn_build_objid
 .text.asn_parse_int
                0x00065b84       0xd0 ./lib/snmp.a(asn1.o)
                0x00065b84                asn_parse_int
 .text.asn_build_int
                0x00065c54       0xa8 ./lib/snmp.a(asn1.o)
                0x00065c54                asn_build_int
 .text.asn_parse_string
                0x00065cfc       0xb8 ./lib/snmp.a(asn1.o)
                0x00065cfc                asn_parse_string
 .text.asn_build_string
                0x00065db4       0x68 ./lib/snmp.a(asn1.o)
                0x00065db4                asn_build_string
 .text.asn_parse_header
                0x00065e1c       0x80 ./lib/snmp.a(asn1.o)
                0x00065e1c                asn_parse_header
 .text.asn_build_header
                0x00065e9c       0x40 ./lib/snmp.a(asn1.o)
                0x00065e9c                asn_build_header
 .text.asn_parse_length
                0x00065edc       0x9c ./lib/snmp.a(asn1.o)
                0x00065edc                asn_parse_length
 .text.asn_build_length
                0x00065f78       0x60 ./lib/snmp.a(asn1.o)
                0x00065f78                asn_build_length
 .text.asn_build_null
                0x00065fd8       0x38 ./lib/snmp.a(asn1.o)
                0x00065fd8                asn_build_null
 .text.asn_build_unsigned_int
                0x00066010       0xc8 ./lib/snmp.a(asn1.o)
                0x00066010                asn_build_unsigned_int
 .text.asn_build_bitstring
                0x000660d8       0xa8 ./lib/snmp.a(asn1.o)
                0x000660d8                asn_build_bitstring
 .text.snmp_parse_var_op
                0x00066180       0xe0 ./lib/snmp.a(snmp.o)
                0x00066180                snmp_parse_var_op
 .text.snmp_build_var_op
                0x00066260      0x398 ./lib/snmp.a(snmp.o)
                0x00066260                snmp_build_var_op
 .text.snmp_build_trap
                0x000665f8      0x338 ./lib/snmp.a(snmp_api.o)
                0x000665f8                snmp_build_trap
 .text.snmp_send_trap
                0x00066930      0x21c ./lib/snmp.a(snmp_api.o)
                0x00066930                snmp_send_trap
 .text.snmp_ReadCardAndPeripheralStatus
                0x00066b4c      0x10c ./lib/snmp.a(snmp_api.o)
                0x00066b4c                snmp_ReadCardAndPeripheralStatus
 .text.udp_read
                0x00066c58       0x50 ./lib/snmp.a(snmp_api.o)
                0x00066c58                udp_read
 .text.snmp_udp_send
                0x00066ca8       0x38 ./lib/snmp.a(snmp_api.o)
                0x00066ca8                snmp_udp_send
 .text.snmp_parse_auth
                0x00066ce0       0x8c ./lib/snmp.a(snmp_api.o)
                0x00066ce0                snmp_parse_auth
 .text.snmp_build_auth
                0x00066d6c       0xa8 ./lib/snmp.a(snmp_api.o)
                0x00066d6c                snmp_build_auth
 .text.snmp_ReadPrintStatus
                0x00066e14       0x90 ./lib/snmp.a(snmp_api.o)
                0x00066e14                snmp_ReadPrintStatus
 .text.snmp_GetCfgSource
                0x00066ea4       0x28 ./lib/snmp.a(snmp_api.o)
                0x00066ea4                snmp_GetCfgSource
 .text.snmp_SetCfgSource
                0x00066ecc       0x5c ./lib/snmp.a(snmp_api.o)
                0x00066ecc                snmp_SetCfgSource
 .text.snmp_SetProtocol
                0x00066f28       0x18 ./lib/snmp.a(snmp_api.o)
                0x00066f28                snmp_SetProtocol
 .text.snmp_CheckValueType
                0x00066f40       0x7c ./lib/snmp.a(snmp_api.o)
                0x00066f40                snmp_CheckValueType
 .text.ReadDataFromFrontPanel
                0x00066fbc       0x20 ./lib/snmp.a(snmp_api.o)
                0x00066fbc                ReadDataFromFrontPanel
 .text.ReadPrintModelAndID
                0x00066fdc       0x20 ./lib/snmp.a(snmp_api.o)
                0x00066fdc                ReadPrintModelAndID
 .text.RunChangeIPAddress
                0x00066ffc       0x30 ./lib/snmp.a(snmp_api.o)
                0x00066ffc                RunChangeIPAddress
 .text.RunWriteDataToEEPROM
                0x0006702c       0x4c ./lib/snmp.a(snmp_api.o)
                0x0006702c                RunWriteDataToEEPROM
 .text.RunRestart
                0x00067078       0x30 ./lib/snmp.a(snmp_api.o)
                0x00067078                RunRestart
 .text.snmp_vars_init
                0x000670a8      0x29c ./lib/snmp.a(snmpvars.o)
                0x000670a8                snmp_vars_init
 .text.getStatPtr
                0x00067344      0x348 ./lib/snmp.a(snmpvars.o)
                0x00067344                getStatPtr
 .text.var_system
                0x0006768c      0x218 ./lib/snmp.a(snmpvars.o)
                0x0006768c                var_system
 .text.writeSystem
                0x000678a4      0x1bc ./lib/snmp.a(snmpvars.o)
 .text.var_ifEntry
                0x00067a60      0x340 ./lib/snmp.a(snmpvars.o)
                0x00067a60                var_ifEntry
 .text.var_ip   0x00067da0      0x268 ./lib/snmp.a(snmpvars.o)
                0x00067da0                var_ip
 .text.var_ipAddrEntry
                0x00068008      0x2e0 ./lib/snmp.a(snmpvars.o)
                0x00068008                var_ipAddrEntry
 .text.var_icmp
                0x000682e8      0x2d8 ./lib/snmp.a(snmpvars.o)
                0x000682e8                var_icmp
 .text.var_tcp  0x000685c0      0x244 ./lib/snmp.a(snmpvars.o)
                0x000685c0                var_tcp
 .text.var_udp  0x00068804      0x180 ./lib/snmp.a(snmpvars.o)
                0x00068804                var_udp
 .text.var_devstatus
                0x00068984      0x360 ./lib/snmp.a(snmpvars.o)
                0x00068984                var_devstatus
 .text.var_gdstatusEntry
                0x00068ce4      0x290 ./lib/snmp.a(snmpvars.o)
                0x00068ce4                var_gdstatusEntry
 .text.var_npsys
                0x00068f74      0x19c ./lib/snmp.a(snmpvars.o)
                0x00068f74                var_npsys
 .text.var_npconns
                0x00069110      0x1bc ./lib/snmp.a(snmpvars.o)
                0x00069110                var_npconns
 .text.var_npcfg
                0x000692cc      0x3c4 ./lib/snmp.a(snmpvars.o)
                0x000692cc                var_npcfg
 .text.var_nptcp
                0x00069690      0x164 ./lib/snmp.a(snmpvars.o)
                0x00069690                var_nptcp
 .text.var_npctl
                0x000697f4      0x1b4 ./lib/snmp.a(snmpvars.o)
                0x000697f4                var_npctl
 .text.var_npnpi
                0x000699a8      0x334 ./lib/snmp.a(snmpvars.o)
                0x000699a8                var_npnpi
 .text.var_npipx
                0x00069cdc      0x41c ./lib/snmp.a(snmpvars.o)
                0x00069cdc                var_npipx
 .text.var_npipxEntry
                0x0006a0f8      0x2bc ./lib/snmp.a(snmpvars.o)
                0x0006a0f8                var_npipxEntry
 .text.var_npcard11
                0x0006a3b4      0x140 ./lib/snmp.a(snmpvars.o)
                0x0006a3b4                var_npcard11
 .text.var_npcard12
                0x0006a4f4      0x178 ./lib/snmp.a(snmpvars.o)
                0x0006a4f4                var_npcard12
 .text.var_npcard13
                0x0006a66c      0x17c ./lib/snmp.a(snmpvars.o)
                0x0006a66c                var_npcard13
 .text.var_npcard17
                0x0006a7e8      0x148 ./lib/snmp.a(snmpvars.o)
                0x0006a7e8                var_npcard17
 .text.writeDeviceMib
                0x0006a930      0x234 ./lib/snmp.a(snmpvars.o)
 .text.writeNpCardMib
                0x0006ab64      0x554 ./lib/snmp.a(snmpvars.o)
 .text.mib_register
                0x0006b0b8       0x94 ./lib/snmp.a(snmpvars.o)
 .text.var_atEntry
                0x0006b14c       0x30 ./lib/snmp.a(snmpvars.o)
                0x0006b14c                var_atEntry
 .text.compare_tree
                0x0006b17c       0x6c ./lib/snmp.a(snmpvars.o)
 .text.compare  0x0006b1e8       0x84 ./lib/snmp.a(snmpvars.o)
 .text.SendTrap
                0x0006b26c      0x1b8 ./lib/snmp.a(snmptrap.o)
                0x0006b26c                SendTrap
 .text.JL_PutList
                0x0006b424      0x188 ./lib/psutility.a(joblog.o)
                0x0006b424                JL_PutList
 .text.JL_AddSize
                0x0006b5ac       0xa0 ./lib/psutility.a(joblog.o)
                0x0006b5ac                JL_AddSize
 .text.JL_EndList
                0x0006b64c       0x8c ./lib/psutility.a(joblog.o)
                0x0006b64c                JL_EndList
 .text.mail_alert
                0x0006b6d8      0x164 ./lib/psutility.a(alert.o)
                0x0006b6d8                mail_alert
 .text.smtp_alert
                0x0006b83c      0x354 ./lib/psutility.a(alert.o)
                0x0006b83c                smtp_alert
 .text.smtpsendfile
                0x0006bb90      0x164 ./lib/psutility.a(alert.o)
 .text.sendcmd  0x0006bcf4       0x40 ./lib/psutility.a(alert.o)
                0x0006bcf4                sendcmd
 .text.addlist  0x0006bd34       0x58 ./lib/psutility.a(alert.o)
                0x0006bd34                addlist
 .text.sendmail
                0x0006bd8c       0x54 ./lib/psutility.a(alert.o)
                0x0006bd8c                sendmail
 .text.getresp  0x0006bde0       0x7c ./lib/psutility.a(alert.o)
 .text.smtpsendheader
                0x0006be5c      0x100 ./lib/psutility.a(alert.o)
 .text.kmallocinit
                0x0006bf5c       0xcc ./lib/psutility.a(kmalloc.o)
 .text.kfree    0x0006c028       0xf0 ./lib/psutility.a(kmalloc.o)
                0x0006c028                kfree
 .text.kaligned_alloc
                0x0006c118      0x12c ./lib/psutility.a(kmalloc.o)
                0x0006c118                kaligned_alloc
 .text.kmalloc  0x0006c244       0xf4 ./lib/psutility.a(kmalloc.o)
                0x0006c244                kmalloc
 .text.kaligned_free
                0x0006c338       0x20 ./lib/psutility.a(kmalloc.o)
                0x0006c338                kaligned_free
 .text.star_serial_hw_init
                0x0006c358       0xec ./lib/uart.a(serial.o)
                0x0006c358                star_serial_hw_init
 .text.serial_setbrg
                0x0006c444      0x190 ./lib/uart.a(serial.o)
                0x0006c444                serial_setbrg
 .text.print_entry
                0x0006c5d4       0xe4 ./lib/uart.a(serial.o)
                0x0006c5d4                print_entry
 .text.debug_printf
                0x0006c6b8      0x704 ./lib/uart.a(serial.o)
                0x0006c6b8                debug_printf
 .text.serial_init
                0x0006cdbc       0x18 ./lib/uart.a(serial.o)
                0x0006cdbc                serial_init
 .text.serial_putc
                0x0006cdd4       0x54 ./lib/uart.a(serial.o)
                0x0006cdd4                serial_putc
 .text.print_init
                0x0006ce28       0x90 ./lib/uart.a(serial.o)
                0x0006ce28                print_init
 .text.WLanRecv
                0x0006ceb8      0x1f4 ./lib/rt3070.a(rt3070_dep.o)
                0x0006ceb8                WLanRecv
 .text.simple_strtol
                0x0006d0ac      0x1b0 ./lib/rt3070.a(rt3070_dep.o)
                0x0006d0ac                simple_strtol
 .text.SetAnySsid
                0x0006d25c      0x12c ./lib/rt3070.a(rt3070_dep.o)
                0x0006d25c                SetAnySsid
 .text.RTMPStartEMITx
                0x0006d388      0x1f0 ./lib/rt3070.a(rt3070_dep.o)
                0x0006d388                RTMPStartEMITx
 .text.stop_timer
                0x0006d578       0x9c ./lib/rt3070.a(rt3070_dep.o)
                0x0006d578                stop_timer
 .text.NdisAllocateSpinLock
                0x0006d614       0x14 ./lib/rt3070.a(rt3070_dep.o)
                0x0006d614                NdisAllocateSpinLock
 .text.NdisFreeSpinLock
                0x0006d628       0x20 ./lib/rt3070.a(rt3070_dep.o)
                0x0006d628                NdisFreeSpinLock
 .text.RTMP_SEM_LOCK
                0x0006d648       0x14 ./lib/rt3070.a(rt3070_dep.o)
                0x0006d648                RTMP_SEM_LOCK
 .text.RTMP_SEM_UNLOCK
                0x0006d65c       0x14 ./lib/rt3070.a(rt3070_dep.o)
                0x0006d65c                RTMP_SEM_UNLOCK
 .text.RTMP_IRQ_LOCK
                0x0006d670       0x28 ./lib/rt3070.a(rt3070_dep.o)
                0x0006d670                RTMP_IRQ_LOCK
 .text.RTMP_IRQ_UNLOCK
                0x0006d698       0x20 ./lib/rt3070.a(rt3070_dep.o)
                0x0006d698                RTMP_IRQ_UNLOCK
 .text.RTMP_SEM_EVENT_INIT_LOCKED
                0x0006d6b8       0x18 ./lib/rt3070.a(rt3070_dep.o)
                0x0006d6b8                RTMP_SEM_EVENT_INIT_LOCKED
 .text.RTMP_SEM_EVENT_INIT
                0x0006d6d0       0x18 ./lib/rt3070.a(rt3070_dep.o)
                0x0006d6d0                RTMP_SEM_EVENT_INIT
 .text.RTMP_SEM_EVENT_WAIT
                0x0006d6e8       0x14 ./lib/rt3070.a(rt3070_dep.o)
                0x0006d6e8                RTMP_SEM_EVENT_WAIT
 .text.RTMP_SEM_EVENT_UP
                0x0006d6fc       0x14 ./lib/rt3070.a(rt3070_dep.o)
                0x0006d6fc                RTMP_SEM_EVENT_UP
 .text.zot_timer_task
                0x0006d710       0xe0 ./lib/rt3070.a(rt3070_dep.o)
                0x0006d710                zot_timer_task
 .text.ZOT_Timer_init
                0x0006d7f0       0x80 ./lib/rt3070.a(rt3070_dep.o)
                0x0006d7f0                ZOT_Timer_init
 .text.mod_timer
                0x0006d870      0x10c ./lib/rt3070.a(rt3070_dep.o)
                0x0006d870                mod_timer
 .text.init_timer
                0x0006d97c       0x40 ./lib/rt3070.a(rt3070_dep.o)
                0x0006d97c                init_timer
 .text.add_timer
                0x0006d9bc      0x108 ./lib/rt3070.a(rt3070_dep.o)
                0x0006d9bc                add_timer
 .text.del_timer_sync
                0x0006dac4       0xa4 ./lib/rt3070.a(rt3070_dep.o)
                0x0006dac4                del_timer_sync
 .text.dev_alloc_skb
                0x0006db68       0xa8 ./lib/rt3070.a(rt3070_dep.o)
                0x0006db68                dev_alloc_skb
 .text.dev_kfree_skb_any
                0x0006dc10       0x28 ./lib/rt3070.a(rt3070_dep.o)
                0x0006dc10                dev_kfree_skb_any
 .text.skb_put  0x0006dc38       0x20 ./lib/rt3070.a(rt3070_dep.o)
                0x0006dc38                skb_put
 .text.aligned_alloc
                0x0006dc58       0x5c ./lib/rt3070.a(rt3070_dep.o)
                0x0006dc58                aligned_alloc
 .text.aligned_free
                0x0006dcb4       0x20 ./lib/rt3070.a(rt3070_dep.o)
                0x0006dcb4                aligned_free
 .text.disassoc_cmd_sw
                0x0006dcd4       0xac ./lib/rt3070.a(rt3070_dep.o)
                0x0006dcd4                disassoc_cmd_sw
 .text.skb_reserve
                0x0006dd80       0x1c ./lib/rt3070.a(rt3070_dep.o)
                0x0006dd80                skb_reserve
 .text.RTUSBMlmeUp
                0x0006dd9c       0x1c ./lib/rt3070.a(rt3070_dep.o)
                0x0006dd9c                RTUSBMlmeUp
 .text.RTCMDUp  0x0006ddb8       0x1c ./lib/rt3070.a(rt3070_dep.o)
                0x0006ddb8                RTCMDUp
 .text.skb_clone
                0x0006ddd4       0x10 ./lib/rt3070.a(rt3070_dep.o)
                0x0006ddd4                skb_clone
 .text.get_unaligned
                0x0006dde4       0x10 ./lib/rt3070.a(rt3070_dep.o)
                0x0006dde4                get_unaligned
 .text.emi_task
                0x0006ddf4       0xa0 ./lib/rt3070.a(rt3070_dep.o)
                0x0006ddf4                emi_task
 .text.RTMPStartEMIRx
                0x0006de94       0x50 ./lib/rt3070.a(rt3070_dep.o)
                0x0006de94                RTMPStartEMIRx
 .text.MlmeHardTransmitMgmtRing
                0x0006dee4      0x42c ./lib/rt3070.a(cmm_data.o)
                0x0006dee4                MlmeHardTransmitMgmtRing
 .text.TxPktClassification
                0x0006e310      0x148 ./lib/rt3070.a(cmm_data.o)
 .text.RTMP_FillTxBlkInfo
                0x0006e458      0x26c ./lib/rt3070.a(cmm_data.o)
                0x0006e458                RTMP_FillTxBlkInfo
 .text.RTMPDeQueuePacket
                0x0006e6c4      0x518 ./lib/rt3070.a(cmm_data.o)
                0x0006e6c4                RTMPDeQueuePacket
 .text.RTMPWriteTxWI
                0x0006ebdc      0x3a0 ./lib/rt3070.a(cmm_data.o)
                0x0006ebdc                RTMPWriteTxWI
 .text.RTMPWriteTxWI_Data
                0x0006ef7c      0x334 ./lib/rt3070.a(cmm_data.o)
                0x0006ef7c                RTMPWriteTxWI_Data
 .text.RTMPWriteTxWI_Cache
                0x0006f2b0      0x1fc ./lib/rt3070.a(cmm_data.o)
                0x0006f2b0                RTMPWriteTxWI_Cache
 .text.deaggregate_AMSDU_announce
                0x0006f4ac      0x340 ./lib/rt3070.a(cmm_data.o)
                0x0006f4ac                deaggregate_AMSDU_announce
 .text.MacTableInsertEntry
                0x0006f7ec      0x39c ./lib/rt3070.a(cmm_data.o)
                0x0006f7ec                MacTableInsertEntry
 .text.MacTableDeleteEntry
                0x0006fb88      0x1e8 ./lib/rt3070.a(cmm_data.o)
                0x0006fb88                MacTableDeleteEntry
 .text.RTMPCheckEtherType
                0x0006fd70      0x26c ./lib/rt3070.a(cmm_data.o)
                0x0006fd70                RTMPCheckEtherType
 .text.Update_Rssi_Sample
                0x0006ffdc      0x14c ./lib/rt3070.a(cmm_data.o)
                0x0006ffdc                Update_Rssi_Sample
 .text.Indicate_Legacy_Packet
                0x00070128      0x308 ./lib/rt3070.a(cmm_data.o)
                0x00070128                Indicate_Legacy_Packet
 .text.CmmRxRalinkFrameIndicate
                0x00070430      0x2f0 ./lib/rt3070.a(cmm_data.o)
                0x00070430                CmmRxRalinkFrameIndicate
 .text.RTMPDeFragmentDataFrame
                0x00070720      0x268 ./lib/rt3070.a(cmm_data.o)
                0x00070720                RTMPDeFragmentDataFrame
 .text.MlmeHardTransmit
                0x00070988       0x70 ./lib/rt3070.a(cmm_data.o)
                0x00070988                MlmeHardTransmit
 .text.RTMPCalcDuration
                0x000709f8       0xdc ./lib/rt3070.a(cmm_data.o)
                0x000709f8                RTMPCalcDuration
 .text.RTMPSuspendMsduTransmission
                0x00070ad4       0x44 ./lib/rt3070.a(cmm_data.o)
                0x00070ad4                RTMPSuspendMsduTransmission
 .text.RTMPResumeMsduTransmission
                0x00070b18       0x64 ./lib/rt3070.a(cmm_data.o)
                0x00070b18                RTMPResumeMsduTransmission
 .text.MiniportMMRequest
                0x00070b7c       0xec ./lib/rt3070.a(cmm_data.o)
                0x00070b7c                MiniportMMRequest
 .text.AssocParmFill
                0x00070c68       0x4c ./lib/rt3070.a(cmm_data.o)
                0x00070c68                AssocParmFill
 .text.DisassocParmFill
                0x00070cb4       0x30 ./lib/rt3070.a(cmm_data.o)
                0x00070cb4                DisassocParmFill
 .text.BA_Reorder_AMSDU_Annnounce
                0x00070ce4       0x1c ./lib/rt3070.a(cmm_data.o)
                0x00070ce4                BA_Reorder_AMSDU_Annnounce
 .text.Indicate_AMSDU_Packet
                0x00070d00       0x44 ./lib/rt3070.a(cmm_data.o)
                0x00070d00                Indicate_AMSDU_Packet
 .text.Indicate_EAPOL_Packet
                0x00070d44       0x2c ./lib/rt3070.a(cmm_data.o)
                0x00070d44                Indicate_EAPOL_Packet
 .text.CmmRxnonRalinkFrameIndicate
                0x00070d70       0x94 ./lib/rt3070.a(cmm_data.o)
                0x00070d70                CmmRxnonRalinkFrameIndicate
 .text.MacTableLookup
                0x00070e04       0x88 ./lib/rt3070.a(cmm_data.o)
                0x00070e04                MacTableLookup
 .text.RtmpUSB_WriteFragTxResource
                0x00070e8c      0x334 ./lib/rt3070.a(cmm_data_usb.o)
                0x00070e8c                RtmpUSB_WriteFragTxResource
 .text.RtmpUSB_WriteSingleTxResource
                0x000711c0      0x270 ./lib/rt3070.a(cmm_data_usb.o)
                0x000711c0                RtmpUSB_WriteSingleTxResource
 .text.RtmpUSB_WriteMultiTxResource
                0x00071430      0x210 ./lib/rt3070.a(cmm_data_usb.o)
                0x00071430                RtmpUSB_WriteMultiTxResource
 .text.RtmpUSB_FinalWriteTxResource
                0x00071640      0x14c ./lib/rt3070.a(cmm_data_usb.o)
                0x00071640                RtmpUSB_FinalWriteTxResource
 .text.RTMPCheckRxError
                0x0007178c      0x2a0 ./lib/rt3070.a(cmm_data_usb.o)
                0x0007178c                RTMPCheckRxError
 .text.GetPacketFromRxRing
                0x00071a2c      0x110 ./lib/rt3070.a(cmm_data_usb.o)
                0x00071a2c                GetPacketFromRxRing
 .text.RtmpUSBDataKickOut
                0x00071b3c       0x28 ./lib/rt3070.a(cmm_data_usb.o)
                0x00071b3c                RtmpUSBDataKickOut
 .text.RtmpUSBMgmtKickOut
                0x00071b64      0x11c ./lib/rt3070.a(cmm_data_usb.o)
                0x00071b64                RtmpUSBMgmtKickOut
 .text.RtmpUSBNullFrameKickOut
                0x00071c80      0x14c ./lib/rt3070.a(cmm_data_usb.o)
                0x00071c80                RtmpUSBNullFrameKickOut
 .text.RtmpUsbStaAsicForceWakeupTimeout
                0x00071dcc       0x6c ./lib/rt3070.a(cmm_data_usb.o)
                0x00071dcc                RtmpUsbStaAsicForceWakeupTimeout
 .text.RT28xxUsbStaAsicForceWakeup
                0x00071e38       0x70 ./lib/rt3070.a(cmm_data_usb.o)
                0x00071e38                RT28xxUsbStaAsicForceWakeup
 .text.RT28xxUsbStaAsicSleepThenAutoWakeup
                0x00071ea8       0x6c ./lib/rt3070.a(cmm_data_usb.o)
                0x00071ea8                RT28xxUsbStaAsicSleepThenAutoWakeup
 .text.RTMPSetPhyMode
                0x00071f14      0x3b4 ./lib/rt3070.a(cmm_info.o)
                0x00071f14                RTMPSetPhyMode
 .text.RTMPSetHT
                0x000722c8      0x6dc ./lib/rt3070.a(cmm_info.o)
                0x000722c8                RTMPSetHT
 .text.RTMPSetIndividualHT
                0x000729a4      0x200 ./lib/rt3070.a(cmm_info.o)
                0x000729a4                RTMPSetIndividualHT
 .text.RTMPUpdateHTIE
                0x00072ba4      0x15c ./lib/rt3070.a(cmm_info.o)
                0x00072ba4                RTMPUpdateHTIE
 .text.RTMPWPARemoveAllKeys
                0x00072d00       0x7c ./lib/rt3070.a(cmm_info.o)
                0x00072d00                RTMPWPARemoveAllKeys
 .text.Set_WirelessMode_Proc
                0x00072d7c       0xf8 ./lib/rt3070.a(cmm_info.o)
                0x00072d7c                Set_WirelessMode_Proc
 .text.Set_ResetStatCounter_Proc
                0x00072e74       0x58 ./lib/rt3070.a(cmm_info.o)
                0x00072e74                Set_ResetStatCounter_Proc
 .text.SetCommonHT
                0x00072ecc       0xbc ./lib/rt3070.a(cmm_info.o)
                0x00072ecc                SetCommonHT
 .text.RTMPSetKey
                0x00072f88      0x17c ./lib/rt3070.a(cmm_profile.o)
                0x00072f88                RTMPSetKey
 .text.HTParametersHook
                0x00073104      0x24c ./lib/rt3070.a(cmm_profile.o)
 .text.RTMPSetProfileParameters
                0x00073350      0x904 ./lib/rt3070.a(cmm_profile.o)
                0x00073350                RTMPSetProfileParameters
 .text.rstrtok  0x00073c54       0x88 ./lib/rt3070.a(cmm_profile.o)
                0x00073c54                rstrtok
 .text.PeerBeaconAndProbeRspSanity
                0x00073cdc      0x9d4 ./lib/rt3070.a(cmm_sanity.o)
                0x00073cdc                PeerBeaconAndProbeRspSanity
 .text.MlmeDlsReqSanity
                0x000746b0       0x28 ./lib/rt3070.a(cmm_sanity.o)
                0x000746b0                MlmeDlsReqSanity
 .text.PeerDlsReqSanity
                0x000746d8      0x1e8 ./lib/rt3070.a(cmm_sanity.o)
                0x000746d8                PeerDlsReqSanity
 .text.PeerDlsRspSanity
                0x000748c0      0x1e8 ./lib/rt3070.a(cmm_sanity.o)
                0x000748c0                PeerDlsRspSanity
 .text.PeerDlsTearDownSanity
                0x00074aa8       0x58 ./lib/rt3070.a(cmm_sanity.o)
                0x00074aa8                PeerDlsTearDownSanity
 .text.PeerProbeReqSanity
                0x00074b00       0xe0 ./lib/rt3070.a(cmm_sanity.o)
                0x00074b00                PeerProbeReqSanity
 .text.MlmeScanReqSanity
                0x00074be0       0x7c ./lib/rt3070.a(cmm_sanity.o)
                0x00074be0                MlmeScanReqSanity
 .text.PeerBeaconAndProbeRspSanity2
                0x00074c5c       0xd0 ./lib/rt3070.a(cmm_sanity.o)
                0x00074c5c                PeerBeaconAndProbeRspSanity2
 .text.PeerAddBAReqActionSanity
                0x00074d2c       0x78 ./lib/rt3070.a(cmm_sanity.o)
                0x00074d2c                PeerAddBAReqActionSanity
 .text.PeerAddBARspActionSanity
                0x00074da4       0x5c ./lib/rt3070.a(cmm_sanity.o)
                0x00074da4                PeerAddBARspActionSanity
 .text.PeerDelBAActionSanity
                0x00074e00       0x50 ./lib/rt3070.a(cmm_sanity.o)
                0x00074e00                PeerDelBAActionSanity
 .text.MlmeAssocReqSanity
                0x00074e50       0x48 ./lib/rt3070.a(cmm_sanity.o)
                0x00074e50                MlmeAssocReqSanity
 .text.MlmeAuthReqSanity
                0x00074e98       0x8c ./lib/rt3070.a(cmm_sanity.o)
                0x00074e98                MlmeAuthReqSanity
 .text.PeerAuthSanity
                0x00074f24       0xec ./lib/rt3070.a(cmm_sanity.o)
                0x00074f24                PeerAuthSanity
 .text.PeerDisassocSanity
                0x00075010       0x3c ./lib/rt3070.a(cmm_sanity.o)
                0x00075010                PeerDisassocSanity
 .text.PeerDeauthSanity
                0x0007504c       0x68 ./lib/rt3070.a(cmm_sanity.o)
                0x0007504c                PeerDeauthSanity
 .text.ChannelSanity
                0x000750b4       0x5c ./lib/rt3070.a(cmm_sanity.o)
                0x000750b4                ChannelSanity
 .text.MlmeDelBAReqSanity
                0x00075110       0x80 ./lib/rt3070.a(cmm_sanity.o)
                0x00075110                MlmeDelBAReqSanity
 .text.MlmeAddBAReqSanity
                0x00075190       0x40 ./lib/rt3070.a(cmm_sanity.o)
                0x00075190                MlmeAddBAReqSanity
 .text.BuildChannelList
                0x000751d0      0x540 ./lib/rt3070.a(cmm_sync.o)
                0x000751d0                BuildChannelList
 .text.ScanNextChannel
                0x00075710      0xa7c ./lib/rt3070.a(cmm_sync.o)
                0x00075710                ScanNextChannel
 .text.FirstChannel
                0x0007618c       0x1c ./lib/rt3070.a(cmm_sync.o)
                0x0007618c                FirstChannel
 .text.NextChannel
                0x000761a8       0x94 ./lib/rt3070.a(cmm_sync.o)
                0x000761a8                NextChannel
 .text.ChangeToCellPowerLimit
                0x0007623c       0x94 ./lib/rt3070.a(cmm_sync.o)
                0x0007623c                ChangeToCellPowerLimit
 .text.ConvertToRssi
                0x000762d0       0xd8 ./lib/rt3070.a(cmm_sync.o)
                0x000762d0                ConvertToRssi
 .text.WpaEAPOLKeyAction
                0x000763a8      0x238 ./lib/rt3070.a(cmm_wpa.o)
 .text.PeerWpaMessageSanity
                0x000765e0      0x43c ./lib/rt3070.a(cmm_wpa.o)
                0x000765e0                PeerWpaMessageSanity
 .text.WPAStart4WayHS
                0x00076a1c       0x14 ./lib/rt3070.a(cmm_wpa.o)
                0x00076a1c                WPAStart4WayHS
 .text.PeerPairMsg1Action
                0x00076a30      0x2f4 ./lib/rt3070.a(cmm_wpa.o)
                0x00076a30                PeerPairMsg1Action
 .text.PeerPairMsg2Action
                0x00076d24      0x34c ./lib/rt3070.a(cmm_wpa.o)
                0x00076d24                PeerPairMsg2Action
 .text.PeerPairMsg3Action
                0x00077070      0x31c ./lib/rt3070.a(cmm_wpa.o)
                0x00077070                PeerPairMsg3Action
 .text.PeerPairMsg4Action
                0x0007738c      0x10c ./lib/rt3070.a(cmm_wpa.o)
                0x0007738c                PeerPairMsg4Action
 .text.WPAStart2WayGroupHS
                0x00077498      0x234 ./lib/rt3070.a(cmm_wpa.o)
                0x00077498                WPAStart2WayGroupHS
 .text.PeerGroupMsg1Action
                0x000776cc      0x318 ./lib/rt3070.a(cmm_wpa.o)
                0x000776cc                PeerGroupMsg1Action
 .text.RtmpPasswordHash
                0x000779e4      0x230 ./lib/rt3070.a(cmm_wpa.o)
                0x000779e4                RtmpPasswordHash
 .text.WpaDerivePTK
                0x00077c14      0x2ac ./lib/rt3070.a(cmm_wpa.o)
                0x00077c14                WpaDerivePTK
 .text.WpaDeriveGTK
                0x00077ec0      0x1ac ./lib/rt3070.a(cmm_wpa.o)
                0x00077ec0                WpaDeriveGTK
 .text.GenRandom
                0x0007806c      0x1a4 ./lib/rt3070.a(cmm_wpa.o)
                0x0007806c                GenRandom
 .text.RTMPMakeRsnIeCipher
                0x00078210      0x40c ./lib/rt3070.a(cmm_wpa.o)
 .text.RTMPMakeRsnIeAKM
                0x0007861c      0x124 ./lib/rt3070.a(cmm_wpa.o)
 .text.RTMPMakeRSNIE
                0x00078740      0x16c ./lib/rt3070.a(cmm_wpa.o)
                0x00078740                RTMPMakeRSNIE
 .text.RTMPCheckRSNIE
                0x000788ac      0x140 ./lib/rt3070.a(cmm_wpa.o)
                0x000788ac                RTMPCheckRSNIE
 .text.RTMPParseEapolKeyData
                0x000789ec      0x298 ./lib/rt3070.a(cmm_wpa.o)
                0x000789ec                RTMPParseEapolKeyData
 .text.ConstructEapolMsg
                0x00078c84      0x298 ./lib/rt3070.a(cmm_wpa.o)
                0x00078c84                ConstructEapolMsg
 .text.ConstructEapolKeyData
                0x00078f1c      0x2ec ./lib/rt3070.a(cmm_wpa.o)
 .text.RTMPSwCipherKeySelection
                0x00079208       0xfc ./lib/rt3070.a(cmm_wpa.o)
                0x00079208                RTMPSwCipherKeySelection
 .text.PeerGroupMsg2Action
                0x00079304       0xcc ./lib/rt3070.a(cmm_wpa.o)
                0x00079304                PeerGroupMsg2Action
 .text.EnqueueStartForPSKExec
                0x000793d0       0x70 ./lib/rt3070.a(cmm_wpa.o)
                0x000793d0                EnqueueStartForPSKExec
 .text.MlmeDeAuthAction
                0x00079440      0x118 ./lib/rt3070.a(cmm_wpa.o)
                0x00079440                MlmeDeAuthAction
 .text.WpaStateMachineInit
                0x00079558       0xc0 ./lib/rt3070.a(cmm_wpa.o)
                0x00079558                WpaStateMachineInit
 .text.WpaMsgTypeSubst
                0x00079618       0x7c ./lib/rt3070.a(cmm_wpa.o)
                0x00079618                WpaMsgTypeSubst
 .text.KDF      0x00079694      0x134 ./lib/rt3070.a(cmm_wpa.o)
                0x00079694                KDF
 .text.RTMPInsertRSNIE
                0x000797c8      0x148 ./lib/rt3070.a(cmm_wpa.o)
                0x000797c8                RTMPInsertRSNIE
 .text.RTMPToWirelessSta
                0x00079910      0x134 ./lib/rt3070.a(cmm_wpa.o)
                0x00079910                RTMPToWirelessSta
 .text.RTMPCheckWPAframe
                0x00079a44       0xd0 ./lib/rt3070.a(cmm_wpa.o)
                0x00079a44                RTMPCheckWPAframe
 .text.WPA_ConstructKdeHdr
                0x00079b14       0x5c ./lib/rt3070.a(cmm_wpa.o)
                0x00079b14                WPA_ConstructKdeHdr
 .text.RTMPSoftDecryptionAction
                0x00079b70       0x98 ./lib/rt3070.a(cmm_wpa.o)
                0x00079b70                RTMPSoftDecryptionAction
 .text.WPAInstallPairwiseKey
                0x00079c08      0x13c ./lib/rt3070.a(cmm_wpa.o)
                0x00079c08                WPAInstallPairwiseKey
 .text.WPAInstallSharedKey
                0x00079d44      0x128 ./lib/rt3070.a(cmm_wpa.o)
                0x00079d44                WPAInstallSharedKey
 .text.RTMPSetWcidSecurityInfo
                0x00079e6c       0xd0 ./lib/rt3070.a(cmm_wpa.o)
                0x00079e6c                RTMPSetWcidSecurityInfo
 .text.CalculateMIC
                0x00079f3c      0x100 ./lib/rt3070.a(cmm_wpa.o)
                0x00079f3c                CalculateMIC
 .text.WpaEAPPacketAction
                0x0007a03c       0x10 ./lib/rt3070.a(cmm_wpa.o)
 .text.WpaEAPOLASFAlertAction
                0x0007a04c       0x10 ./lib/rt3070.a(cmm_wpa.o)
 .text.WpaEAPOLLogoffAction
                0x0007a05c       0x10 ./lib/rt3070.a(cmm_wpa.o)
 .text.WpaEAPOLStartAction
                0x0007a06c       0xe4 ./lib/rt3070.a(cmm_wpa.o)
 .text.WpaProfileInit
                0x0007a150      0x1dc ./lib/rt3070.a(cmm_wpa_adhoc.o)
                0x0007a150                WpaProfileInit
 .text.WpaProfileRelease
                0x0007a32c       0xf4 ./lib/rt3070.a(cmm_wpa_adhoc.o)
                0x0007a32c                WpaProfileRelease
 .text.Adhoc_WpaEAPOLStartAction
                0x0007a420      0x214 ./lib/rt3070.a(cmm_wpa_adhoc.o)
                0x0007a420                Adhoc_WpaEAPOLStartAction
 .text.Adhoc_WpaEAPOLKeyAction
                0x0007a634      0x390 ./lib/rt3070.a(cmm_wpa_adhoc.o)
                0x0007a634                Adhoc_WpaEAPOLKeyAction
 .text.Adhoc_PeerWpaMessageSanity
                0x0007a9c4      0x45c ./lib/rt3070.a(cmm_wpa_adhoc.o)
                0x0007a9c4                Adhoc_PeerWpaMessageSanity
 .text.WpaPeerPairMsg1Send
                0x0007ae20      0x264 ./lib/rt3070.a(cmm_wpa_adhoc.o)
 .text.WpaPeerPairMsg2Send
                0x0007b084      0x154 ./lib/rt3070.a(cmm_wpa_adhoc.o)
 .text.WpaPeerPairMsg3Send
                0x0007b1d8      0x1e4 ./lib/rt3070.a(cmm_wpa_adhoc.o)
 .text.WpaPeerPairMsg2Action
                0x0007b3bc      0x178 ./lib/rt3070.a(cmm_wpa_adhoc.o)
 .text.Wpa4WayComplete
                0x0007b534      0x174 ./lib/rt3070.a(cmm_wpa_adhoc.o)
 .text.Adhoc_WpaRetryExec
                0x0007b6a8      0x1a0 ./lib/rt3070.a(cmm_wpa_adhoc.o)
                0x0007b6a8                Adhoc_WpaRetryExec
 .text.Adhoc_ConstructEapolMsg
                0x0007b848      0x2c0 ./lib/rt3070.a(cmm_wpa_adhoc.o)
                0x0007b848                Adhoc_ConstructEapolMsg
 .text.Adhoc_ConstructEapolKeyData
                0x0007bb08      0x2bc ./lib/rt3070.a(cmm_wpa_adhoc.o)
                0x0007bb08                Adhoc_ConstructEapolKeyData
 .text.WpaProfileReset
                0x0007bdc4       0x78 ./lib/rt3070.a(cmm_wpa_adhoc.o)
                0x0007bdc4                WpaProfileReset
 .text.WpaEAPOLKeySend
                0x0007be3c       0xf0 ./lib/rt3070.a(cmm_wpa_adhoc.o)
 .text.WpaPeerPairMsg4Send
                0x0007bf2c      0x118 ./lib/rt3070.a(cmm_wpa_adhoc.o)
 .text.WpaPeerPairMsg1Action
                0x0007c044      0x138 ./lib/rt3070.a(cmm_wpa_adhoc.o)
 .text.WpaPeerPairMsg3Action
                0x0007c17c      0x140 ./lib/rt3070.a(cmm_wpa_adhoc.o)
 .text.WpaPeerPairMsg4Action
                0x0007c2bc       0xb8 ./lib/rt3070.a(cmm_wpa_adhoc.o)
 .text.MlmeCntlMachinePerformAction
                0x0007c374      0x1c0 ./lib/rt3070.a(connect.o)
                0x0007c374                MlmeCntlMachinePerformAction
 .text.CntlIdleProc
                0x0007c534      0x190 ./lib/rt3070.a(connect.o)
                0x0007c534                CntlIdleProc
 .text.CntlOidScanProc
                0x0007c6c4      0x15c ./lib/rt3070.a(connect.o)
                0x0007c6c4                CntlOidScanProc
 .text.CntlOidSsidProc
                0x0007c820      0x520 ./lib/rt3070.a(connect.o)
                0x0007c820                CntlOidSsidProc
 .text.CntlOidRTBssidProc
                0x0007cd40      0x4bc ./lib/rt3070.a(connect.o)
                0x0007cd40                CntlOidRTBssidProc
 .text.CntlOidDLSSetupProc
                0x0007d1fc      0x418 ./lib/rt3070.a(connect.o)
                0x0007d1fc                CntlOidDLSSetupProc
 .text.CntlWaitDisassocProc
                0x0007d614      0x17c ./lib/rt3070.a(connect.o)
                0x0007d614                CntlWaitDisassocProc
 .text.CntlWaitJoinProc
                0x0007d790      0x184 ./lib/rt3070.a(connect.o)
                0x0007d790                CntlWaitJoinProc
 .text.CntlWaitStartProc
                0x0007d914      0x36c ./lib/rt3070.a(connect.o)
                0x0007d914                CntlWaitStartProc
 .text.CntlWaitAuthProc2
                0x0007dc80      0x150 ./lib/rt3070.a(connect.o)
                0x0007dc80                CntlWaitAuthProc2
 .text.AdhocTurnOnQos
                0x0007ddd0       0xf4 ./lib/rt3070.a(connect.o)
                0x0007ddd0                AdhocTurnOnQos
 .text.LinkUp   0x0007dec4     0x16a8 ./lib/rt3070.a(connect.o)
                0x0007dec4                LinkUp
 .text.LinkDown
                0x0007f56c      0x8e8 ./lib/rt3070.a(connect.o)
                0x0007f56c                LinkDown
 .text.IterateOnBssTab
                0x0007fe54      0x29c ./lib/rt3070.a(connect.o)
                0x0007fe54                IterateOnBssTab
 .text.ComposePsPoll
                0x000800f0      0x18c ./lib/rt3070.a(connect.o)
                0x000800f0                ComposePsPoll
 .text.ComposeNullFrame
                0x0008027c      0x198 ./lib/rt3070.a(connect.o)
                0x0008027c                ComposeNullFrame
 .text.MakeIbssBeacon
                0x00080414      0x6ec ./lib/rt3070.a(connect.o)
                0x00080414                MakeIbssBeacon
 .text.InitChannelRelatedValue
                0x00080b00      0x384 ./lib/rt3070.a(connect.o)
                0x00080b00                InitChannelRelatedValue
 .text.DlsParmFill
                0x00080e84       0x18 ./lib/rt3070.a(connect.o)
                0x00080e84                DlsParmFill
 .text.MlmeCntlConfirm
                0x00080e9c       0x38 ./lib/rt3070.a(connect.o)
                0x00080e9c                MlmeCntlConfirm
 .text.MlmeCntlInit
                0x00080ed4       0x20 ./lib/rt3070.a(connect.o)
                0x00080ed4                MlmeCntlInit
 .text.CntlMlmeRoamingProc
                0x00080ef4       0xb8 ./lib/rt3070.a(connect.o)
                0x00080ef4                CntlMlmeRoamingProc
 .text.CntlWaitReassocProc
                0x00080fac       0x90 ./lib/rt3070.a(connect.o)
                0x00080fac                CntlWaitReassocProc
 .text.CntlWaitAuthProc
                0x0008103c      0x134 ./lib/rt3070.a(connect.o)
                0x0008103c                CntlWaitAuthProc
 .text.CntlWaitAssocProc
                0x00081170       0x90 ./lib/rt3070.a(connect.o)
                0x00081170                CntlWaitAssocProc
 .text.IterateOnBssTab2
                0x00081200      0x108 ./lib/rt3070.a(connect.o)
                0x00081200                IterateOnBssTab2
 .text.JoinParmFill
                0x00081308       0x14 ./lib/rt3070.a(connect.o)
                0x00081308                JoinParmFill
 .text.ScanParmFill
                0x0008131c       0x58 ./lib/rt3070.a(connect.o)
                0x0008131c                ScanParmFill
 .text.StartParmFill
                0x00081374       0x30 ./lib/rt3070.a(connect.o)
                0x00081374                StartParmFill
 .text.AuthParmFill
                0x000813a4       0x38 ./lib/rt3070.a(connect.o)
                0x000813a4                AuthParmFill
 .text.CntlWscIterate
                0x000813dc       0x84 ./lib/rt3070.a(connect.o)
                0x000813dc                CntlWscIterate
 .text.RT_AES_KeyExpansion
                0x00081460      0x1d0 ./lib/rt3070.a(crypt_aes.o)
                0x00081460                RT_AES_KeyExpansion
 .text.RT_AES_Encrypt
                0x00081630      0x588 ./lib/rt3070.a(crypt_aes.o)
                0x00081630                RT_AES_Encrypt
 .text.RT_AES_Decrypt
                0x00081bb8      0x5d4 ./lib/rt3070.a(crypt_aes.o)
                0x00081bb8                RT_AES_Decrypt
 .text.AES_CCM_MAC
                0x0008218c      0x398 ./lib/rt3070.a(crypt_aes.o)
                0x0008218c                AES_CCM_MAC
 .text.AES_CCM_Decrypt
                0x00082524      0x250 ./lib/rt3070.a(crypt_aes.o)
                0x00082524                AES_CCM_Decrypt
 .text.AES_CMAC_GenerateSubKey
                0x00082774      0x130 ./lib/rt3070.a(crypt_aes.o)
                0x00082774                AES_CMAC_GenerateSubKey
 .text.AES_CMAC
                0x000828a4      0x1e8 ./lib/rt3070.a(crypt_aes.o)
                0x000828a4                AES_CMAC
 .text.AES_CBC_Encrypt
                0x00082a8c      0x234 ./lib/rt3070.a(crypt_aes.o)
                0x00082a8c                AES_CBC_Encrypt
 .text.AES_Key_Wrap
                0x00082cc0      0x1b0 ./lib/rt3070.a(crypt_aes.o)
                0x00082cc0                AES_Key_Wrap
 .text.AES_Key_Unwrap
                0x00082e70      0x18c ./lib/rt3070.a(crypt_aes.o)
                0x00082e70                AES_Key_Unwrap
 .text.AES_CBC_Decrypt
                0x00082ffc      0x134 ./lib/rt3070.a(crypt_aes.o)
                0x00082ffc                AES_CBC_Decrypt
 .text.RT_HMAC_SHA1
                0x00083130      0x168 ./lib/rt3070.a(crypt_hmac.o)
                0x00083130                RT_HMAC_SHA1
 .text.RT_HMAC_SHA256
                0x00083298      0x168 ./lib/rt3070.a(crypt_hmac.o)
                0x00083298                RT_HMAC_SHA256
 .text.RT_HMAC_MD5
                0x00083400      0x168 ./lib/rt3070.a(crypt_hmac.o)
                0x00083400                RT_HMAC_MD5
 .text.RT_MD5_Hash
                0x00083568      0xda8 ./lib/rt3070.a(crypt_md5.o)
                0x00083568                RT_MD5_Hash
 .text.RT_MD5   0x00084310      0x18c ./lib/rt3070.a(crypt_md5.o)
                0x00084310                RT_MD5
 .text.RT_MD5_Init
                0x0008449c       0x4c ./lib/rt3070.a(crypt_md5.o)
                0x0008449c                RT_MD5_Init
 .text.RT_MD5_Append
                0x000844e8       0xb0 ./lib/rt3070.a(crypt_md5.o)
                0x000844e8                RT_MD5_Append
 .text.RT_MD5_End
                0x00084598       0x9c ./lib/rt3070.a(crypt_md5.o)
                0x00084598                RT_MD5_End
 .text.RT_SHA1_Hash
                0x00084634      0x27c ./lib/rt3070.a(crypt_sha2.o)
                0x00084634                RT_SHA1_Hash
 .text.RT_SHA1_End
                0x000848b0      0x2f8 ./lib/rt3070.a(crypt_sha2.o)
                0x000848b0                RT_SHA1_End
 .text.RT_SHA256_Hash
                0x00084ba8      0x23c ./lib/rt3070.a(crypt_sha2.o)
                0x00084ba8                RT_SHA256_Hash
 .text.RT_SHA256_End
                0x00084de4      0x2f8 ./lib/rt3070.a(crypt_sha2.o)
                0x00084de4                RT_SHA256_End
 .text.RT_SHA1_Init
                0x000850dc       0x4c ./lib/rt3070.a(crypt_sha2.o)
                0x000850dc                RT_SHA1_Init
 .text.RT_SHA1_Append
                0x00085128       0xb0 ./lib/rt3070.a(crypt_sha2.o)
                0x00085128                RT_SHA1_Append
 .text.RT_SHA1  0x000851d8      0x10c ./lib/rt3070.a(crypt_sha2.o)
                0x000851d8                RT_SHA1
 .text.RT_SHA256_Init
                0x000852e4       0x4c ./lib/rt3070.a(crypt_sha2.o)
                0x000852e4                RT_SHA256_Init
 .text.RT_SHA256_Append
                0x00085330       0xb0 ./lib/rt3070.a(crypt_sha2.o)
                0x00085330                RT_SHA256_Append
 .text.RT_SHA256
                0x000853e0      0x10c ./lib/rt3070.a(crypt_sha2.o)
                0x000853e0                RT_SHA256
 .text.RadarChannelCheck
                0x000854ec       0x84 ./lib/rt3070.a(dfs.o)
                0x000854ec                RadarChannelCheck
 .text.MlmeDlsReqAction
                0x00085570      0x254 ./lib/rt3070.a(dls.o)
                0x00085570                MlmeDlsReqAction
 .text.PeerDlsReqAction
                0x000857c4      0xeb4 ./lib/rt3070.a(dls.o)
                0x000857c4                PeerDlsReqAction
 .text.PeerDlsRspAction
                0x00086678     0x14d8 ./lib/rt3070.a(dls.o)
                0x00086678                PeerDlsRspAction
 .text.MlmeDlsTearDownAction
                0x00087b50      0x210 ./lib/rt3070.a(dls.o)
                0x00087b50                MlmeDlsTearDownAction
 .text.PeerDlsTearDownAction
                0x00087d60      0x174 ./lib/rt3070.a(dls.o)
                0x00087d60                PeerDlsTearDownAction
 .text.RTMPCheckDLSTimeOut
                0x00087ed4      0x1b4 ./lib/rt3070.a(dls.o)
                0x00087ed4                RTMPCheckDLSTimeOut
 .text.RTMPRcvFrameDLSCheck
                0x00088088      0x788 ./lib/rt3070.a(dls.o)
                0x00088088                RTMPRcvFrameDLSCheck
 .text.RTMPCheckDLSFrame
                0x00088810      0x120 ./lib/rt3070.a(dls.o)
                0x00088810                RTMPCheckDLSFrame
 .text.RTMPSendDLSTearDownFrame
                0x00088930      0x208 ./lib/rt3070.a(dls.o)
                0x00088930                RTMPSendDLSTearDownFrame
 .text.RTMPSendSTAKeyRequest
                0x00088b38      0x38c ./lib/rt3070.a(dls.o)
                0x00088b38                RTMPSendSTAKeyRequest
 .text.RTMPSendSTAKeyHandShake
                0x00088ec4      0x38c ./lib/rt3070.a(dls.o)
                0x00088ec4                RTMPSendSTAKeyHandShake
 .text.MacTableInsertDlsEntry
                0x00089250      0x120 ./lib/rt3070.a(dls.o)
                0x00089250                MacTableInsertDlsEntry
 .text.DlsStateMachineInit
                0x00089370      0x118 ./lib/rt3070.a(dls.o)
                0x00089370                DlsStateMachineInit
 .text.DlsTimeoutAction
                0x00089488       0x78 ./lib/rt3070.a(dls.o)
                0x00089488                DlsTimeoutAction
 .text.MacTableDeleteDlsEntry
                0x00089500       0x3c ./lib/rt3070.a(dls.o)
                0x00089500                MacTableDeleteDlsEntry
 .text.DlsEntryTableLookup
                0x0008953c       0xb0 ./lib/rt3070.a(dls.o)
                0x0008953c                DlsEntryTableLookup
 .text.MlmeInit
                0x000895ec      0x1ec ./lib/rt3070.a(mlme.o)
                0x000895ec                MlmeInit
 .text.MlmeHandler
                0x000897d8      0x324 ./lib/rt3070.a(mlme.o)
                0x000897d8                MlmeHandler
 .text.MlmeHalt
                0x00089afc      0x198 ./lib/rt3070.a(mlme.o)
                0x00089afc                MlmeHalt
 .text.MlmePeriodicExec
                0x00089c94      0x5d8 ./lib/rt3070.a(mlme.o)
                0x00089c94                MlmePeriodicExec
 .text.MlmeSelectTxRateTable
                0x0008a26c      0x44c ./lib/rt3070.a(mlme.o)
                0x0008a26c                MlmeSelectTxRateTable
 .text.STAMlmePeriodicExec
                0x0008a6b8      0xda4 ./lib/rt3070.a(mlme.o)
                0x0008a6b8                STAMlmePeriodicExec
 .text.MlmeAutoReconnectLastSSID
                0x0008b45c      0x214 ./lib/rt3070.a(mlme.o)
                0x0008b45c                MlmeAutoReconnectLastSSID
 .text.MlmeCheckForFastRoaming
                0x0008b670      0x1d8 ./lib/rt3070.a(mlme.o)
                0x0008b670                MlmeCheckForFastRoaming
 .text.MlmeSetTxRate
                0x0008b848      0x45c ./lib/rt3070.a(mlme.o)
                0x0008b848                MlmeSetTxRate
 .text.MlmeDynamicTxRateSwitching
                0x0008bca4      0xdf8 ./lib/rt3070.a(mlme.o)
                0x0008bca4                MlmeDynamicTxRateSwitching
 .text.StaQuickResponeForRateUpExec
                0x0008ca9c      0x598 ./lib/rt3070.a(mlme.o)
                0x0008ca9c                StaQuickResponeForRateUpExec
 .text.MlmeCalculateChannelQuality
                0x0008d034      0x1d4 ./lib/rt3070.a(mlme.o)
                0x0008d034                MlmeCalculateChannelQuality
 .text.UpdateBasicRateBitmap
                0x0008d208      0x104 ./lib/rt3070.a(mlme.o)
                0x0008d208                UpdateBasicRateBitmap
 .text.MlmeUpdateTxRates
                0x0008d30c      0xe48 ./lib/rt3070.a(mlme.o)
                0x0008d30c                MlmeUpdateTxRates
 .text.MlmeUpdateHtTxRates
                0x0008e154      0x410 ./lib/rt3070.a(mlme.o)
                0x0008e154                MlmeUpdateHtTxRates
 .text.BssSsidTableSearch
                0x0008e564       0xc8 ./lib/rt3070.a(mlme.o)
                0x0008e564                BssSsidTableSearch
 .text.BssTableSearchWithSSID
                0x0008e62c      0x104 ./lib/rt3070.a(mlme.o)
                0x0008e62c                BssTableSearchWithSSID
 .text.BssTableDeleteEntry
                0x0008e730      0x19c ./lib/rt3070.a(mlme.o)
                0x0008e730                BssTableDeleteEntry
 .text.BssEntrySet
                0x0008e8cc      0x574 ./lib/rt3070.a(mlme.o)
                0x0008e8cc                BssEntrySet
 .text.BssTableSetEntry
                0x0008ee40      0x4c8 ./lib/rt3070.a(mlme.o)
                0x0008ee40                BssTableSetEntry
 .text.TriEventTableSetEntry
                0x0008f308      0x10c ./lib/rt3070.a(mlme.o)
                0x0008f308                TriEventTableSetEntry
 .text.BssTableSsidSort
                0x0008f414      0x6c4 ./lib/rt3070.a(mlme.o)
                0x0008f414                BssTableSsidSort
 .text.BssTableSortByRssi
                0x0008fad8       0xec ./lib/rt3070.a(mlme.o)
                0x0008fad8                BssTableSortByRssi
 .text.BssCipherParse
                0x0008fbc4      0x4b8 ./lib/rt3070.a(mlme.o)
                0x0008fbc4                BssCipherParse
 .text.MakeOutgoingFrame
                0x0009007c       0x50 ./lib/rt3070.a(mlme.o)
                0x0009007c                MakeOutgoingFrame
 .text.MlmeEnqueue
                0x000900cc      0x130 ./lib/rt3070.a(mlme.o)
                0x000900cc                MlmeEnqueue
 .text.MlmeEnqueueForRecv
                0x000901fc      0x1e8 ./lib/rt3070.a(mlme.o)
                0x000901fc                MlmeEnqueueForRecv
 .text.MlmeRestartStateMachine
                0x000903e4      0x140 ./lib/rt3070.a(mlme.o)
                0x000903e4                MlmeRestartStateMachine
 .text.MsgTypeSubst
                0x00090524      0x25c ./lib/rt3070.a(mlme.o)
                0x00090524                MsgTypeSubst
 .text.RTMPCheckHt
                0x00090780      0x580 ./lib/rt3070.a(mlme.o)
                0x00090780                RTMPCheckHt
 .text.RTMPUpdateMlmeRate
                0x00090d00      0x308 ./lib/rt3070.a(mlme.o)
                0x00090d00                RTMPUpdateMlmeRate
 .text.AsicEvaluateRxAnt
                0x00091008      0x1f0 ./lib/rt3070.a(mlme.o)
                0x00091008                AsicEvaluateRxAnt
 .text.AsicRxAntEvalTimeout
                0x000911f8      0x2a0 ./lib/rt3070.a(mlme.o)
                0x000911f8                AsicRxAntEvalTimeout
 .text.AsicStaBbpTuning
                0x00091498      0x3e4 ./lib/rt3070.a(mlme.o)
                0x00091498                AsicStaBbpTuning
 .text.RTMPSetAGCInitValue
                0x0009187c      0x188 ./lib/rt3070.a(mlme.o)
                0x0009187c                RTMPSetAGCInitValue
 .text.MacAddrRandomBssid
                0x00091a04       0x44 ./lib/rt3070.a(mlme.o)
                0x00091a04                MacAddrRandomBssid
 .text.MgtMacHeaderInit
                0x00091a48       0x9c ./lib/rt3070.a(mlme.o)
                0x00091a48                MgtMacHeaderInit
 .text.MlmeRadioOff
                0x00091ae4       0x14 ./lib/rt3070.a(mlme.o)
                0x00091ae4                MlmeRadioOff
 .text.MlmeRadioOn
                0x00091af8       0x14 ./lib/rt3070.a(mlme.o)
                0x00091af8                MlmeRadioOn
 .text.BssTableInit
                0x00091b0c       0x78 ./lib/rt3070.a(mlme.o)
                0x00091b0c                BssTableInit
 .text.BATableInit
                0x00091b84       0x78 ./lib/rt3070.a(mlme.o)
                0x00091b84                BATableInit
 .text.BssTableSearch
                0x00091bfc       0x94 ./lib/rt3070.a(mlme.o)
                0x00091bfc                BssTableSearch
 .text.TriEventInit
                0x00091c90       0x58 ./lib/rt3070.a(mlme.o)
                0x00091c90                TriEventInit
 .text.MlmeQueueInit
                0x00091ce8       0x78 ./lib/rt3070.a(mlme.o)
                0x00091ce8                MlmeQueueInit
 .text.MlmeQueueDestroy
                0x00091d60       0x40 ./lib/rt3070.a(mlme.o)
                0x00091d60                MlmeQueueDestroy
 .text.MlmeDequeue
                0x00091da0       0x6c ./lib/rt3070.a(mlme.o)
                0x00091da0                MlmeDequeue
 .text.MlmeQueueEmpty
                0x00091e0c       0x3c ./lib/rt3070.a(mlme.o)
                0x00091e0c                MlmeQueueEmpty
 .text.MlmeQueueFull
                0x00091e48       0x60 ./lib/rt3070.a(mlme.o)
                0x00091e48                MlmeQueueFull
 .text.StateMachineInit
                0x00091ea8       0x7c ./lib/rt3070.a(mlme.o)
                0x00091ea8                StateMachineInit
 .text.StateMachineSetAction
                0x00091f24       0x44 ./lib/rt3070.a(mlme.o)
                0x00091f24                StateMachineSetAction
 .text.StateMachinePerformAction
                0x00091f68       0x44 ./lib/rt3070.a(mlme.o)
                0x00091f68                StateMachinePerformAction
 .text.Drop     0x00091fac       0x10 ./lib/rt3070.a(mlme.o)
                0x00091fac                Drop
 .text.RandomByte
                0x00091fbc       0x90 ./lib/rt3070.a(mlme.o)
                0x00091fbc                RandomByte
 .text.LinkDownExec
                0x0009204c       0xb4 ./lib/rt3070.a(mlme.o)
                0x0009204c                LinkDownExec
 .text.MlmeAutoScan
                0x00092100       0x64 ./lib/rt3070.a(mlme.o)
                0x00092100                MlmeAutoScan
 .text.MlmeValidateSSID
                0x00092164       0x4c ./lib/rt3070.a(mlme.o)
                0x00092164                MlmeValidateSSID
 .text.MlmeCheckPsmChange
                0x000921b0      0x128 ./lib/rt3070.a(mlme.o)
                0x000921b0                MlmeCheckPsmChange
 .text.MlmeSetPsmBit
                0x000922d8       0x1c ./lib/rt3070.a(mlme.o)
                0x000922d8                MlmeSetPsmBit
 .text.MlmeSetTxPreamble
                0x000922f4       0x90 ./lib/rt3070.a(mlme.o)
                0x000922f4                MlmeSetTxPreamble
 .text.RTMPCheckRates
                0x00092384       0xc8 ./lib/rt3070.a(mlme.o)
                0x00092384                RTMPCheckRates
 .text.RTMPMaxRssi
                0x0009244c       0xbc ./lib/rt3070.a(mlme.o)
                0x0009244c                RTMPMaxRssi
 .text.RTMPCheckEntryEnableAutoRateSwitch
                0x00092508       0x6c ./lib/rt3070.a(mlme.o)
                0x00092508                RTMPCheckEntryEnableAutoRateSwitch
 .text.RTMPStaFixedTxMode
                0x00092574       0x24 ./lib/rt3070.a(mlme.o)
                0x00092574                RTMPStaFixedTxMode
 .text.RTMPUpdateLegacyTxSetting
                0x00092598       0x9c ./lib/rt3070.a(mlme.o)
                0x00092598                RTMPUpdateLegacyTxSetting
 .text.RTMPAutoRateSwitchCheck
                0x00092634       0x24 ./lib/rt3070.a(mlme.o)
                0x00092634                RTMPAutoRateSwitchCheck
 .text.CHAN_PropertyCheck
                0x00092658       0x6c ./lib/rt3070.a(mlme.o)
                0x00092658                CHAN_PropertyCheck
 .text.RTMPSetPiggyBack
                0x000926c4       0x5c ./lib/rt3070.a(mlme.o)
                0x000926c4                RTMPSetPiggyBack
 .text.ATETxPwrHandler
                0x00092720      0x2a0 ./lib/rt3070.a(rt_ate.o)
 .text.ATESTART
                0x000929c0      0x9a8 ./lib/rt3070.a(rt_ate.o)
 .text.ATESTOP  0x00093368      0x508 ./lib/rt3070.a(rt_ate.o)
 .text.TXCARR   0x00093870      0x1b8 ./lib/rt3070.a(rt_ate.o)
 .text.TXCARS   0x00093a28      0x1ec ./lib/rt3070.a(rt_ate.o)
 .text.TXCONT   0x00093c14      0x698 ./lib/rt3070.a(rt_ate.o)
 .text.TXFRAME  0x000942ac      0x3a8 ./lib/rt3070.a(rt_ate.o)
 .text.RXFRAME  0x00094654      0x314 ./lib/rt3070.a(rt_ate.o)
 .text.TXSTOP   0x00094968      0x3e8 ./lib/rt3070.a(rt_ate.o)
 .text.RXSTOP   0x00094d50      0x230 ./lib/rt3070.a(rt_ate.o)
 .text.ATECmdHandler
                0x00094f80      0x1b4 ./lib/rt3070.a(rt_ate.o)
 .text.Set_ATE_TX_BW_Proc
                0x00095134      0x62c ./lib/rt3070.a(rt_ate.o)
                0x00095134                Set_ATE_TX_BW_Proc
 .text.ATEAsicSwitchChannel
                0x00095760      0x8e0 ./lib/rt3070.a(rt_ate.o)
                0x00095760                ATEAsicSwitchChannel
 .text.ATEDisableAsicProtect
                0x00096040       0xf4 ./lib/rt3070.a(rt_ate.o)
                0x00096040                ATEDisableAsicProtect
 .text.ATESampleRssi
                0x00096134      0x278 ./lib/rt3070.a(rt_ate.o)
                0x00096134                ATESampleRssi
 .text.ATESetUpFrame
                0x000963ac      0x6bc ./lib/rt3070.a(rt_ate.o)
 .text.ATE_RTUSBBulkOutDataPacketComplete
                0x00096a68      0x280 ./lib/rt3070.a(rt_ate.o)
                0x00096a68                ATE_RTUSBBulkOutDataPacketComplete
 .text.ATE_RTUSBBulkOutDataPacket
                0x00096ce8       0xf8 ./lib/rt3070.a(rt_ate.o)
                0x00096ce8                ATE_RTUSBBulkOutDataPacket
 .text.ATE_RTUSBCancelPendingBulkInIRP
                0x00096de0       0x48 ./lib/rt3070.a(rt_ate.o)
                0x00096de0                ATE_RTUSBCancelPendingBulkInIRP
 .text.ATEResetBulkIn
                0x00096e28       0x8c ./lib/rt3070.a(rt_ate.o)
                0x00096e28                ATEResetBulkIn
 .text.ATEResetBulkOut
                0x00096eb4       0x9c ./lib/rt3070.a(rt_ate.o)
                0x00096eb4                ATEResetBulkOut
 .text.Set_ATE_Proc
                0x00096f50       0x20 ./lib/rt3070.a(rt_ate.o)
                0x00096f50                Set_ATE_Proc
 .text.Set_ATE_DA_Proc
                0x00096f70       0xc8 ./lib/rt3070.a(rt_ate.o)
                0x00096f70                Set_ATE_DA_Proc
 .text.Set_ATE_SA_Proc
                0x00097038       0xc8 ./lib/rt3070.a(rt_ate.o)
                0x00097038                Set_ATE_SA_Proc
 .text.Set_ATE_BSSID_Proc
                0x00097100       0xc4 ./lib/rt3070.a(rt_ate.o)
                0x00097100                Set_ATE_BSSID_Proc
 .text.Set_ATE_CHANNEL_Proc
                0x000971c4       0x3c ./lib/rt3070.a(rt_ate.o)
                0x000971c4                Set_ATE_CHANNEL_Proc
 .text.Set_ATE_TX_POWER0_Proc
                0x00097200       0x68 ./lib/rt3070.a(rt_ate.o)
                0x00097200                Set_ATE_TX_POWER0_Proc
 .text.Set_ATE_TX_LENGTH_Proc
                0x00097268       0x50 ./lib/rt3070.a(rt_ate.o)
                0x00097268                Set_ATE_TX_LENGTH_Proc
 .text.Set_ATE_TX_COUNT_Proc
                0x000972b8       0x34 ./lib/rt3070.a(rt_ate.o)
                0x000972b8                Set_ATE_TX_COUNT_Proc
 .text.Set_ATE_TX_MCS_Proc
                0x000972ec      0x118 ./lib/rt3070.a(rt_ate.o)
                0x000972ec                Set_ATE_TX_MCS_Proc
 .text.Set_ATE_TX_MODE_Proc
                0x00097404       0xa8 ./lib/rt3070.a(rt_ate.o)
                0x00097404                Set_ATE_TX_MODE_Proc
 .text.ATE_QA_Statistics
                0x000974ac       0xc8 ./lib/rt3070.a(rt_ate.o)
                0x000974ac                ATE_QA_Statistics
 .text.RTMPStationStop
                0x00097574       0x10 ./lib/rt3070.a(rt_ate.o)
                0x00097574                RTMPStationStop
 .text.RTMPStationStart
                0x00097584       0x10 ./lib/rt3070.a(rt_ate.o)
                0x00097584                RTMPStationStart
 .text.SetJapanFilter
                0x00097594       0x88 ./lib/rt3070.a(rt_ate.o)
 .text.N_ChannelCheck
                0x0009761c      0x26c ./lib/rt3070.a(rt_channel.o)
                0x0009761c                N_ChannelCheck
 .text.RTMPSendWirelessEvent
                0x00097888      0x200 ./lib/rt3070.a(rt_linux.o)
                0x00097888                RTMPSendWirelessEvent
 .text.send_monitor_packets
                0x00097a88      0x380 ./lib/rt3070.a(rt_linux.o)
                0x00097a88                send_monitor_packets
 .text.hex_dump
                0x00097e08       0x10 ./lib/rt3070.a(rt_linux.o)
                0x00097e08                hex_dump
 .text.RTMPFreeAdapter
                0x00097e18       0x90 ./lib/rt3070.a(rt_linux.o)
                0x00097e18                RTMPFreeAdapter
 .text.Sniff2BytesFromNdisBuffer
                0x00097ea8       0x2c ./lib/rt3070.a(rt_linux.o)
                0x00097ea8                Sniff2BytesFromNdisBuffer
 .text.RTMPAllocateNdisPacket
                0x00097ed4       0x8c ./lib/rt3070.a(rt_linux.o)
                0x00097ed4                RTMPAllocateNdisPacket
 .text.RTMPFreeNdisPacket
                0x00097f60       0x18 ./lib/rt3070.a(rt_linux.o)
                0x00097f60                RTMPFreeNdisPacket
 .text.RTMP_SetPeriodicTimer
                0x00097f78       0x1c ./lib/rt3070.a(rt_linux.o)
                0x00097f78                RTMP_SetPeriodicTimer
 .text.RTMP_OS_Init_Timer
                0x00097f94       0x2c ./lib/rt3070.a(rt_linux.o)
                0x00097f94                RTMP_OS_Init_Timer
 .text.RTMP_OS_Add_Timer
                0x00097fc0       0x1c ./lib/rt3070.a(rt_linux.o)
                0x00097fc0                RTMP_OS_Add_Timer
 .text.RTMP_OS_Mod_Timer
                0x00097fdc       0x14 ./lib/rt3070.a(rt_linux.o)
                0x00097fdc                RTMP_OS_Mod_Timer
 .text.RTMPusecDelay
                0x00097ff0       0x68 ./lib/rt3070.a(rt_linux.o)
                0x00097ff0                RTMPusecDelay
 .text.os_alloc_mem
                0x00098058       0x48 ./lib/rt3070.a(rt_linux.o)
                0x00098058                os_alloc_mem
 .text.os_free_mem
                0x000980a0       0x1c ./lib/rt3070.a(rt_linux.o)
                0x000980a0                os_free_mem
 .text.AdapterBlockAllocateMemory
                0x000980bc       0x5c ./lib/rt3070.a(rt_linux.o)
                0x000980bc                AdapterBlockAllocateMemory
 .text.RTMP_AllocateFragPacketBuffer
                0x00098118       0x28 ./lib/rt3070.a(rt_linux.o)
                0x00098118                RTMP_AllocateFragPacketBuffer
 .text.RTMP_QueryPacketInfo
                0x00098140       0x34 ./lib/rt3070.a(rt_linux.o)
                0x00098140                RTMP_QueryPacketInfo
 .text.announce_802_3_packet
                0x00098174       0x30 ./lib/rt3070.a(rt_linux.o)
                0x00098174                announce_802_3_packet
 .text.duplicate_pkt
                0x000981a4       0x5c ./lib/rt3070.a(rt_linux.o)
                0x000981a4                duplicate_pkt
 .text.duplicate_pkt_with_TKIP_MIC
                0x00098200       0x14 ./lib/rt3070.a(rt_linux.o)
                0x00098200                duplicate_pkt_with_TKIP_MIC
 .text.update_os_packet_info
                0x00098214       0x24 ./lib/rt3070.a(rt_linux.o)
                0x00098214                update_os_packet_info
 .text.wlan_802_11_to_802_3_packet
                0x00098238       0x48 ./lib/rt3070.a(rt_linux.o)
                0x00098238                wlan_802_11_to_802_3_packet
 .text.ClonePacket
                0x00098280       0x34 ./lib/rt3070.a(rt_linux.o)
                0x00098280                ClonePacket
 .text.RTMP_IndicateMediaState
                0x000982b4       0x70 ./lib/rt3070.a(rt_linux.o)
                0x000982b4                RTMP_IndicateMediaState
 .text.RtmpOSWrielessEventSend
                0x00098324       0x14 ./lib/rt3070.a(rt_linux.o)
                0x00098324                RtmpOSWrielessEventSend
 .text.RtmpOSNetDevAddrSet
                0x00098338       0x20 ./lib/rt3070.a(rt_linux.o)
                0x00098338                RtmpOSNetDevAddrSet
 .text.RtmpOSNetDevAttach
                0x00098358       0x14 ./lib/rt3070.a(rt_linux.o)
                0x00098358                RtmpOSNetDevAttach
 .text.RtmpOSNetDevFree
                0x0009836c       0x14 ./lib/rt3070.a(rt_linux.o)
                0x0009836c                RtmpOSNetDevFree
 .text.RtmpOSTaskCustomize
                0x00098380       0x10 ./lib/rt3070.a(rt_linux.o)
                0x00098380                RtmpOSTaskCustomize
 .text.RtmpOSTaskNotifyToExit
                0x00098390       0x14 ./lib/rt3070.a(rt_linux.o)
                0x00098390                RtmpOSTaskNotifyToExit
 .text.RtmpOSTaskInit
                0x000983a4       0x60 ./lib/rt3070.a(rt_linux.o)
                0x000983a4                RtmpOSTaskInit
 .text.RT30xxReadRFRegister
                0x00098404      0x104 ./lib/rt3070.a(rt_rf.o)
                0x00098404                RT30xxReadRFRegister
 .text.NICInitRFRegisters
                0x00098508       0x24 ./lib/rt3070.a(rt_rf.o)
                0x00098508                NICInitRFRegisters
 .text.RtmpChipOpsRFHook
                0x0009852c       0xdc ./lib/rt3070.a(rt_rf.o)
                0x0009852c                RtmpChipOpsRFHook
 .text.RT30xxWriteRFRegister
                0x00098608       0xcc ./lib/rt3070.a(rt_rf.o)
                0x00098608                RT30xxWriteRFRegister
 .text.RtmpMgmtTaskInit
                0x000986d4      0x158 ./lib/rt3070.a(rt_usb.o)
                0x000986d4                RtmpMgmtTaskInit
 .text.rtusb_dataout_complete
                0x0009882c      0x178 ./lib/rt3070.a(rt_usb.o)
 .text.rx_done_tasklet
                0x000989a4      0x15c ./lib/rt3070.a(rt_usb.o)
                0x000989a4                rx_done_tasklet
 .text.rtusb_mgmt_dma_done_tasklet
                0x00098b00      0x15c ./lib/rt3070.a(rt_usb.o)
                0x00098b00                rtusb_mgmt_dma_done_tasklet
 .text.RtmpNetTaskInit
                0x00098c5c       0x88 ./lib/rt3070.a(rt_usb.o)
                0x00098c5c                RtmpNetTaskInit
 .text.RtmpNetTaskExit
                0x00098ce4       0x10 ./lib/rt3070.a(rt_usb.o)
                0x00098ce4                RtmpNetTaskExit
 .text.RtmpMgmtTaskExit
                0x00098cf4       0x10 ./lib/rt3070.a(rt_usb.o)
                0x00098cf4                RtmpMgmtTaskExit
 .text.RTUSBBulkRxThread
                0x00098d04       0x58 ./lib/rt3070.a(rt_usb.o)
                0x00098d04                RTUSBBulkRxThread
 .text.rtusb_null_frame_done_tasklet
                0x00098d5c       0xf8 ./lib/rt3070.a(rt_usb.o)
                0x00098d5c                rtusb_null_frame_done_tasklet
 .text.rtusb_pspoll_frame_done_tasklet
                0x00098e54       0xc8 ./lib/rt3070.a(rt_usb.o)
                0x00098e54                rtusb_pspoll_frame_done_tasklet
 .text.rtusb_hcca_dma_done_tasklet
                0x00098f1c       0xac ./lib/rt3070.a(rt_usb.o)
                0x00098f1c                rtusb_hcca_dma_done_tasklet
 .text.rtusb_ac3_dma_done_tasklet
                0x00098fc8       0xb0 ./lib/rt3070.a(rt_usb.o)
                0x00098fc8                rtusb_ac3_dma_done_tasklet
 .text.rtusb_ac2_dma_done_tasklet
                0x00099078       0xb0 ./lib/rt3070.a(rt_usb.o)
                0x00099078                rtusb_ac2_dma_done_tasklet
 .text.rtusb_ac1_dma_done_tasklet
                0x00099128       0xac ./lib/rt3070.a(rt_usb.o)
                0x00099128                rtusb_ac1_dma_done_tasklet
 .text.rtusb_ac0_dma_done_tasklet
                0x000991d4       0xa4 ./lib/rt3070.a(rt_usb.o)
                0x000991d4                rtusb_ac0_dma_done_tasklet
 .text.STARxEAPOLFrameIndicate
                0x00099278      0x2f0 ./lib/rt3070.a(rtmp_data.o)
                0x00099278                STARxEAPOLFrameIndicate
 .text.STARxDataFrameAnnounce
                0x00099568      0x1b8 ./lib/rt3070.a(rtmp_data.o)
                0x00099568                STARxDataFrameAnnounce
 .text.STAHandleRxDataFrame
                0x00099720      0x784 ./lib/rt3070.a(rtmp_data.o)
                0x00099720                STAHandleRxDataFrame
 .text.STAHandleRxMgmtFrame
                0x00099ea4      0x374 ./lib/rt3070.a(rtmp_data.o)
                0x00099ea4                STAHandleRxMgmtFrame
 .text.STARxDoneInterruptHandle
                0x0009a218      0x2a4 ./lib/rt3070.a(rtmp_data.o)
                0x0009a218                STARxDoneInterruptHandle
 .text.STASendPackets
                0x0009a4bc      0x144 ./lib/rt3070.a(rtmp_data.o)
                0x0009a4bc                STASendPackets
 .text.STASendPacket
                0x0009a600      0x47c ./lib/rt3070.a(rtmp_data.o)
                0x0009a600                STASendPacket
 .text.RTMPSendNullFrame
                0x0009aa7c      0x1e8 ./lib/rt3070.a(rtmp_data.o)
                0x0009aa7c                RTMPSendNullFrame
 .text.STAFindCipherAlgorithm
                0x0009ac64      0x1a8 ./lib/rt3070.a(rtmp_data.o)
                0x0009ac64                STAFindCipherAlgorithm
 .text.STABuildCommon802_11Header
                0x0009ae0c      0x2d4 ./lib/rt3070.a(rtmp_data.o)
                0x0009ae0c                STABuildCommon802_11Header
 .text.STABuildCache802_11Header
                0x0009b0e0      0x180 ./lib/rt3070.a(rtmp_data.o)
                0x0009b0e0                STABuildCache802_11Header
 .text.STA_AMPDU_Frame_Tx
                0x0009b260      0x46c ./lib/rt3070.a(rtmp_data.o)
                0x0009b260                STA_AMPDU_Frame_Tx
 .text.STA_AMSDU_Frame_Tx
                0x0009b6cc      0x398 ./lib/rt3070.a(rtmp_data.o)
                0x0009b6cc                STA_AMSDU_Frame_Tx
 .text.STA_Legacy_Frame_Tx
                0x0009ba64      0x304 ./lib/rt3070.a(rtmp_data.o)
                0x0009ba64                STA_Legacy_Frame_Tx
 .text.STA_ARalink_Frame_Tx
                0x0009bd68      0x34c ./lib/rt3070.a(rtmp_data.o)
                0x0009bd68                STA_ARalink_Frame_Tx
 .text.STA_Fragment_Frame_Tx
                0x0009c0b4      0x4b8 ./lib/rt3070.a(rtmp_data.o)
                0x0009c0b4                STA_Fragment_Frame_Tx
 .text.STAHardTransmit
                0x0009c56c      0x21c ./lib/rt3070.a(rtmp_data.o)
                0x0009c56c                STAHardTransmit
 .text.RTMPFreeTXDRequest
                0x0009c788       0xa8 ./lib/rt3070.a(rtmp_data.o)
                0x0009c788                RTMPFreeTXDRequest
 .text.Sta_Announce_or_Forward_802_3_Packet
                0x0009c830       0x14 ./lib/rt3070.a(rtmp_data.o)
                0x0009c830                Sta_Announce_or_Forward_802_3_Packet
 .text.RTMPAllocAdapterBlock
                0x0009c844      0x178 ./lib/rt3070.a(rtmp_init.o)
                0x0009c844                RTMPAllocAdapterBlock
 .text.RTMPReadTxPwrPerRate
                0x0009c9bc      0x408 ./lib/rt3070.a(rtmp_init.o)
                0x0009c9bc                RTMPReadTxPwrPerRate
 .text.RTMPReadChannelPwr
                0x0009cdc4      0x454 ./lib/rt3070.a(rtmp_init.o)
                0x0009cdc4                RTMPReadChannelPwr
 .text.NICReadEEPROMParameters
                0x0009d218      0xb68 ./lib/rt3070.a(rtmp_init.o)
                0x0009d218                NICReadEEPROMParameters
 .text.NICInitAsicFromEEPROM
                0x0009dd80      0x5c0 ./lib/rt3070.a(rtmp_init.o)
                0x0009dd80                NICInitAsicFromEEPROM
 .text.NICInitializeAdapter
                0x0009e340      0x138 ./lib/rt3070.a(rtmp_init.o)
                0x0009e340                NICInitializeAdapter
 .text.NICInitializeAsic
                0x0009e478      0x71c ./lib/rt3070.a(rtmp_init.o)
                0x0009e478                NICInitializeAsic
 .text.NICUpdateFifoStaCounters
                0x0009eb94      0x264 ./lib/rt3070.a(rtmp_init.o)
                0x0009eb94                NICUpdateFifoStaCounters
 .text.NICUpdateRawCounters
                0x0009edf8      0x558 ./lib/rt3070.a(rtmp_init.o)
                0x0009edf8                NICUpdateRawCounters
 .text.UserCfgInit
                0x0009f350      0xb68 ./lib/rt3070.a(rtmp_init.o)
                0x0009f350                UserCfgInit
 .text.NICLoadFirmware
                0x0009feb8       0x30 ./lib/rt3070.a(rtmp_init.o)
                0x0009feb8                NICLoadFirmware
 .text.NICLoadRateSwitchingParams
                0x0009fee8       0x14 ./lib/rt3070.a(rtmp_init.o)
                0x0009fee8                NICLoadRateSwitchingParams
 .text.RTMPZeroMemory
                0x0009fefc       0x30 ./lib/rt3070.a(rtmp_init.o)
                0x0009fefc                RTMPZeroMemory
 .text.RTMPCompareMemory
                0x0009ff2c       0x4c ./lib/rt3070.a(rtmp_init.o)
                0x0009ff2c                RTMPCompareMemory
 .text.RTMPMoveMemory
                0x0009ff78       0x30 ./lib/rt3070.a(rtmp_init.o)
                0x0009ff78                RTMPMoveMemory
 .text.AtoH     0x0009ffa8       0xa4 ./lib/rt3070.a(rtmp_init.o)
                0x0009ffa8                AtoH
 .text.RTMPInitTimer
                0x000a004c       0x38 ./lib/rt3070.a(rtmp_init.o)
                0x000a004c                RTMPInitTimer
 .text.RTMPSetTimer
                0x000a0084       0x50 ./lib/rt3070.a(rtmp_init.o)
                0x000a0084                RTMPSetTimer
 .text.RTMPModTimer
                0x000a00d4       0x9c ./lib/rt3070.a(rtmp_init.o)
                0x000a00d4                RTMPModTimer
 .text.RTMPCancelTimer
                0x000a0170       0x54 ./lib/rt3070.a(rtmp_init.o)
                0x000a0170                RTMPCancelTimer
 .text.RTMPEnableRxTx
                0x000a01c4       0x6c ./lib/rt3070.a(rtmp_init.o)
                0x000a01c4                RTMPEnableRxTx
 .text.CfgInitHook
                0x000a0230       0x10 ./lib/rt3070.a(rtmp_init.o)
                0x000a0230                CfgInitHook
 .text.RtmpRaDevCtrlInit
                0x000a0240       0x94 ./lib/rt3070.a(rtmp_init.o)
                0x000a0240                RtmpRaDevCtrlInit
 .text.RTUSBReadBBPRegister
                0x000a02d4      0x20c ./lib/rt3070.a(rtusb_io.o)
                0x000a02d4                RTUSBReadBBPRegister
 .text.RTUSBWriteBBPRegister
                0x000a04e0      0x170 ./lib/rt3070.a(rtusb_io.o)
                0x000a04e0                RTUSBWriteBBPRegister
 .text.RTUSBWriteRFRegister
                0x000a0650      0x138 ./lib/rt3070.a(rtusb_io.o)
                0x000a0650                RTUSBWriteRFRegister
 .text.RTUSB_VendorRequest
                0x000a0788      0x218 ./lib/rt3070.a(rtusb_io.o)
                0x000a0788                RTUSB_VendorRequest
 .text.CheckGPIOHdlr
                0x000a09a0      0x124 ./lib/rt3070.a(rtusb_io.o)
                0x000a09a0                CheckGPIOHdlr
 .text.ResetBulkOutHdlr
                0x000a0ac4      0x43c ./lib/rt3070.a(rtusb_io.o)
 .text.ResetBulkInHdlr
                0x000a0f00      0x268 ./lib/rt3070.a(rtusb_io.o)
 .text.SetAsicWcidHdlr
                0x000a1168      0x1e0 ./lib/rt3070.a(rtusb_io.o)
 .text.CMDHandler
                0x000a1348      0x134 ./lib/rt3070.a(rtusb_io.o)
                0x000a1348                CMDHandler
 .text.RTUSBWatchDog
                0x000a147c      0x4f0 ./lib/rt3070.a(rtusb_io.o)
                0x000a147c                RTUSBWatchDog
 .text.RTUSBMultiWrite
                0x000a196c       0x7c ./lib/rt3070.a(rtusb_io.o)
                0x000a196c                RTUSBMultiWrite
 .text.RTUSBWriteMACRegister
                0x000a19e8       0x84 ./lib/rt3070.a(rtusb_io.o)
                0x000a19e8                RTUSBWriteMACRegister
 .text.RTUSBReadMACRegister
                0x000a1a6c       0x64 ./lib/rt3070.a(rtusb_io.o)
                0x000a1a6c                RTUSBReadMACRegister
 .text.RTUSBSingleWrite
                0x000a1ad0       0x44 ./lib/rt3070.a(rtusb_io.o)
                0x000a1ad0                RTUSBSingleWrite
 .text.RTUSBFirmwareWrite
                0x000a1b14       0xa0 ./lib/rt3070.a(rtusb_io.o)
                0x000a1b14                RTUSBFirmwareWrite
 .text.RTUSBVenderReset
                0x000a1bb4       0x34 ./lib/rt3070.a(rtusb_io.o)
                0x000a1bb4                RTUSBVenderReset
 .text.RTUSBReadEEPROM16
                0x000a1be8       0x58 ./lib/rt3070.a(rtusb_io.o)
                0x000a1be8                RTUSBReadEEPROM16
 .text.RTUSBWriteEEPROM16
                0x000a1c40       0x4c ./lib/rt3070.a(rtusb_io.o)
                0x000a1c40                RTUSBWriteEEPROM16
 .text.SetWcidSecInfoHdlr
                0x000a1c8c       0x3c ./lib/rt3070.a(rtusb_io.o)
 .text.SetAsicWcidIVEIVHdlr
                0x000a1cc8       0x24 ./lib/rt3070.a(rtusb_io.o)
 .text.SetAsicWcidAttrHdlr
                0x000a1cec       0x3c ./lib/rt3070.a(rtusb_io.o)
 .text.SETAsicSharedKeyHdlr
                0x000a1d28       0x28 ./lib/rt3070.a(rtusb_io.o)
 .text.SetAsicPairwiseKeyHdlr
                0x000a1d50       0x24 ./lib/rt3070.a(rtusb_io.o)
 .text.SetPortSecuredHdlr
                0x000a1d74       0x78 ./lib/rt3070.a(rtusb_io.o)
 .text.RemovePairwiseKeyHdlr
                0x000a1dec       0x20 ./lib/rt3070.a(rtusb_io.o)
 .text.SetClientMACEntryHdlr
                0x000a1e0c       0x24 ./lib/rt3070.a(rtusb_io.o)
 .text.UpdateProtectHdlr
                0x000a1e30       0x30 ./lib/rt3070.a(rtusb_io.o)
 .text.SetPSMBitHdlr
                0x000a1e60       0x20 ./lib/rt3070.a(rtusb_io.o)
 .text.ForceWakeUpHdlr
                0x000a1e80       0x1c ./lib/rt3070.a(rtusb_io.o)
 .text.ForceSleepAutoWakeupHdlr
                0x000a1e9c       0xf8 ./lib/rt3070.a(rtusb_io.o)
 .text.QkeriodicExecutHdlr
                0x000a1f94       0x28 ./lib/rt3070.a(rtusb_io.o)
                0x000a1f94                QkeriodicExecutHdlr
 .text.RtmpTimerQHandle
                0x000a1fbc      0x144 ./lib/rt3070.a(rtmp_timer.o)
 .text.rtmp_timer_MlmePeriodicExec
                0x000a2100       0x50 ./lib/rt3070.a(rtmp_timer.o)
                0x000a2100                rtmp_timer_MlmePeriodicExec
 .text.rtmp_timer_AsicRxAntEvalTimeout
                0x000a2150       0x50 ./lib/rt3070.a(rtmp_timer.o)
                0x000a2150                rtmp_timer_AsicRxAntEvalTimeout
 .text.rtmp_timer_EnqueueStartForPSKExec
                0x000a21a0       0x50 ./lib/rt3070.a(rtmp_timer.o)
                0x000a21a0                rtmp_timer_EnqueueStartForPSKExec
 .text.rtmp_timer_Adhoc_WpaRetryExec
                0x000a21f0       0x50 ./lib/rt3070.a(rtmp_timer.o)
                0x000a21f0                rtmp_timer_Adhoc_WpaRetryExec
 .text.rtmp_timer_BeaconTimeout
                0x000a2240       0x50 ./lib/rt3070.a(rtmp_timer.o)
                0x000a2240                rtmp_timer_BeaconTimeout
 .text.rtmp_timer_ScanTimeout
                0x000a2290       0x50 ./lib/rt3070.a(rtmp_timer.o)
                0x000a2290                rtmp_timer_ScanTimeout
 .text.rtmp_timer_AuthTimeout
                0x000a22e0       0x50 ./lib/rt3070.a(rtmp_timer.o)
                0x000a22e0                rtmp_timer_AuthTimeout
 .text.rtmp_timer_AssocTimeout
                0x000a2330       0x50 ./lib/rt3070.a(rtmp_timer.o)
                0x000a2330                rtmp_timer_AssocTimeout
 .text.rtmp_timer_ReassocTimeout
                0x000a2380       0x50 ./lib/rt3070.a(rtmp_timer.o)
                0x000a2380                rtmp_timer_ReassocTimeout
 .text.rtmp_timer_DisassocTimeout
                0x000a23d0       0x50 ./lib/rt3070.a(rtmp_timer.o)
                0x000a23d0                rtmp_timer_DisassocTimeout
 .text.rtmp_timer_LinkDownExec
                0x000a2420       0x50 ./lib/rt3070.a(rtmp_timer.o)
                0x000a2420                rtmp_timer_LinkDownExec
 .text.rtmp_timer_StaQuickResponeForRateUpExec
                0x000a2470       0x50 ./lib/rt3070.a(rtmp_timer.o)
                0x000a2470                rtmp_timer_StaQuickResponeForRateUpExec
 .text.rtmp_timer_WpaDisassocApAndBlockAssoc
                0x000a24c0       0x50 ./lib/rt3070.a(rtmp_timer.o)
                0x000a24c0                rtmp_timer_WpaDisassocApAndBlockAssoc
 .text.rtmp_timer_DlsTimeoutAction
                0x000a2510       0x50 ./lib/rt3070.a(rtmp_timer.o)
                0x000a2510                rtmp_timer_DlsTimeoutAction
 .text.rtmp_timer_TDLS_TimeoutAction
                0x000a2560       0x50 ./lib/rt3070.a(rtmp_timer.o)
                0x000a2560                rtmp_timer_TDLS_TimeoutAction
 .text.rtmp_timer_RtmpUsbStaAsicForceWakeupTimeout
                0x000a25b0       0x50 ./lib/rt3070.a(rtmp_timer.o)
                0x000a25b0                rtmp_timer_RtmpUsbStaAsicForceWakeupTimeout
 .text.rtmp_timer_WscEAPOLTimeOutAction
                0x000a2600       0x50 ./lib/rt3070.a(rtmp_timer.o)
                0x000a2600                rtmp_timer_WscEAPOLTimeOutAction
 .text.rtmp_timer_Wsc2MinsTimeOutAction
                0x000a2650       0x50 ./lib/rt3070.a(rtmp_timer.o)
                0x000a2650                rtmp_timer_Wsc2MinsTimeOutAction
 .text.rtmp_timer_WscUPnPMsgTimeOutAction
                0x000a26a0       0x50 ./lib/rt3070.a(rtmp_timer.o)
                0x000a26a0                rtmp_timer_WscUPnPMsgTimeOutAction
 .text.rtmp_timer_WscUPnPM2DTimeOutAction
                0x000a26f0       0x50 ./lib/rt3070.a(rtmp_timer.o)
                0x000a26f0                rtmp_timer_WscUPnPM2DTimeOutAction
 .text.rtmp_timer_WscPBCTimeOutAction
                0x000a2740       0x50 ./lib/rt3070.a(rtmp_timer.o)
                0x000a2740                rtmp_timer_WscPBCTimeOutAction
 .text.rtmp_timer_WscScanTimeOutAction
                0x000a2790       0x50 ./lib/rt3070.a(rtmp_timer.o)
                0x000a2790                rtmp_timer_WscScanTimeOutAction
 .text.rtmp_timer_WscProfileRetryTimeout
                0x000a27e0       0x50 ./lib/rt3070.a(rtmp_timer.o)
                0x000a27e0                rtmp_timer_WscProfileRetryTimeout
 .text.RtmpTimerQThread
                0x000a2830       0x44 ./lib/rt3070.a(rtmp_timer.o)
                0x000a2830                RtmpTimerQThread
 .text.RtmpTimerQInsert
                0x000a2874       0xa4 ./lib/rt3070.a(rtmp_timer.o)
                0x000a2874                RtmpTimerQInsert
 .text.RtmpTimerQRemove
                0x000a2918       0xb0 ./lib/rt3070.a(rtmp_timer.o)
                0x000a2918                RtmpTimerQRemove
 .text.RtmpTimerQInit
                0x000a29c8       0xb0 ./lib/rt3070.a(rtmp_timer.o)
                0x000a29c8                RtmpTimerQInit
 .text.RTUSBBulkOutDataPacket
                0x000a2a78      0x658 ./lib/rt3070.a(rtusb_bulk.o)
                0x000a2a78                RTUSBBulkOutDataPacket
 .text.RTUSBBulkOutNullFrame
                0x000a30d0      0x190 ./lib/rt3070.a(rtusb_bulk.o)
                0x000a30d0                RTUSBBulkOutNullFrame
 .text.RTUSBBulkOutMLMEPacket
                0x000a3260      0x1dc ./lib/rt3070.a(rtusb_bulk.o)
                0x000a3260                RTUSBBulkOutMLMEPacket
 .text.RTUSBBulkOutPsPoll
                0x000a343c      0x178 ./lib/rt3070.a(rtusb_bulk.o)
                0x000a343c                RTUSBBulkOutPsPoll
 .text.DoBulkIn
                0x000a35b4      0x1d0 ./lib/rt3070.a(rtusb_bulk.o)
                0x000a35b4                DoBulkIn
 .text.RTUSBBulkReceive
                0x000a3784      0x114 ./lib/rt3070.a(rtusb_bulk.o)
                0x000a3784                RTUSBBulkReceive
 .text.RTUSBKickBulkOut
                0x000a3898      0x1f8 ./lib/rt3070.a(rtusb_bulk.o)
                0x000a3898                RTUSBKickBulkOut
 .text.RTUSBCancelPendingBulkOutIRP
                0x000a3a90      0x180 ./lib/rt3070.a(rtusb_bulk.o)
                0x000a3a90                RTUSBCancelPendingBulkOutIRP
 .text.RTUSBBulkOutDataPacketComplete
                0x000a3c10       0xa4 ./lib/rt3070.a(rtusb_bulk.o)
                0x000a3c10                RTUSBBulkOutDataPacketComplete
 .text.RTUSBBulkOutMLMEPacketComplete
                0x000a3cb4       0x28 ./lib/rt3070.a(rtusb_bulk.o)
                0x000a3cb4                RTUSBBulkOutMLMEPacketComplete
 .text.RTUSBBulkOutNullFrameComplete
                0x000a3cdc       0x28 ./lib/rt3070.a(rtusb_bulk.o)
                0x000a3cdc                RTUSBBulkOutNullFrameComplete
 .text.RTUSBBulkOutPsPollComplete
                0x000a3d04       0x28 ./lib/rt3070.a(rtusb_bulk.o)
                0x000a3d04                RTUSBBulkOutPsPollComplete
 .text.RTUSBBulkRxComplete
                0x000a3d2c       0x3c ./lib/rt3070.a(rtusb_bulk.o)
                0x000a3d2c                RTUSBBulkRxComplete
 .text.RTUSBInitTxDesc
                0x000a3d68       0x90 ./lib/rt3070.a(rtusb_bulk.o)
                0x000a3d68                RTUSBInitTxDesc
 .text.RTUSBInitHTTxDesc
                0x000a3df8       0x8c ./lib/rt3070.a(rtusb_bulk.o)
                0x000a3df8                RTUSBInitHTTxDesc
 .text.RTUSBInitRxDesc
                0x000a3e84       0xa0 ./lib/rt3070.a(rtusb_bulk.o)
                0x000a3e84                RTUSBInitRxDesc
 .text.RTUSBCleanUpDataBulkOutQueue
                0x000a3f24       0x70 ./lib/rt3070.a(rtusb_bulk.o)
                0x000a3f24                RTUSBCleanUpDataBulkOutQueue
 .text.RTUSBCancelPendingBulkInIRP
                0x000a3f94       0x48 ./lib/rt3070.a(rtusb_bulk.o)
                0x000a3f94                RTUSBCancelPendingBulkInIRP
 .text.RTUSBCleanUpMLMEBulkOutQueue
                0x000a3fdc       0x10 ./lib/rt3070.a(rtusb_bulk.o)
                0x000a3fdc                RTUSBCleanUpMLMEBulkOutQueue
 .text.RTUSBFreeDescriptorRequest
                0x000a3fec       0xcc ./lib/rt3070.a(rtusb_data.o)
                0x000a3fec                RTUSBFreeDescriptorRequest
 .text.RTUSBNeedQueueBackForAgg
                0x000a40b8       0xbc ./lib/rt3070.a(rtusb_data.o)
                0x000a40b8                RTUSBNeedQueueBackForAgg
 .text.RTMPWriteTxInfo
                0x000a4174       0x78 ./lib/rt3070.a(rtusb_data.o)
                0x000a4174                RTMPWriteTxInfo
 .text.RTUSBRejectPendingPackets
                0x000a41ec       0xc0 ./lib/rt3070.a(rtusb_data.o)
                0x000a41ec                RTUSBRejectPendingPackets
 .text.RtmpAsicLoadFirmware
                0x000a42ac      0x128 ./lib/rt3070.a(rtmp_mcu.o)
                0x000a42ac                RtmpAsicLoadFirmware
 .text.RtmpAsicSendCommandToMcu
                0x000a43d4       0xdc ./lib/rt3070.a(rtmp_mcu.o)
                0x000a43d4                RtmpAsicSendCommandToMcu
 .text.PeerAssocRspSanity
                0x000a44b0      0x33c ./lib/rt3070.a(sanity.o)
                0x000a44b0                PeerAssocRspSanity
 .text.MlmeStartReqSanity
                0x000a47ec       0x3c ./lib/rt3070.a(sanity.o)
                0x000a47ec                MlmeStartReqSanity
 .text.GetTimBit
                0x000a4828       0xd4 ./lib/rt3070.a(sanity.o)
                0x000a4828                GetTimBit
 .text.SyncStateMachineInit
                0x000a48fc      0x23c ./lib/rt3070.a(sync.o)
                0x000a48fc                SyncStateMachineInit
 .text.MlmeScanReqAction
                0x000a4b38      0x2b0 ./lib/rt3070.a(sync.o)
                0x000a4b38                MlmeScanReqAction
 .text.MlmeJoinReqAction
                0x000a4de8      0x4c0 ./lib/rt3070.a(sync.o)
                0x000a4de8                MlmeJoinReqAction
 .text.MlmeStartReqAction
                0x000a52a8      0x3ac ./lib/rt3070.a(sync.o)
                0x000a52a8                MlmeStartReqAction
 .text.PeerBeaconAtScanAction
                0x000a5654      0x768 ./lib/rt3070.a(sync.o)
                0x000a5654                PeerBeaconAtScanAction
 .text.PeerBeaconAtJoinAction
                0x000a5dbc      0xcfc ./lib/rt3070.a(sync.o)
                0x000a5dbc                PeerBeaconAtJoinAction
 .text.PeerBeacon
                0x000a6ab8     0x1858 ./lib/rt3070.a(sync.o)
                0x000a6ab8                PeerBeacon
 .text.PeerProbeReqAction
                0x000a8310      0x564 ./lib/rt3070.a(sync.o)
                0x000a8310                PeerProbeReqAction
 .text.ScanTimeoutAction
                0x000a8874      0x130 ./lib/rt3070.a(sync.o)
                0x000a8874                ScanTimeoutAction
 .text.BuildEffectedChannelList
                0x000a89a4       0x7c ./lib/rt3070.a(sync.o)
                0x000a89a4                BuildEffectedChannelList
 .text.CntlChannelWidth
                0x000a8a20      0x328 ./lib/rt3070.a(sync.o)
                0x000a8a20                CntlChannelWidth
 .text.BeaconTimeout
                0x000a8d48       0xc0 ./lib/rt3070.a(sync.o)
                0x000a8d48                BeaconTimeout
 .text.ScanTimeout
                0x000a8e08       0x90 ./lib/rt3070.a(sync.o)
                0x000a8e08                ScanTimeout
 .text.InvalidStateWhenScan
                0x000a8e98       0x50 ./lib/rt3070.a(sync.o)
                0x000a8e98                InvalidStateWhenScan
 .text.InvalidStateWhenJoin
                0x000a8ee8       0x50 ./lib/rt3070.a(sync.o)
                0x000a8ee8                InvalidStateWhenJoin
 .text.InvalidStateWhenStart
                0x000a8f38       0x50 ./lib/rt3070.a(sync.o)
                0x000a8f38                InvalidStateWhenStart
 .text.BeaconTimeoutAtJoinAction
                0x000a8f88       0x50 ./lib/rt3070.a(sync.o)
                0x000a8f88                BeaconTimeoutAtJoinAction
 .text.TDLS_SearchTabInit
                0x000a8fd8       0xd8 ./lib/rt3070.a(tdls.o)
                0x000a8fd8                TDLS_SearchTabInit
 .text.TDLS_SearchEntryUpdate
                0x000a90b0      0x12c ./lib/rt3070.a(tdls.o)
                0x000a90b0                TDLS_SearchEntryUpdate
 .text.TDLS_SearchEntryDelete
                0x000a91dc      0x11c ./lib/rt3070.a(tdls.o)
                0x000a91dc                TDLS_SearchEntryDelete
 .text.TDLS_SearchTabReset
                0x000a92f8       0xf8 ./lib/rt3070.a(tdls.o)
                0x000a92f8                TDLS_SearchTabReset
 .text.TDLS_SearchTabMaintain
                0x000a93f0      0x1ec ./lib/rt3070.a(tdls.o)
                0x000a93f0                TDLS_SearchTabMaintain
 .text.TDLS_SetupRequestAction
                0x000a95dc      0x130 ./lib/rt3070.a(tdls.o)
                0x000a95dc                TDLS_SetupRequestAction
 .text.TDLS_TearDownAction
                0x000a970c      0x170 ./lib/rt3070.a(tdls.o)
                0x000a970c                TDLS_TearDownAction
 .text.TDLS_InitPeerEntryRateCapability
                0x000a987c      0x8d4 ./lib/rt3070.a(tdls.o)
                0x000a987c                TDLS_InitPeerEntryRateCapability
 .text.TDLS_CntlOidTDLSRequestProc
                0x000aa150      0x30c ./lib/rt3070.a(tdls.o)
                0x000aa150                TDLS_CntlOidTDLSRequestProc
 .text.TDLS_FTDeriveTPK
                0x000aa45c      0x2a8 ./lib/rt3070.a(tdls.o)
                0x000aa45c                TDLS_FTDeriveTPK
 .text.TDLS_SendNullFrame
                0x000aa704      0x210 ./lib/rt3070.a(tdls.o)
                0x000aa704                TDLS_SendNullFrame
 .text.TDLS_LinkMaintenance
                0x000aa914       0xfc ./lib/rt3070.a(tdls.o)
                0x000aa914                TDLS_LinkMaintenance
 .text.TDLS_Table_Init
                0x000aaa10       0x60 ./lib/rt3070.a(tdls.o)
                0x000aaa10                TDLS_Table_Init
 .text.TDLS_SearchLinkId
                0x000aaa70       0x88 ./lib/rt3070.a(tdls.o)
                0x000aaa70                TDLS_SearchLinkId
 .text.TDLS_MlmeParmFill
                0x000aaaf8       0x20 ./lib/rt3070.a(tdls.o)
                0x000aaaf8                TDLS_MlmeParmFill
 .text.TDLS_SetupResponseAction
                0x000aab18      0x188 ./lib/rt3070.a(tdls.o)
                0x000aab18                TDLS_SetupResponseAction
 .text.TDLS_SetupConfirmAction
                0x000aaca0      0x188 ./lib/rt3070.a(tdls.o)
                0x000aaca0                TDLS_SetupConfirmAction
 .text.TDLS_MsgTypeSubst
                0x000aae28       0x6c ./lib/rt3070.a(tdls.o)
                0x000aae28                TDLS_MsgTypeSubst
 .text.TDLS_CheckTDLSframe
                0x000aae94       0x3c ./lib/rt3070.a(tdls.o)
                0x000aae94                TDLS_CheckTDLSframe
 .text.TDLS_LinkTearDown
                0x000aaed0       0xcc ./lib/rt3070.a(tdls.o)
                0x000aaed0                TDLS_LinkTearDown
 .text.MlmeTdlsReqSanity
                0x000aaf9c       0x30 ./lib/rt3070.a(tdls.o)
                0x000aaf9c                MlmeTdlsReqSanity
 .text.TDLS_DiscoveryPacketLearnAndCheck
                0x000aafcc       0x98 ./lib/rt3070.a(tdls.o)
                0x000aafcc                TDLS_DiscoveryPacketLearnAndCheck
 .text.TDLS_StateMachineInit
                0x000ab064      0x134 ./lib/rt3070.a(tdls_ctrl.o)
                0x000ab064                TDLS_StateMachineInit
 .text.TDLS_PeerTdlsReqAction
                0x000ab198      0x5ec ./lib/rt3070.a(tdls_ctrl.o)
                0x000ab198                TDLS_PeerTdlsReqAction
 .text.TDLS_PeerTdlsRspAction
                0x000ab784      0x79c ./lib/rt3070.a(tdls_ctrl.o)
                0x000ab784                TDLS_PeerTdlsRspAction
 .text.TDLS_PeerTdlsConfAction
                0x000abf20      0x51c ./lib/rt3070.a(tdls_ctrl.o)
                0x000abf20                TDLS_PeerTdlsConfAction
 .text.TDLS_PeerTdlsTearDownAction
                0x000ac43c      0x384 ./lib/rt3070.a(tdls_ctrl.o)
                0x000ac43c                TDLS_PeerTdlsTearDownAction
 .text.PeerTdlsSetupReqSanity
                0x000ac7c0      0x3a8 ./lib/rt3070.a(tdls_ctrl.o)
                0x000ac7c0                PeerTdlsSetupReqSanity
 .text.PeerTdlsSetupRspSanity
                0x000acb68      0x3e0 ./lib/rt3070.a(tdls_ctrl.o)
                0x000acb68                PeerTdlsSetupRspSanity
 .text.PeerTdlsSetupConfSanity
                0x000acf48      0x308 ./lib/rt3070.a(tdls_ctrl.o)
                0x000acf48                PeerTdlsSetupConfSanity
 .text.PeerTdlsTearDownSanity
                0x000ad250      0x184 ./lib/rt3070.a(tdls_ctrl.o)
                0x000ad250                PeerTdlsTearDownSanity
 .text.TDLS_MlmeTdlsReqAction
                0x000ad3d4       0x84 ./lib/rt3070.a(tdls_ctrl.o)
                0x000ad3d4                TDLS_MlmeTdlsReqAction
 .text.TDLS_MlmeTdlsTearDownAction
                0x000ad458       0x8c ./lib/rt3070.a(tdls_ctrl.o)
                0x000ad458                TDLS_MlmeTdlsTearDownAction
 .text.TDLS_TimeoutAction
                0x000ad4e4       0x38 ./lib/rt3070.a(tdls_ctrl.o)
                0x000ad4e4                TDLS_TimeoutAction
 .text.TDLS_BuildSetupRequest
                0x000ad51c      0x2f0 ./lib/rt3070.a(tdls_link_mng.o)
                0x000ad51c                TDLS_BuildSetupRequest
 .text.TDLS_BuildSetupResponse
                0x000ad80c      0x494 ./lib/rt3070.a(tdls_link_mng.o)
                0x000ad80c                TDLS_BuildSetupResponse
 .text.TDLS_BuildSetupConfirm
                0x000adca0      0x3a4 ./lib/rt3070.a(tdls_link_mng.o)
                0x000adca0                TDLS_BuildSetupConfirm
 .text.TDLS_BuildTeardown
                0x000ae044      0x360 ./lib/rt3070.a(tdls_link_mng.o)
                0x000ae044                TDLS_BuildTeardown
 .text.TDLS_TPKMsg1Process
                0x000ae3a4      0x1ac ./lib/rt3070.a(tdls_link_mng.o)
                0x000ae3a4                TDLS_TPKMsg1Process
 .text.TDLS_TPKMsg2Process
                0x000ae550      0x3e4 ./lib/rt3070.a(tdls_link_mng.o)
                0x000ae550                TDLS_TPKMsg2Process
 .text.TDLS_TPKMsg3Process
                0x000ae934      0x3b8 ./lib/rt3070.a(tdls_link_mng.o)
                0x000ae934                TDLS_TPKMsg3Process
 .text.TDLS_InsertEDCAParameterSetIE
                0x000aecec      0x230 ./lib/rt3070.a(tdls_tlv.o)
                0x000aecec                TDLS_InsertEDCAParameterSetIE
 .text.TDLS_InsertActField
                0x000aef1c       0x60 ./lib/rt3070.a(tdls_tlv.o)
                0x000aef1c                TDLS_InsertActField
 .text.TDLS_InsertStatusCode
                0x000aef7c       0x48 ./lib/rt3070.a(tdls_tlv.o)
                0x000aef7c                TDLS_InsertStatusCode
 .text.TDLS_InsertReasonCode
                0x000aefc4       0x48 ./lib/rt3070.a(tdls_tlv.o)
                0x000aefc4                TDLS_InsertReasonCode
 .text.TDLS_InsertDialogToken
                0x000af00c       0x48 ./lib/rt3070.a(tdls_tlv.o)
                0x000af00c                TDLS_InsertDialogToken
 .text.TDLS_InsertLinkIdentifierIE
                0x000af054       0x8c ./lib/rt3070.a(tdls_tlv.o)
                0x000af054                TDLS_InsertLinkIdentifierIE
 .text.TDLS_InsertCapIE
                0x000af0e0       0x48 ./lib/rt3070.a(tdls_tlv.o)
                0x000af0e0                TDLS_InsertCapIE
 .text.TDLS_InsertSSIDIE
                0x000af128       0x78 ./lib/rt3070.a(tdls_tlv.o)
                0x000af128                TDLS_InsertSSIDIE
 .text.TDLS_InsertSupportRateIE
                0x000af1a0       0x7c ./lib/rt3070.a(tdls_tlv.o)
                0x000af1a0                TDLS_InsertSupportRateIE
 .text.TDLS_InsertExtRateIE
                0x000af21c       0x88 ./lib/rt3070.a(tdls_tlv.o)
                0x000af21c                TDLS_InsertExtRateIE
 .text.TDLS_InsertQosCapIE
                0x000af2a4      0x11c ./lib/rt3070.a(tdls_tlv.o)
                0x000af2a4                TDLS_InsertQosCapIE
 .text.TDLS_InsertHtCapIE
                0x000af3c0       0x88 ./lib/rt3070.a(tdls_tlv.o)
                0x000af3c0                TDLS_InsertHtCapIE
 .text.TDLS_InsertBSSCoexistenceIE
                0x000af448       0x8c ./lib/rt3070.a(tdls_tlv.o)
                0x000af448                TDLS_InsertBSSCoexistenceIE
 .text.TDLS_InsertExtCapIE
                0x000af4d4       0x8c ./lib/rt3070.a(tdls_tlv.o)
                0x000af4d4                TDLS_InsertExtCapIE
 .text.TDLS_InsertFTIE
                0x000af560       0xac ./lib/rt3070.a(tdls_tlv.o)
                0x000af560                TDLS_InsertFTIE
 .text.TDLS_InsertTimeoutIntervalIE
                0x000af60c       0x8c ./lib/rt3070.a(tdls_tlv.o)
                0x000af60c                TDLS_InsertTimeoutIntervalIE
 .text.RT28XXVendorSpecificCheck
                0x000af698       0xdc ./lib/rt3070.a(usb_main_dev.o)
                0x000af698                RT28XXVendorSpecificCheck
 .text.USBDevConfigInit
                0x000af774      0x10c ./lib/rt3070.a(usb_main_dev.o)
 .text.RTUSBCmdThread
                0x000af880      0x188 ./lib/rt3070.a(usb_main_dev.o)
                0x000af880                RTUSBCmdThread
 .text.rt2870_probe
                0x000afa08      0x230 ./lib/rt3070.a(usb_main_dev.o)
 .text.MlmeThread
                0x000afc38       0x8c ./lib/rt3070.a(usb_main_dev.o)
                0x000afc38                MlmeThread
 .text.rtusb_init
                0x000afcc4       0x44 ./lib/rt3070.a(usb_main_dev.o)
                0x000afcc4                rtusb_init
 .text.rtusb_probe
                0x000afd08       0x5c ./lib/rt3070.a(usb_main_dev.o)
 .text.rtusb_disconnect
                0x000afd64       0x10 ./lib/rt3070.a(usb_main_dev.o)
 .text.RTMPReportMicError
                0x000afd74      0x120 ./lib/rt3070.a(wpa.o)
                0x000afd74                RTMPReportMicError
 .text.WpaMicFailureReportFrame
                0x000afe94      0x2b0 ./lib/rt3070.a(wpa.o)
                0x000afe94                WpaMicFailureReportFrame
 .text.WpaDisassocApAndBlockAssoc
                0x000b0144       0x74 ./lib/rt3070.a(wpa.o)
                0x000b0144                WpaDisassocApAndBlockAssoc
 .text.WpaSendEapolStart
                0x000b01b8       0xb0 ./lib/rt3070.a(wpa.o)
                0x000b01b8                WpaSendEapolStart
 .text.WpaCheckEapCode
                0x000b0268       0x40 ./lib/rt3070.a(wpa.o)
                0x000b0268                WpaCheckEapCode
 .text.WpaSendMicFailureToWpaSupplicant
                0x000b02a8       0x8c ./lib/rt3070.a(wpa.o)
                0x000b02a8                WpaSendMicFailureToWpaSupplicant
 .text.inc_byte_array
                0x000b0334       0x48 ./lib/rt3070.a(wpa.o)
                0x000b0334                inc_byte_array
 .text.WscGenerateUUID
                0x000b037c      0x2a4 ./lib/rt3070.a(wsc.o)
                0x000b037c                WscGenerateUUID
 .text.WscStateMachineInit
                0x000b0620      0x1e8 ./lib/rt3070.a(wsc.o)
                0x000b0620                WscStateMachineInit
 .text.WscEAPAction
                0x000b0808      0x8bc ./lib/rt3070.a(wsc.o)
                0x000b0808                WscEAPAction
 .text.WscEapEnrolleeAction
                0x000b10c4      0x970 ./lib/rt3070.a(wsc.o)
                0x000b10c4                WscEapEnrolleeAction
 .text.WscEapRegistrarAction
                0x000b1a34      0x9c8 ./lib/rt3070.a(wsc.o)
                0x000b1a34                WscEapRegistrarAction
 .text.WscEAPOLTimeOutAction
                0x000b23fc      0x674 ./lib/rt3070.a(wsc.o)
                0x000b23fc                WscEAPOLTimeOutAction
 .text.Wsc2MinsTimeOutAction
                0x000b2a70      0x16c ./lib/rt3070.a(wsc.o)
                0x000b2a70                Wsc2MinsTimeOutAction
 .text.WscRxMsgType
                0x000b2bdc      0x214 ./lib/rt3070.a(wsc.o)
                0x000b2bdc                WscRxMsgType
 .text.WscInitRegistrarPair
                0x000b2df0      0x214 ./lib/rt3070.a(wsc.o)
                0x000b2df0                WscInitRegistrarPair
 .text.WscSendEapReqId
                0x000b3004      0x198 ./lib/rt3070.a(wsc.o)
                0x000b3004                WscSendEapReqId
 .text.WscSendEapolStart
                0x000b319c      0x110 ./lib/rt3070.a(wsc.o)
                0x000b319c                WscSendEapolStart
 .text.WscSendEapRspId
                0x000b32ac      0x27c ./lib/rt3070.a(wsc.o)
                0x000b32ac                WscSendEapRspId
 .text.WscSendUPnPMessage
                0x000b3528      0x3c0 ./lib/rt3070.a(wsc.o)
                0x000b3528                WscSendUPnPMessage
 .text.WscSendMessage
                0x000b38e8      0x2c8 ./lib/rt3070.a(wsc.o)
                0x000b38e8                WscSendMessage
 .text.WscBuildBeaconIE
                0x000b3bb0      0x2b0 ./lib/rt3070.a(wsc.o)
                0x000b3bb0                WscBuildBeaconIE
 .text.WscBuildProbeRespIE
                0x000b3e60      0x4d8 ./lib/rt3070.a(wsc.o)
                0x000b3e60                WscBuildProbeRespIE
 .text.WscSendEapFail
                0x000b4338      0x164 ./lib/rt3070.a(wsc.o)
                0x000b4338                WscSendEapFail
 .text.WscMakeProbeReqIE
                0x000b449c      0x274 ./lib/rt3070.a(wsc.o)
                0x000b449c                WscMakeProbeReqIE
 .text.WscStop  0x000b4710      0x1c0 ./lib/rt3070.a(wsc.o)
                0x000b4710                WscStop
 .text.WscWriteConfToPortCfg
                0x000b48d0      0x490 ./lib/rt3070.a(wsc.o)
                0x000b48d0                WscWriteConfToPortCfg
 .text.WscCheckNonce
                0x000b4d60      0x118 ./lib/rt3070.a(wsc.o)
                0x000b4d60                WscCheckNonce
 .text.WscGetConfigErrFromNack
                0x000b4e78       0xc8 ./lib/rt3070.a(wsc.o)
                0x000b4e78                WscGetConfigErrFromNack
 .text.WscSetAuthMode
                0x000b4f40      0x260 ./lib/rt3070.a(wsc.o)
                0x000b4f40                WscSetAuthMode
 .text.WscSetEncrypType
                0x000b51a0      0x198 ./lib/rt3070.a(wsc.o)
                0x000b51a0                WscSetEncrypType
 .text.WscPBCExec
                0x000b5338      0x148 ./lib/rt3070.a(wsc.o)
                0x000b5338                WscPBCExec
 .text.WscBssWpsIESearchForPBC
                0x000b5480      0x444 ./lib/rt3070.a(wsc.o)
                0x000b5480                WscBssWpsIESearchForPBC
 .text.WscPBCBssTableSort
                0x000b58c4      0x17c ./lib/rt3070.a(wsc.o)
                0x000b58c4                WscPBCBssTableSort
 .text.WscGenRandomKey
                0x000b5a40      0x12c ./lib/rt3070.a(wsc.o)
                0x000b5a40                WscGenRandomKey
 .text.WscCreateProfileFromCfg
                0x000b5b6c      0x3ec ./lib/rt3070.a(wsc.o)
                0x000b5b6c                WscCreateProfileFromCfg
 .text.WpsSmProcess
                0x000b5f58      0x3cc ./lib/rt3070.a(wsc.o)
                0x000b5f58                WpsSmProcess
 .text.WscCheckWpsIeFromWpsAP
                0x000b6324       0xf0 ./lib/rt3070.a(wsc.o)
                0x000b6324                WscCheckWpsIeFromWpsAP
 .text.WscLinkDown
                0x000b6414      0x224 ./lib/rt3070.a(wsc.o)
                0x000b6414                WscLinkDown
 .text.WscMsgTypeSubst
                0x000b6638       0x48 ./lib/rt3070.a(wsc.o)
                0x000b6638                WscMsgTypeSubst
 .text.WscEAPOLStartAction
                0x000b6680       0xf0 ./lib/rt3070.a(wsc.o)
                0x000b6680                WscEAPOLStartAction
 .text.WscInitEntryFunc
                0x000b6770       0x68 ./lib/rt3070.a(wsc.o)
                0x000b6770                WscInitEntryFunc
 .text.WscUPnPM2DTimeOutAction
                0x000b67d8       0xb0 ./lib/rt3070.a(wsc.o)
                0x000b67d8                WscUPnPM2DTimeOutAction
 .text.WscUPnPMsgTimeOutAction
                0x000b6888      0x100 ./lib/rt3070.a(wsc.o)
                0x000b6888                WscUPnPMsgTimeOutAction
 .text.WscUPnPErrHandle
                0x000b6988       0xc0 ./lib/rt3070.a(wsc.o)
                0x000b6988                WscUPnPErrHandle
 .text.WscBuildAssocReqIE
                0x000b6a48      0x108 ./lib/rt3070.a(wsc.o)
                0x000b6a48                WscBuildAssocReqIE
 .text.WscProfileRetryTimeout
                0x000b6b50      0x104 ./lib/rt3070.a(wsc.o)
                0x000b6b50                WscProfileRetryTimeout
 .text.WscPBCTimeOutAction
                0x000b6c54       0x70 ./lib/rt3070.a(wsc.o)
                0x000b6c54                WscPBCTimeOutAction
 .text.WscScanTimeOutAction
                0x000b6cc4       0x74 ./lib/rt3070.a(wsc.o)
                0x000b6cc4                WscScanTimeOutAction
 .text.WscInit  0x000b6d38       0x3c ./lib/rt3070.a(wsc.o)
                0x000b6d38                WscInit
 .text.WscThreadInit
                0x000b6d74       0xcc ./lib/rt3070.a(wsc.o)
                0x000b6d74                WscThreadInit
 .text.WscGetRegDataPIN
                0x000b6e40       0xfc ./lib/rt3070.a(wsc.o)
                0x000b6e40                WscGetRegDataPIN
 .text.WscScanExec
                0x000b6f3c       0x4c ./lib/rt3070.a(wsc.o)
                0x000b6f3c                WscScanExec
 .text.WscSearchWpsApBySSID
                0x000b6f88      0x118 ./lib/rt3070.a(wsc.o)
                0x000b6f88                WscSearchWpsApBySSID
 .text.WSC_HDR_BTN_Init
                0x000b70a0       0x20 ./lib/rt3070.a(wsc.o)
                0x000b70a0                WSC_HDR_BTN_Init
 .text.WSC_HDR_BTN_CheckHandler
                0x000b70c0       0xc8 ./lib/rt3070.a(wsc.o)
                0x000b70c0                WSC_HDR_BTN_CheckHandler
 .text.WscEapActionDisabled
                0x000b7188       0xe0 ./lib/rt3070.a(wsc.o)
                0x000b7188                WscEapActionDisabled
 .text.WscSendNACK
                0x000b7268      0x10c ./lib/rt3070.a(wsc.o)
                0x000b7268                WscSendNACK
 .text.write_dat_file_thread
                0x000b7374       0xbc ./lib/rt3070.a(wsc.o)
 .text.WscParseEncrSettings
                0x000b7430      0x37c ./lib/rt3070.a(wsc_tlv.o)
 .text.WscProcessCredential
                0x000b77ac      0x3bc ./lib/rt3070.a(wsc_tlv.o)
 .text.WscDeriveKey
                0x000b7b68      0x11c ./lib/rt3070.a(wsc_tlv.o)
                0x000b7b68                WscDeriveKey
 .text.BuildMessageM1
                0x000b7c84      0xa98 ./lib/rt3070.a(wsc_tlv.o)
                0x000b7c84                BuildMessageM1
 .text.BuildMessageM2
                0x000b871c      0xc38 ./lib/rt3070.a(wsc_tlv.o)
                0x000b871c                BuildMessageM2
 .text.BuildMessageM2D
                0x000b9354      0x890 ./lib/rt3070.a(wsc_tlv.o)
                0x000b9354                BuildMessageM2D
 .text.BuildMessageM3
                0x000b9be4      0x5bc ./lib/rt3070.a(wsc_tlv.o)
                0x000b9be4                BuildMessageM3
 .text.BuildMessageM4
                0x000ba1a0      0x7dc ./lib/rt3070.a(wsc_tlv.o)
                0x000ba1a0                BuildMessageM4
 .text.BuildMessageM5
                0x000ba97c      0x484 ./lib/rt3070.a(wsc_tlv.o)
                0x000ba97c                BuildMessageM5
 .text.BuildMessageM6
                0x000bae00      0x4a8 ./lib/rt3070.a(wsc_tlv.o)
                0x000bae00                BuildMessageM6
 .text.BuildMessageM7
                0x000bb2a8      0x4c0 ./lib/rt3070.a(wsc_tlv.o)
                0x000bb2a8                BuildMessageM7
 .text.BuildMessageM8
                0x000bb768      0x8a8 ./lib/rt3070.a(wsc_tlv.o)
                0x000bb768                BuildMessageM8
 .text.BuildMessageDONE
                0x000bc010      0x1e0 ./lib/rt3070.a(wsc_tlv.o)
                0x000bc010                BuildMessageDONE
 .text.BuildMessageACK
                0x000bc1f0      0x1e0 ./lib/rt3070.a(wsc_tlv.o)
                0x000bc1f0                BuildMessageACK
 .text.BuildMessageNACK
                0x000bc3d0      0x258 ./lib/rt3070.a(wsc_tlv.o)
                0x000bc3d0                BuildMessageNACK
 .text.ProcessMessageM1
                0x000bc628      0x660 ./lib/rt3070.a(wsc_tlv.o)
                0x000bc628                ProcessMessageM1
 .text.ProcessMessageM2
                0x000bcc88      0x774 ./lib/rt3070.a(wsc_tlv.o)
                0x000bcc88                ProcessMessageM2
 .text.ProcessMessageM2D
                0x000bd3fc      0x340 ./lib/rt3070.a(wsc_tlv.o)
                0x000bd3fc                ProcessMessageM2D
 .text.ProcessMessageM3
                0x000bd73c      0x31c ./lib/rt3070.a(wsc_tlv.o)
                0x000bd73c                ProcessMessageM3
 .text.ProcessMessageM4
                0x000bda58      0x560 ./lib/rt3070.a(wsc_tlv.o)
                0x000bda58                ProcessMessageM4
 .text.ProcessMessageM5
                0x000bdfb8      0x44c ./lib/rt3070.a(wsc_tlv.o)
                0x000bdfb8                ProcessMessageM5
 .text.ProcessMessageM6
                0x000be404      0x440 ./lib/rt3070.a(wsc_tlv.o)
                0x000be404                ProcessMessageM6
 .text.ProcessMessageM7
                0x000be844      0x2b4 ./lib/rt3070.a(wsc_tlv.o)
                0x000be844                ProcessMessageM7
 .text.ProcessMessageM8
                0x000beaf8      0x2b0 ./lib/rt3070.a(wsc_tlv.o)
                0x000beaf8                ProcessMessageM8
 .text.AppendWSCTLV
                0x000beda8       0xc4 ./lib/rt3070.a(wsc_tlv.o)
                0x000beda8                AppendWSCTLV
 .text.InitializeWSCTLV
                0x000bee6c       0x5c ./lib/rt3070.a(wsc_tlv.o)
                0x000bee6c                InitializeWSCTLV
 .text.WLan_get_EEPData
                0x000beec8      0x4a0 ./lib/rt3070.a(wlanif.o)
                0x000beec8                WLan_get_EEPData
 .text.wlan_set_anyssid
                0x000bf368       0x88 ./lib/rt3070.a(wlanif.o)
                0x000bf368                wlan_set_anyssid
 .text.Wlan_MacInit
                0x000bf3f0       0x14 ./lib/rt3070.a(wlanif.o)
                0x000bf3f0                Wlan_MacInit
 .text.wlan_site_survey
                0x000bf404       0x48 ./lib/rt3070.a(wlanif.o)
                0x000bf404                wlan_site_survey
 .text.wlan_get_scanlist
                0x000bf44c       0x30 ./lib/rt3070.a(wlanif.o)
                0x000bf44c                wlan_get_scanlist
 .text.wlan_get_currbssid
                0x000bf47c       0x38 ./lib/rt3070.a(wlanif.o)
                0x000bf47c                wlan_get_currbssid
 .text.wlan_get_currssid
                0x000bf4b4       0x38 ./lib/rt3070.a(wlanif.o)
                0x000bf4b4                wlan_get_currssid
 .text.wlan_get_channel
                0x000bf4ec       0x30 ./lib/rt3070.a(wlanif.o)
                0x000bf4ec                wlan_get_channel
 .text.wlan_get_currrate
                0x000bf51c       0x30 ./lib/rt3070.a(wlanif.o)
                0x000bf51c                wlan_get_currrate
 .text.wlan_get_rssi
                0x000bf54c       0x30 ./lib/rt3070.a(wlanif.o)
                0x000bf54c                wlan_get_rssi
 .text.wlan_get_linkquality
                0x000bf57c       0x30 ./lib/rt3070.a(wlanif.o)
                0x000bf57c                wlan_get_linkquality
 .text.Wlan_SendPacket
                0x000bf5ac       0x4c ./lib/rt3070.a(wlanif.o)
                0x000bf5ac                Wlan_SendPacket
 .text.wlan_get_linkup
                0x000bf5f8       0x14 ./lib/rt3070.a(wlanif.o)
                0x000bf5f8                wlan_get_linkup
 .text.ActionStateMachineInit
                0x000bf60c      0x198 ./lib/rt3070.a(action.o)
                0x000bf60c                ActionStateMachineInit
 .text.MlmeADDBAAction
                0x000bf7a4      0x250 ./lib/rt3070.a(action.o)
                0x000bf7a4                MlmeADDBAAction
 .text.MlmeDELBAAction
                0x000bf9f4      0x2c8 ./lib/rt3070.a(action.o)
                0x000bf9f4                MlmeDELBAAction
 .text.BuildIntolerantChannelRep
                0x000bfcbc      0x1e8 ./lib/rt3070.a(action.o)
                0x000bfcbc                BuildIntolerantChannelRep
 .text.Send2040CoexistAction
                0x000bfea4      0x148 ./lib/rt3070.a(action.o)
                0x000bfea4                Send2040CoexistAction
 .text.UpdateBssScanParm
                0x000bffec      0x18c ./lib/rt3070.a(action.o)
                0x000bffec                UpdateBssScanParm
 .text.ChannelSwitchAction
                0x000c0178      0x390 ./lib/rt3070.a(action.o)
                0x000c0178                ChannelSwitchAction
 .text.PeerPublicAction
                0x000c0508      0x128 ./lib/rt3070.a(action.o)
                0x000c0508                PeerPublicAction
 .text.respond_ht_information_exchange_action
                0x000c0630      0x13c ./lib/rt3070.a(action.o)
 .text.PeerHTAction
                0x000c076c      0x1b4 ./lib/rt3070.a(action.o)
                0x000c076c                PeerHTAction
 .text.MlmeDLSAction
                0x000c0920       0x10 ./lib/rt3070.a(action.o)
                0x000c0920                MlmeDLSAction
 .text.MlmeInvalidAction
                0x000c0930       0x10 ./lib/rt3070.a(action.o)
                0x000c0930                MlmeInvalidAction
 .text.MlmeQOSAction
                0x000c0940       0x10 ./lib/rt3070.a(action.o)
                0x000c0940                MlmeQOSAction
 .text.PeerBAAction
                0x000c0950       0x4c ./lib/rt3070.a(action.o)
                0x000c0950                PeerBAAction
 .text.PeerRMAction
                0x000c099c       0x10 ./lib/rt3070.a(action.o)
                0x000c099c                PeerRMAction
 .text.PeerQOSAction
                0x000c09ac       0x10 ./lib/rt3070.a(action.o)
                0x000c09ac                PeerQOSAction
 .text.PeerDLSAction
                0x000c09bc       0x4c ./lib/rt3070.a(action.o)
                0x000c09bc                PeerDLSAction
 .text.ORIBATimerTimeout
                0x000c0a08       0x60 ./lib/rt3070.a(action.o)
                0x000c0a08                ORIBATimerTimeout
 .text.Update2040CoexistFrameAndNotify
                0x000c0a68       0x48 ./lib/rt3070.a(action.o)
                0x000c0a68                Update2040CoexistFrameAndNotify
 .text.ActHeaderInit
                0x000c0ab0       0x74 ./lib/rt3070.a(action.o)
                0x000c0ab0                ActHeaderInit
 .text.BarHeaderInit
                0x000c0b24       0x94 ./lib/rt3070.a(action.o)
                0x000c0b24                BarHeaderInit
 .text.InsertActField
                0x000c0bb8       0x60 ./lib/rt3070.a(action.o)
                0x000c0bb8                InsertActField
 .text.ReservedAction
                0x000c0c18       0x28 ./lib/rt3070.a(action.o)
 .text.AssocStateMachineInit
                0x000c0c40      0x2c8 ./lib/rt3070.a(assoc.o)
                0x000c0c40                AssocStateMachineInit
 .text.MlmeAssocReqAction
                0x000c0f08      0xb44 ./lib/rt3070.a(assoc.o)
                0x000c0f08                MlmeAssocReqAction
 .text.MlmeReassocReqAction
                0x000c1a4c      0x5ec ./lib/rt3070.a(assoc.o)
                0x000c1a4c                MlmeReassocReqAction
 .text.MlmeDisassocReqAction
                0x000c2038      0x2dc ./lib/rt3070.a(assoc.o)
                0x000c2038                MlmeDisassocReqAction
 .text.PeerAssocRspAction
                0x000c2314      0x240 ./lib/rt3070.a(assoc.o)
                0x000c2314                PeerAssocRspAction
 .text.PeerReassocRspAction
                0x000c2554      0x1b0 ./lib/rt3070.a(assoc.o)
                0x000c2554                PeerReassocRspAction
 .text.AssocPostProc
                0x000c2704      0x338 ./lib/rt3070.a(assoc.o)
                0x000c2704                AssocPostProc
 .text.StaAddMacTableEntry
                0x000c2a3c      0xa50 ./lib/rt3070.a(assoc.o)
                0x000c2a3c                StaAddMacTableEntry
 .text.ReassocTimeout
                0x000c348c       0x50 ./lib/rt3070.a(assoc.o)
                0x000c348c                ReassocTimeout
 .text.AssocTimeout
                0x000c34dc       0x50 ./lib/rt3070.a(assoc.o)
                0x000c34dc                AssocTimeout
 .text.DisassocTimeout
                0x000c352c       0x50 ./lib/rt3070.a(assoc.o)
                0x000c352c                DisassocTimeout
 .text.PeerDisassocAction
                0x000c357c      0x11c ./lib/rt3070.a(assoc.o)
                0x000c357c                PeerDisassocAction
 .text.DisassocTimeoutAction
                0x000c3698       0x4c ./lib/rt3070.a(assoc.o)
                0x000c3698                DisassocTimeoutAction
 .text.AssocTimeoutAction
                0x000c36e4       0x50 ./lib/rt3070.a(assoc.o)
                0x000c36e4                AssocTimeoutAction
 .text.ReassocTimeoutAction
                0x000c3734       0x50 ./lib/rt3070.a(assoc.o)
                0x000c3734                ReassocTimeoutAction
 .text.InvalidStateWhenAssoc
                0x000c3784       0x50 ./lib/rt3070.a(assoc.o)
                0x000c3784                InvalidStateWhenAssoc
 .text.InvalidStateWhenReassoc
                0x000c37d4       0x50 ./lib/rt3070.a(assoc.o)
                0x000c37d4                InvalidStateWhenReassoc
 .text.InvalidStateWhenDisassociate
                0x000c3824       0x50 ./lib/rt3070.a(assoc.o)
                0x000c3824                InvalidStateWhenDisassociate
 .text.SendAssocIEsToWpaSupplicant
                0x000c3874       0xc4 ./lib/rt3070.a(assoc.o)
                0x000c3874                SendAssocIEsToWpaSupplicant
 .text.PeerAuthRspAtSeq2Action
                0x000c3938      0x40c ./lib/rt3070.a(auth.o)
                0x000c3938                PeerAuthRspAtSeq2Action
 .text.AUTH_ReqSend
                0x000c3d44      0x210 ./lib/rt3070.a(auth.o)
                0x000c3d44                AUTH_ReqSend
 .text.AuthStateMachineInit
                0x000c3f54      0x118 ./lib/rt3070.a(auth.o)
                0x000c3f54                AuthStateMachineInit
 .text.AuthTimeout
                0x000c406c       0x7c ./lib/rt3070.a(auth.o)
                0x000c406c                AuthTimeout
 .text.MlmeAuthReqAction
                0x000c40e8       0x94 ./lib/rt3070.a(auth.o)
                0x000c40e8                MlmeAuthReqAction
 .text.PeerAuthRspAtSeq4Action
                0x000c417c       0xfc ./lib/rt3070.a(auth.o)
                0x000c417c                PeerAuthRspAtSeq4Action
 .text.AuthTimeoutAction
                0x000c4278       0x50 ./lib/rt3070.a(auth.o)
                0x000c4278                AuthTimeoutAction
 .text.Cls2errAction
                0x000c42c8       0xe4 ./lib/rt3070.a(auth.o)
                0x000c42c8                Cls2errAction
 .text.InvalidStateWhenAuth
                0x000c43ac       0x50 ./lib/rt3070.a(auth.o)
                0x000c43ac                InvalidStateWhenAuth
 .text.PeerDeauthAction
                0x000c43fc      0x1c8 ./lib/rt3070.a(auth_rsp.o)
                0x000c43fc                PeerDeauthAction
 .text.AuthRspStateMachineInit
                0x000c45c4       0x78 ./lib/rt3070.a(auth_rsp.o)
                0x000c45c4                AuthRspStateMachineInit
 .text.ba_flush_reordering_timeout_mpdus
                0x000c463c      0x354 ./lib/rt3070.a(ba_action.o)
                0x000c463c                ba_flush_reordering_timeout_mpdus
 .text.BAOriSessionSetUp
                0x000c4990      0x1a4 ./lib/rt3070.a(ba_action.o)
                0x000c4990                BAOriSessionSetUp
 .text.BAOriSessionAdd
                0x000c4b34      0x254 ./lib/rt3070.a(ba_action.o)
                0x000c4b34                BAOriSessionAdd
 .text.BARecSessionAdd
                0x000c4d88      0x298 ./lib/rt3070.a(ba_action.o)
                0x000c4d88                BARecSessionAdd
 .text.BAOriSessionTearDown
                0x000c5020      0x2cc ./lib/rt3070.a(ba_action.o)
                0x000c5020                BAOriSessionTearDown
 .text.BARecSessionTearDown
                0x000c52ec      0x35c ./lib/rt3070.a(ba_action.o)
                0x000c52ec                BARecSessionTearDown
 .text.BAOriSessionSetupTimeout
                0x000c5648      0x250 ./lib/rt3070.a(ba_action.o)
                0x000c5648                BAOriSessionSetupTimeout
 .text.PeerAddBAReqAction
                0x000c5898      0x298 ./lib/rt3070.a(ba_action.o)
                0x000c5898                PeerAddBAReqAction
 .text.PeerAddBARspAction
                0x000c5b30      0x128 ./lib/rt3070.a(ba_action.o)
                0x000c5b30                PeerAddBARspAction
 .text.CntlEnqueueForRecv
                0x000c5c58      0x1d0 ./lib/rt3070.a(ba_action.o)
                0x000c5c58                CntlEnqueueForRecv
 .text.convert_reordering_packet_to_preAMSDU_or_802_3_packet
                0x000c5e28      0x1fc ./lib/rt3070.a(ba_action.o)
                0x000c5e28                convert_reordering_packet_to_preAMSDU_or_802_3_packet
 .text.ba_enqueue_reordering_packet
                0x000c6024      0x2e4 ./lib/rt3070.a(ba_action.o)
 .text.Indicate_AMPDU_Packet
                0x000c6308      0x5e8 ./lib/rt3070.a(ba_action.o)
                0x000c6308                Indicate_AMPDU_Packet
 .text.PeerDelBAAction
                0x000c68f0       0x7c ./lib/rt3070.a(ba_action.o)
                0x000c68f0                PeerDelBAAction
 .text.BASessionTearDownALL
                0x000c696c       0x60 ./lib/rt3070.a(ba_action.o)
                0x000c696c                BASessionTearDownALL
 .text.ba_reordering_resource_init
                0x000c69cc       0xbc ./lib/rt3070.a(ba_action.o)
                0x000c69cc                ba_reordering_resource_init
 .text.BATableAllocOriEntry
                0x000c6a88       0xb8 ./lib/rt3070.a(ba_action.o)
                0x000c6a88                BATableAllocOriEntry
 .text.BATableAllocRecEntry
                0x000c6b40       0xb8 ./lib/rt3070.a(ba_action.o)
                0x000c6b40                BATableAllocRecEntry
 .text.BARecSessionIdleTimeout
                0x000c6bf8      0x10c ./lib/rt3070.a(ba_action.o)
                0x000c6bf8                BARecSessionIdleTimeout
 .text.rtmp_timer_BAOriSessionSetupTimeout
                0x000c6d04       0x50 ./lib/rt3070.a(ba_action.o)
                0x000c6d04                rtmp_timer_BAOriSessionSetupTimeout
 .text.rtmp_timer_BARecSessionIdleTimeout
                0x000c6d54       0x50 ./lib/rt3070.a(ba_action.o)
                0x000c6d54                rtmp_timer_BARecSessionIdleTimeout
 .text.RTMPSoftDecryptCCMP
                0x000c6da4      0x280 ./lib/rt3070.a(cmm_aes.o)
                0x000c6da4                RTMPSoftDecryptCCMP
 .text.AsicUpdateAutoFallBackTable
                0x000c7024      0x43c ./lib/rt3070.a(cmm_asic.o)
                0x000c7024                AsicUpdateAutoFallBackTable
 .text.AsicUpdateProtect
                0x000c7460      0x380 ./lib/rt3070.a(cmm_asic.o)
                0x000c7460                AsicUpdateProtect
 .text.AsicSwitchChannel
                0x000c77e0      0x78c ./lib/rt3070.a(cmm_asic.o)
                0x000c77e0                AsicSwitchChannel
 .text.AsicGetAutoAgcOffset
                0x000c7f6c      0x1f4 ./lib/rt3070.a(cmm_asic.o)
                0x000c7f6c                AsicGetAutoAgcOffset
 .text.AsicGetTxPowerOffset
                0x000c8160      0x1a4 ./lib/rt3070.a(cmm_asic.o)
                0x000c8160                AsicGetTxPowerOffset
 .text.AsicAdjustTxPower
                0x000c8304      0x2f0 ./lib/rt3070.a(cmm_asic.o)
                0x000c8304                AsicAdjustTxPower
 .text.AsicEnableIbssSync
                0x000c85f4      0x148 ./lib/rt3070.a(cmm_asic.o)
                0x000c85f4                AsicEnableIbssSync
 .text.AsicSetEdcaParm
                0x000c873c      0x674 ./lib/rt3070.a(cmm_asic.o)
                0x000c873c                AsicSetEdcaParm
 .text.AsicSetSlotTime
                0x000c8db0      0x178 ./lib/rt3070.a(cmm_asic.o)
                0x000c8db0                AsicSetSlotTime
 .text.AsicAddSharedKeyEntry
                0x000c8f28      0x1a8 ./lib/rt3070.a(cmm_asic.o)
                0x000c8f28                AsicAddSharedKeyEntry
 .text.AsicLockChannel
                0x000c90d0       0x10 ./lib/rt3070.a(cmm_asic.o)
                0x000c90d0                AsicLockChannel
 .text.AsicAntennaSelect
                0x000c90e0      0x108 ./lib/rt3070.a(cmm_asic.o)
                0x000c90e0                AsicAntennaSelect
 .text.AsicSleepThenAutoWakeup
                0x000c91e8       0x1c ./lib/rt3070.a(cmm_asic.o)
                0x000c91e8                AsicSleepThenAutoWakeup
 .text.AsicForceWakeup
                0x000c9204       0x18 ./lib/rt3070.a(cmm_asic.o)
                0x000c9204                AsicForceWakeup
 .text.AsicSetBssid
                0x000c921c       0x5c ./lib/rt3070.a(cmm_asic.o)
                0x000c921c                AsicSetBssid
 .text.AsicEnableRDG
                0x000c9278       0x84 ./lib/rt3070.a(cmm_asic.o)
                0x000c9278                AsicEnableRDG
 .text.AsicDisableRDG
                0x000c92fc       0xc0 ./lib/rt3070.a(cmm_asic.o)
                0x000c92fc                AsicDisableRDG
 .text.AsicDisableSync
                0x000c93bc       0x74 ./lib/rt3070.a(cmm_asic.o)
                0x000c93bc                AsicDisableSync
 .text.AsicEnableBssSync
                0x000c9430       0x80 ./lib/rt3070.a(cmm_asic.o)
                0x000c9430                AsicEnableBssSync
 .text.AsicRemoveSharedKeyEntry
                0x000c94b0       0xd0 ./lib/rt3070.a(cmm_asic.o)
                0x000c94b0                AsicRemoveSharedKeyEntry
 .text.AsicUpdateWCIDIVEIV
                0x000c9580       0x50 ./lib/rt3070.a(cmm_asic.o)
                0x000c9580                AsicUpdateWCIDIVEIV
 .text.AsicUpdateRxWCIDTable
                0x000c95d0       0x74 ./lib/rt3070.a(cmm_asic.o)
                0x000c95d0                AsicUpdateRxWCIDTable
 .text.AsicUpdateWcidAttributeEntry
                0x000c9644       0x68 ./lib/rt3070.a(cmm_asic.o)
                0x000c9644                AsicUpdateWcidAttributeEntry
 .text.AsicAddPairwiseKeyEntry
                0x000c96ac       0xc4 ./lib/rt3070.a(cmm_asic.o)
                0x000c96ac                AsicAddPairwiseKeyEntry
 .text.AsicRemovePairwiseKeyEntry
                0x000c9770       0x2c ./lib/rt3070.a(cmm_asic.o)
                0x000c9770                AsicRemovePairwiseKeyEntry
 .text.AsicSendCommandToMcu
                0x000c979c       0x40 ./lib/rt3070.a(cmm_asic.o)
                0x000c979c                AsicSendCommandToMcu
 .text.AsicSetRxAnt
                0x000c97dc       0x84 ./lib/rt3070.a(cmm_asic.o)
                0x000c97dc                AsicSetRxAnt
 .text.AsicTurnOffRFClk
                0x000c9860       0x24 ./lib/rt3070.a(cmm_asic.o)
                0x000c9860                AsicTurnOffRFClk
 .text.ComputeChecksum
                0x000c9884      0x124 ./lib/rt3070.a(cmm_cfg.o)
                0x000c9884                ComputeChecksum
 .text.RT_CfgSetWirelessMode
                0x000c99a8       0x68 ./lib/rt3070.a(cmm_cfg.o)
                0x000c99a8                RT_CfgSetWirelessMode
 .text.RT_CfgSetWPAPSKKey
                0x000c9a10       0x9c ./lib/rt3070.a(cmm_cfg.o)
                0x000c9a10                RT_CfgSetWPAPSKKey
 .text.GenerateWpsPinCode
                0x000c9aac       0x78 ./lib/rt3070.a(cmm_cfg.o)
                0x000c9aac                GenerateWpsPinCode
 .text.RTEnqueueInternalCmd
                0x000c9b24      0x188 ./lib/rt3070.a(cmm_cmd.o)
                0x000c9b24                RTEnqueueInternalCmd
 .text.RTInitializeCmdQ
                0x000c9cac       0x28 ./lib/rt3070.a(cmm_cmd.o)
                0x000c9cac                RTInitializeCmdQ
 .text.RTThreadDequeueCmd
                0x000c9cd4       0x3c ./lib/rt3070.a(cmm_cmd.o)
                0x000c9cd4                RTThreadDequeueCmd
 .text.NICInitRecv
                0x000c9d10      0x118 ./lib/rt3070.a(cmm_mac_usb.o)
                0x000c9d10                NICInitRecv
 .text.NICInitTransmit
                0x000c9e28      0x5b4 ./lib/rt3070.a(cmm_mac_usb.o)
                0x000c9e28                NICInitTransmit
 .text.RTMPAllocTxRxRingMemory
                0x000ca3dc       0xf8 ./lib/rt3070.a(cmm_mac_usb.o)
                0x000ca3dc                RTMPAllocTxRxRingMemory
 .text.RTMPFreeTxRxRingMemory
                0x000ca4d4      0x2dc ./lib/rt3070.a(cmm_mac_usb.o)
                0x000ca4d4                RTMPFreeTxRxRingMemory
 .text.RT28xxUsbMlmeRadioOFF
                0x000ca7b0      0x220 ./lib/rt3070.a(cmm_mac_usb.o)
                0x000ca7b0                RT28xxUsbMlmeRadioOFF
 .text.RT28XXDMADisable
                0x000ca9d0       0x10 ./lib/rt3070.a(cmm_mac_usb.o)
                0x000ca9d0                RT28XXDMADisable
 .text.RT28XXDMAEnable
                0x000ca9e0       0xac ./lib/rt3070.a(cmm_mac_usb.o)
                0x000ca9e0                RT28XXDMAEnable
 .text.RT28xxUsbMlmeRadioOn
                0x000caa8c       0x8c ./lib/rt3070.a(cmm_mac_usb.o)
                0x000caa8c                RT28xxUsbMlmeRadioOn
 .text.RTMPTkipGetMIC
                0x000cab18      0x3ac ./lib/rt3070.a(cmm_tkip.o)
                0x000cab18                RTMPTkipGetMIC
 .text.RTMPInitMICEngine
                0x000caec4      0x2b0 ./lib/rt3070.a(cmm_tkip.o)
                0x000caec4                RTMPInitMICEngine
 .text.RTMPTkipCompareMICValue
                0x000cb174      0x3bc ./lib/rt3070.a(cmm_tkip.o)
                0x000cb174                RTMPTkipCompareMICValue
 .text.RTMPCalculateMICValue
                0x000cb530      0x2c4 ./lib/rt3070.a(cmm_tkip.o)
                0x000cb530                RTMPCalculateMICValue
 .text.RTMPTkipMixKey
                0x000cb7f4      0x5d8 ./lib/rt3070.a(cmm_tkip.o)
                0x000cb7f4                RTMPTkipMixKey
 .text.RTMPSoftDecryptTKIP
                0x000cbdcc      0x344 ./lib/rt3070.a(cmm_tkip.o)
                0x000cbdcc                RTMPSoftDecryptTKIP
 .text.TKIP_GTK_KEY_WRAP
                0x000cc110       0x78 ./lib/rt3070.a(cmm_tkip.o)
                0x000cc110                TKIP_GTK_KEY_WRAP
 .text.TKIP_GTK_KEY_UNWRAP
                0x000cc188       0x70 ./lib/rt3070.a(cmm_tkip.o)
                0x000cc188                TKIP_GTK_KEY_UNWRAP
 .text.RTMPSoftDecryptWEP
                0x000cc1f8      0x11c ./lib/rt3070.a(cmm_wep.o)
                0x000cc1f8                RTMPSoftDecryptWEP
 .text.RTMP_CALC_FCS32
                0x000cc314       0x54 ./lib/rt3070.a(cmm_wep.o)
                0x000cc314                RTMP_CALC_FCS32
 .text.RTMPConstructWEPIVHdr
                0x000cc368       0x48 ./lib/rt3070.a(cmm_wep.o)
                0x000cc368                RTMPConstructWEPIVHdr
 .text.RTMPSoftEncryptWEP
                0x000cc3b0       0xf8 ./lib/rt3070.a(cmm_wep.o)
                0x000cc3b0                RTMPSoftEncryptWEP
 .text.ARC4_INIT
                0x000cc4a8       0x80 ./lib/rt3070.a(crypt_arc4.o)
                0x000cc4a8                ARC4_INIT
 .text.ARC4_Compute
                0x000cc528       0x88 ./lib/rt3070.a(crypt_arc4.o)
                0x000cc528                ARC4_Compute
 .text.ARC4_Discard_KeyLength
                0x000cc5b0       0x64 ./lib/rt3070.a(crypt_arc4.o)
                0x000cc5b0                ARC4_Discard_KeyLength
 .text.DH_PublicKey_Generate
                0x000cc614      0x110 ./lib/rt3070.a(crypt_dh.o)
                0x000cc614                DH_PublicKey_Generate
 .text.DH_SecretKey_Generate
                0x000cc724      0x10c ./lib/rt3070.a(crypt_dh.o)
                0x000cc724                DH_SecretKey_Generate
 .text.eFuseReadRegisters
                0x000cc830      0x160 ./lib/rt3070.a(ee_efuse.o)
 .text.eFusePhysicalReadRegisters
                0x000cc990      0x11c ./lib/rt3070.a(ee_efuse.o)
                0x000cc990                eFusePhysicalReadRegisters
 .text.eFusePhysicalWriteRegisters
                0x000ccaac      0x224 ./lib/rt3070.a(ee_efuse.o)
 .text.eFuseWriteRegisters
                0x000cccd0      0x62c ./lib/rt3070.a(ee_efuse.o)
 .text.eFuseWrite
                0x000cd2fc      0x164 ./lib/rt3070.a(ee_efuse.o)
                0x000cd2fc                eFuseWrite
 .text.eFuse_init
                0x000cd460       0xdc ./lib/rt3070.a(ee_efuse.o)
                0x000cd460                eFuse_init
 .text.RtmpEfuseSupportCheck
                0x000cd53c       0x88 ./lib/rt3070.a(ee_efuse.o)
                0x000cd53c                RtmpEfuseSupportCheck
 .text.eFuseLoadEEPROM
                0x000cd5c4       0x14 ./lib/rt3070.a(ee_efuse.o)
                0x000cd5c4                eFuseLoadEEPROM
 .text.rtmp_ee_efuse_read16
                0x000cd5d8       0x84 ./lib/rt3070.a(ee_efuse.o)
                0x000cd5d8                rtmp_ee_efuse_read16
 .text.rtmp_ee_efuse_write16
                0x000cd65c       0x88 ./lib/rt3070.a(ee_efuse.o)
                0x000cd65c                rtmp_ee_efuse_write16
 .text.eFuseWritePhysical
                0x000cd6e4       0x68 ./lib/rt3070.a(ee_efuse.o)
 .text.RtmpChipOpsEepromHook
                0x000cd74c      0x100 ./lib/rt3070.a(eeprom_rt3070.o)
                0x000cd74c                RtmpChipOpsEepromHook
 .text.RTMPFilterCalibration
                0x000cd84c      0x380 ./lib/rt3070.a(rt30xx.o)
                0x000cd84c                RTMPFilterCalibration
 .text.RT30xxLoadRFNormalModeSetup
                0x000cdbcc      0x1a0 ./lib/rt3070.a(rt30xx.o)
                0x000cdbcc                RT30xxLoadRFNormalModeSetup
 .text.RT30xxLoadRFSleepModeSetup
                0x000cdd6c      0x1b4 ./lib/rt3070.a(rt30xx.o)
                0x000cdd6c                RT30xxLoadRFSleepModeSetup
 .text.RT30xxReverseRFSleepModeSetup
                0x000cdf20      0x2b8 ./lib/rt3070.a(rt30xx.o)
                0x000cdf20                RT30xxReverseRFSleepModeSetup
 .text.RT30xxHaltAction
                0x000ce1d8       0x80 ./lib/rt3070.a(rt30xx.o)
                0x000ce1d8                RT30xxHaltAction
 .text.RT30xxSetRxAnt
                0x000ce258       0xec ./lib/rt3070.a(rt30xx.o)
                0x000ce258                RT30xxSetRxAnt
 .text.NICInitRT3070RFRegisters
                0x000ce344      0x420 ./lib/rt3070.a(rt3070.o)
                0x000ce344                NICInitRT3070RFRegisters
 .text.RtmpOSIRQRequest
                0x000ce764       0x14 ./lib/rt3070.a(rt_main_dev.o)
                0x000ce764                RtmpOSIRQRequest
 .text.RtmpOSIRQRelease
                0x000ce778       0x14 ./lib/rt3070.a(rt_main_dev.o)
                0x000ce778                RtmpOSIRQRelease
 .text.RtmpPhyNetDevInit
                0x000ce78c       0x28 ./lib/rt3070.a(rt_main_dev.o)
                0x000ce78c                RtmpPhyNetDevInit
 .text.rt28xx_open
                0x000ce7b4       0x8c ./lib/rt3070.a(rt_main_dev.o)
                0x000ce7b4                rt28xx_open
 .text.rt28xx_send_packets
                0x000ce840       0xcc ./lib/rt3070.a(rt_main_dev.o)
                0x000ce840                rt28xx_send_packets
 .text.MainVirtualIF_open
                0x000ce90c       0x50 ./lib/rt3070.a(rt_main_dev.o)
                0x000ce90c                MainVirtualIF_open
 .text.rt28xx_init
                0x000ce95c      0x3e0 ./lib/rt3070.a(rtmp_init_inf.o)
                0x000ce95c                rt28xx_init
 .text.MeasureReqDelete
                0x000ced3c      0x108 ./lib/rt3070.a(spectrum.o)
                0x000ced3c                MeasureReqDelete
 .text.TpcReqDelete
                0x000cee44      0x108 ./lib/rt3070.a(spectrum.o)
 .text.EnqueueMeasurementRep
                0x000cef4c      0x1d4 ./lib/rt3070.a(spectrum.o)
                0x000cef4c                EnqueueMeasurementRep
 .text.EnqueueTPCRep
                0x000cf120      0x15c ./lib/rt3070.a(spectrum.o)
                0x000cf120                EnqueueTPCRep
 .text.PeerMeasureReqSanity
                0x000cf27c      0x45c ./lib/rt3070.a(spectrum.o)
 .text.PeerMeasureReportSanity
                0x000cf6d8      0x170 ./lib/rt3070.a(spectrum.o)
 .text.PeerChSwAnnAction
                0x000cf848      0x244 ./lib/rt3070.a(spectrum.o)
 .text.PeerMeasureReportAction
                0x000cfa8c      0x1e0 ./lib/rt3070.a(spectrum.o)
 .text.PeerTpcReqAction
                0x000cfc6c      0x154 ./lib/rt3070.a(spectrum.o)
 .text.PeerTpcRepAction
                0x000cfdc0      0x130 ./lib/rt3070.a(spectrum.o)
 .text.PeerSpectrumAction
                0x000cfef0      0x15c ./lib/rt3070.a(spectrum.o)
                0x000cfef0                PeerSpectrumAction
 .text.MeasureReqTabInit
                0x000d004c       0x5c ./lib/rt3070.a(spectrum.o)
                0x000d004c                MeasureReqTabInit
 .text.MeasureReqTabExit
                0x000d00a8       0x40 ./lib/rt3070.a(spectrum.o)
                0x000d00a8                MeasureReqTabExit
 .text.TpcReqTabInit
                0x000d00e8       0x5c ./lib/rt3070.a(spectrum.o)
                0x000d00e8                TpcReqTabInit
 .text.TpcReqTabExit
                0x000d0144       0x40 ./lib/rt3070.a(spectrum.o)
                0x000d0144                TpcReqTabExit
 .text.Set_WscConfMode_Proc
                0x000d0184       0xfc ./lib/rt3070.a(sta_cfg.o)
                0x000d0184                Set_WscConfMode_Proc
 .text.Set_WscMode_Proc
                0x000d0280       0x44 ./lib/rt3070.a(sta_cfg.o)
                0x000d0280                Set_WscMode_Proc
 .text.Set_WscGetConf_Proc
                0x000d02c4       0x14 ./lib/rt3070.a(sta_cfg.o)
                0x000d02c4                Set_WscGetConf_Proc
 .text.StaSiteSurvey
                0x000d02d8      0x138 ./lib/rt3070.a(sta_cfg.o)
                0x000d02d8                StaSiteSurvey
 .text.rt_ioctl_siwscan
                0x000d0410      0x100 ./lib/rt3070.a(sta_ioctl.o)
                0x000d0410                rt_ioctl_siwscan
 .text.rt_ioctl_giwscan
                0x000d0510      0x1c4 ./lib/rt3070.a(sta_ioctl.o)
                0x000d0510                rt_ioctl_giwscan
 .text.rt_ioctl_giwessid
                0x000d06d4       0xd4 ./lib/rt3070.a(sta_ioctl.o)
                0x000d06d4                rt_ioctl_giwessid
 .text.rt_ioctl_giwrate
                0x000d07a8      0x154 ./lib/rt3070.a(sta_ioctl.o)
                0x000d07a8                rt_ioctl_giwrate
 .text.rtl871x_get_linkup
                0x000d08fc       0x78 ./lib/rt3070.a(sta_ioctl.o)
                0x000d08fc                rtl871x_get_linkup
 .text.rt_ioctl_giwfreq
                0x000d0974       0x5c ./lib/rt3070.a(sta_ioctl.o)
                0x000d0974                rt_ioctl_giwfreq
 .text.rt_ioctl_giwap
                0x000d09d0       0xa4 ./lib/rt3070.a(sta_ioctl.o)
                0x000d09d0                rt_ioctl_giwap
 .text.rt_ioctl_linkquality
                0x000d0a74       0x74 ./lib/rt3070.a(sta_ioctl.o)
                0x000d0a74                rt_ioctl_linkquality
 .text.rt_ioctl_rssi
                0x000d0ae8       0x78 ./lib/rt3070.a(sta_ioctl.o)
                0x000d0ae8                rt_ioctl_rssi
 .text.BigInteger_AllocSize
                0x000d0b60      0x140 ./lib/rt3070.a(crypt_biginteger.o)
                0x000d0b60                BigInteger_AllocSize
 .text.BigInteger_BI2Bin
                0x000d0ca0      0x168 ./lib/rt3070.a(crypt_biginteger.o)
                0x000d0ca0                BigInteger_BI2Bin
 .text.BigInteger_Add
                0x000d0e08      0x414 ./lib/rt3070.a(crypt_biginteger.o)
                0x000d0e08                BigInteger_Add
 .text.BigInteger_Sub
                0x000d121c      0x710 ./lib/rt3070.a(crypt_biginteger.o)
                0x000d121c                BigInteger_Sub
 .text.BigInteger_Mul
                0x000d192c      0x350 ./lib/rt3070.a(crypt_biginteger.o)
                0x000d192c                BigInteger_Mul
 .text.BigInteger_Square
                0x000d1c7c      0x5f8 ./lib/rt3070.a(crypt_biginteger.o)
                0x000d1c7c                BigInteger_Square
 .text.BigInteger_Div
                0x000d2274      0xbf8 ./lib/rt3070.a(crypt_biginteger.o)
                0x000d2274                BigInteger_Div
 .text.BigInteger_Montgomery_Reduction
                0x000d2e6c      0x46c ./lib/rt3070.a(crypt_biginteger.o)
                0x000d2e6c                BigInteger_Montgomery_Reduction
 .text.BigInteger_Montgomery_ExpMod
                0x000d32d8      0xc1c ./lib/rt3070.a(crypt_biginteger.o)
                0x000d32d8                BigInteger_Montgomery_ExpMod
 .text.BigInteger_Init
                0x000d3ef4       0x74 ./lib/rt3070.a(crypt_biginteger.o)
                0x000d3ef4                BigInteger_Init
 .text.BigInteger_Free
                0x000d3f68       0x68 ./lib/rt3070.a(crypt_biginteger.o)
                0x000d3f68                BigInteger_Free
 .text.BigInteger_Bin2BI
                0x000d3fd0       0x88 ./lib/rt3070.a(crypt_biginteger.o)
                0x000d3fd0                BigInteger_Bin2BI
 .text.RTMPReadParametersHook
                0x000d4058       0x18 ./lib/rt3070.a(rt_profile.o)
                0x000d4058                RTMPReadParametersHook
 .text.RENDEVmDNSDynamicTextRecordAppendCString
                0x000d4070      0x118 ./lib/rendezvous.a(Responder.o)
                0x000d4070                RENDEVmDNSDynamicTextRecordAppendCString
 .text.RegistrationCallback
                0x000d4188       0xf4 ./lib/rendezvous.a(Responder.o)
 .text.RegisterOurServices
                0x000d427c      0x198 ./lib/rendezvous.a(Responder.o)
 .text.Rendezous_txt
                0x000d4414      0x78c ./lib/rendezvous.a(Responder.o)
                0x000d4414                Rendezous_txt
 .text.RENDEV_Reg_UDP
                0x000d4ba0      0x3d8 ./lib/rendezvous.a(Responder.o)
 .text.Rendezous_init
                0x000d4f78       0xe0 ./lib/rendezvous.a(Responder.o)
                0x000d4f78                Rendezous_init
 .text.free_service_list
                0x000d5058       0x54 ./lib/rendezvous.a(Responder.o)
                0x000d5058                free_service_list
 .text.mDNS_vsnprintf
                0x000d50ac      0xbc0 ./lib/rendezvous.a(mDNS.o)
                0x000d50ac                mDNS_vsnprintf
 .text.mDNS_snprintf
                0x000d5c6c       0x20 ./lib/rendezvous.a(mDNS.o)
                0x000d5c6c                mDNS_snprintf
 .text.GetRRDisplayString_rdb
                0x000d5c8c      0x2c0 ./lib/rendezvous.a(mDNS.o)
                0x000d5c8c                GetRRDisplayString_rdb
 .text.mDNSAddrIsDNSMulticast
                0x000d5f4c      0x120 ./lib/rendezvous.a(mDNS.o)
 .text.SameDomainName
                0x000d606c       0xf0 ./lib/rendezvous.a(mDNS.o)
                0x000d606c                SameDomainName
 .text.AppendDNSNameString
                0x000d615c      0x184 ./lib/rendezvous.a(mDNS.o)
                0x000d615c                AppendDNSNameString
 .text.ConstructServiceName
                0x000d62e0      0x318 ./lib/rendezvous.a(mDNS.o)
                0x000d62e0                ConstructServiceName
 .text.DeconstructServiceName
                0x000d65f8      0x118 ./lib/rendezvous.a(mDNS.o)
                0x000d65f8                DeconstructServiceName
 .text.LabelContainsSuffix
                0x000d6710      0x178 ./lib/rendezvous.a(mDNS.o)
 .text.AppendLabelSuffix
                0x000d6888      0x194 ./lib/rendezvous.a(mDNS.o)
 .text.IncrementLabelSuffix
                0x000d6a1c      0x188 ./lib/rendezvous.a(mDNS.o)
                0x000d6a1c                IncrementLabelSuffix
 .text.SameRData
                0x000d6ba4      0x10c ./lib/rendezvous.a(mDNS.o)
 .text.GetRDLength
                0x000d6cb0      0x234 ./lib/rendezvous.a(mDNS.o)
 .text.InitializeLastAPTime
                0x000d6ee4      0x1ac ./lib/rendezvous.a(mDNS.o)
 .text.SetNewRData
                0x000d7090      0x1a4 ./lib/rendezvous.a(mDNS.o)
 .text.SetTargetToHostName
                0x000d7234      0x1a4 ./lib/rendezvous.a(mDNS.o)
 .text.ValidateRData
                0x000d73d8      0x288 ./lib/rendezvous.a(mDNS.o)
 .text.mDNS_Register_internal
                0x000d7660      0xb14 ./lib/rendezvous.a(mDNS.o)
 .text.RecordProbeFailure
                0x000d8174      0x188 ./lib/rendezvous.a(mDNS.o)
 .text.mDNS_Deregister_internal
                0x000d82fc      0x514 ./lib/rendezvous.a(mDNS.o)
 .text.FindCompressionPointer
                0x000d8810      0x160 ./lib/rendezvous.a(mDNS.o)
 .text.putDomainNameAsLabels
                0x000d8970      0x138 ./lib/rendezvous.a(mDNS.o)
 .text.putRData
                0x000d8aa8      0x224 ./lib/rendezvous.a(mDNS.o)
 .text.PutResourceRecordTTL
                0x000d8ccc      0x248 ./lib/rendezvous.a(mDNS.o)
 .text.getDomainName
                0x000d8f14      0x124 ./lib/rendezvous.a(mDNS.o)
 .text.skipResourceRecord
                0x000d9038       0xf8 ./lib/rendezvous.a(mDNS.o)
 .text.GetResourceRecord
                0x000d9130      0x3f4 ./lib/rendezvous.a(mDNS.o)
 .text.LocateAnswers
                0x000d9524      0x138 ./lib/rendezvous.a(mDNS.o)
 .text.mDNSSendDNSMessage
                0x000d965c      0x150 ./lib/rendezvous.a(mDNS.o)
 .text.SendResponses
                0x000d97ac     0x1168 ./lib/rendezvous.a(mDNS.o)
                0x000d97ac                SendResponses
 .text.SetNextCacheCheckTime
                0x000da914      0x208 ./lib/rendezvous.a(mDNS.o)
 .text.mDNS_Reconfirm_internal
                0x000dab1c      0x10c ./lib/rendezvous.a(mDNS.o)
 .text.BuildQuestion
                0x000dac28      0x684 ./lib/rendezvous.a(mDNS.o)
 .text.AccelerateThisQuery
                0x000db2ac      0x308 ./lib/rendezvous.a(mDNS.o)
 .text.SendQueries
                0x000db5b4      0xfb8 ./lib/rendezvous.a(mDNS.o)
 .text.CacheRecordAdd
                0x000dc56c      0x418 ./lib/rendezvous.a(mDNS.o)
 .text.CacheRecordRmv
                0x000dc984      0x3d8 ./lib/rendezvous.a(mDNS.o)
 .text.CheckCacheExpiration
                0x000dcd5c      0x25c ./lib/rendezvous.a(mDNS.o)
 .text.AnswerNewQuestion
                0x000dcfb8      0x4c4 ./lib/rendezvous.a(mDNS.o)
 .text.AnswerNewLocalOnlyQuestion
                0x000dd47c      0x194 ./lib/rendezvous.a(mDNS.o)
 .text.AnswerLocalOnlyQuestions
                0x000dd610      0x178 ./lib/rendezvous.a(mDNS.o)
 .text.GetFreeCacheRR
                0x000dd788      0x25c ./lib/rendezvous.a(mDNS.o)
 .text.mDNS_Lock
                0x000dd9e4       0xf0 ./lib/rendezvous.a(mDNS.o)
 .text.GetNextScheduledEvent
                0x000ddad4       0xcc ./lib/rendezvous.a(mDNS.o)
 .text.mDNS_Execute
                0x000ddba0      0x49c ./lib/rendezvous.a(mDNS.o)
                0x000ddba0                mDNS_Execute
 .text.mDNSCoreMachineSleep
                0x000de03c      0x2b8 ./lib/rendezvous.a(mDNS.o)
                0x000de03c                mDNSCoreMachineSleep
 .text.GenerateUnicastResponse
                0x000de2f4      0x398 ./lib/rendezvous.a(mDNS.o)
 .text.CompareRData
                0x000de68c       0xe4 ./lib/rendezvous.a(mDNS.o)
 .text.MatchDependentOn
                0x000de770      0x1c8 ./lib/rendezvous.a(mDNS.o)
 .text.PacketRRConflict
                0x000de938      0x13c ./lib/rendezvous.a(mDNS.o)
 .text.ResolveSimultaneousProbe
                0x000dea74      0x268 ./lib/rendezvous.a(mDNS.o)
 .text.FindIdenticalRecordInCache
                0x000decdc      0x18c ./lib/rendezvous.a(mDNS.o)
 .text.ProcessQuery
                0x000dee68     0x1620 ./lib/rendezvous.a(mDNS.o)
 .text.mDNSCoreReceiveResponse
                0x000e0488      0x9b4 ./lib/rendezvous.a(mDNS.o)
 .text.mDNSCoreReceive
                0x000e0e3c      0x3ec ./lib/rendezvous.a(mDNS.o)
                0x000e0e3c                mDNSCoreReceive
 .text.mDNS_AdvertiseInterface
                0x000e1228      0x53c ./lib/rendezvous.a(mDNS.o)
 .text.mDNS_GenerateFQDN
                0x000e1764      0x408 ./lib/rendezvous.a(mDNS.o)
                0x000e1764                mDNS_GenerateFQDN
 .text.HostNameCallback
                0x000e1b6c      0x13c ./lib/rendezvous.a(mDNS.o)
 .text.mDNS_RegisterInterface
                0x000e1ca8      0x3f0 ./lib/rendezvous.a(mDNS.o)
                0x000e1ca8                mDNS_RegisterInterface
 .text.mDNS_DeregisterInterface
                0x000e2098      0x4f0 ./lib/rendezvous.a(mDNS.o)
                0x000e2098                mDNS_DeregisterInterface
 .text.mDNS_RegisterService
                0x000e2588      0x91c ./lib/rendezvous.a(mDNS.o)
                0x000e2588                mDNS_RegisterService
 .text.mDNS_AddRecordToService
                0x000e2ea4      0x240 ./lib/rendezvous.a(mDNS.o)
                0x000e2ea4                mDNS_AddRecordToService
 .text.mDNS_DeregisterService
                0x000e30e4      0x158 ./lib/rendezvous.a(mDNS.o)
                0x000e30e4                mDNS_DeregisterService
 .text.mDNS_Init
                0x000e323c      0x214 ./lib/rendezvous.a(mDNS.o)
                0x000e323c                mDNS_Init
 .text.mDNS_RenameAndReregisterService
                0x000e3450      0x140 ./lib/rendezvous.a(mDNS.o)
                0x000e3450                mDNS_RenameAndReregisterService
 .text.MakeDomainLabelFromLiteralString
                0x000e3590       0x5c ./lib/rendezvous.a(mDNS.o)
                0x000e3590                MakeDomainLabelFromLiteralString
 .text.MakeDomainNameFromDNSNameString
                0x000e35ec       0x20 ./lib/rendezvous.a(mDNS.o)
                0x000e35ec                MakeDomainNameFromDNSNameString
 .text.mDNSCoreInitComplete
                0x000e360c       0x2c ./lib/rendezvous.a(mDNS.o)
                0x000e360c                mDNSCoreInitComplete
 .text.ServiceCallback
                0x000e3638       0xc8 ./lib/rendezvous.a(mDNS.o)
 .text.LogMsg   0x000e3700       0x14 ./lib/rendezvous.a(mDNSPosix.o)
                0x000e3700                LogMsg
 .text.SocketDataReady
                0x000e3714      0x2e4 ./lib/rendezvous.a(mDNSPosix.o)
                0x000e3714                SocketDataReady
 .text.SetupSocket
                0x000e39f8      0x120 ./lib/rendezvous.a(mDNSPosix.o)
 .text.SetupOneInterface
                0x000e3b18      0x1c0 ./lib/rendezvous.a(mDNSPosix.o)
 .text.SetupInterfaceList
                0x000e3cd8      0x110 ./lib/rendezvous.a(mDNSPosix.o)
 .text.mDNSPlatformInit
                0x000e3de8      0x130 ./lib/rendezvous.a(mDNSPosix.o)
                0x000e3de8                mDNSPlatformInit
 .text.mDNSPlatformTimeNow
                0x000e3f18       0x5c ./lib/rendezvous.a(mDNSPosix.o)
                0x000e3f18                mDNSPlatformTimeNow
 .text.mDNSPlatformSendUDP
                0x000e3f74       0xb4 ./lib/rendezvous.a(mDNSPosix.o)
                0x000e3f74                mDNSPlatformSendUDP
 .text.mDNSPlatformLock
                0x000e4028       0x10 ./lib/rendezvous.a(mDNSPosix.o)
                0x000e4028                mDNSPlatformLock
 .text.mDNSPlatformUnlock
                0x000e4038       0x10 ./lib/rendezvous.a(mDNSPosix.o)
                0x000e4038                mDNSPlatformUnlock
 .text.mDNSPlatformMemCopy
                0x000e4048       0x20 ./lib/rendezvous.a(mDNSPosix.o)
                0x000e4048                mDNSPlatformMemCopy
 .text.mDNSPlatformMemSame
                0x000e4068       0x2c ./lib/rendezvous.a(mDNSPosix.o)
                0x000e4068                mDNSPlatformMemSame
 .text.mDNSPlatformMemZero
                0x000e4094       0x1c ./lib/rendezvous.a(mDNSPosix.o)
                0x000e4094                mDNSPlatformMemZero
 .text.mDNSPlatformMemAllocate
                0x000e40b0       0x14 ./lib/rendezvous.a(mDNSPosix.o)
                0x000e40b0                mDNSPlatformMemAllocate
 .text.mDNSPlatformMemFree
                0x000e40c4       0x14 ./lib/rendezvous.a(mDNSPosix.o)
                0x000e40c4                mDNSPlatformMemFree
 .text.mDNSPlatformTimeInit
                0x000e40d8       0x20 ./lib/rendezvous.a(mDNSPosix.o)
                0x000e40d8                mDNSPlatformTimeInit
 .text.ClearInterfaceList
                0x000e40f8       0xd4 ./lib/rendezvous.a(mDNSPosix.o)
                0x000e40f8                ClearInterfaceList
 .text.get_ifi_info
                0x000e41cc       0xec ./lib/rendezvous.a(mDNSUNP.o)
                0x000e41cc                get_ifi_info
 .text.if_nametoindex
                0x000e42b8      0x110 ./lib/rendezvous.a(mDNSUNP.o)
                0x000e42b8                if_nametoindex
 .text.free_ifi_info
                0x000e43c8       0x5c ./lib/rendezvous.a(mDNSUNP.o)
                0x000e43c8                free_ifi_info
 .text.haldiag_set_config
                0x000e4424       0x28 /cygdrive/C/ZOTDWP2020_SDK_0.01/ecos/ecos_install/lib/extras.o
 .text.haldiag_getc
                0x000e444c       0x20 /cygdrive/C/ZOTDWP2020_SDK_0.01/ecos/ecos_install/lib/extras.o
 .text.haldiag_putc
                0x000e446c       0x1c /cygdrive/C/ZOTDWP2020_SDK_0.01/ecos/ecos_install/lib/extras.o
 .text.haldiag_init
                0x000e4488       0x1c /cygdrive/C/ZOTDWP2020_SDK_0.01/ecos/ecos_install/lib/extras.o
 .text.haldiag_config_port
                0x000e44a4       0x10 /cygdrive/C/ZOTDWP2020_SDK_0.01/ecos/ecos_install/lib/extras.o
 .text.tty_set_config
                0x000e44b4       0x5c /cygdrive/C/ZOTDWP2020_SDK_0.01/ecos/ecos_install/lib/extras.o
 .text.tty_get_config
                0x000e4510       0x64 /cygdrive/C/ZOTDWP2020_SDK_0.01/ecos/ecos_install/lib/extras.o
 .text.tty_read
                0x000e4574      0x148 /cygdrive/C/ZOTDWP2020_SDK_0.01/ecos/ecos_install/lib/extras.o
 .text.tty_write
                0x000e46bc       0xdc /cygdrive/C/ZOTDWP2020_SDK_0.01/ecos/ecos_install/lib/extras.o
 .text.tty_lookup
                0x000e4798       0x20 /cygdrive/C/ZOTDWP2020_SDK_0.01/ecos/ecos_install/lib/extras.o
 .text.tty_init
                0x000e47b8       0x24 /cygdrive/C/ZOTDWP2020_SDK_0.01/ecos/ecos_install/lib/extras.o
 .text.serial_rcv_char
                0x000e47dc       0x58 /cygdrive/C/ZOTDWP2020_SDK_0.01/ecos/ecos_install/lib/extras.o
 .text.serial_xmt_char
                0x000e4834       0xe8 /cygdrive/C/ZOTDWP2020_SDK_0.01/ecos/ecos_install/lib/extras.o
 .text.serial_set_config
                0x000e491c       0x60 /cygdrive/C/ZOTDWP2020_SDK_0.01/ecos/ecos_install/lib/extras.o
 .text.serial_get_config
                0x000e497c      0x1ec /cygdrive/C/ZOTDWP2020_SDK_0.01/ecos/ecos_install/lib/extras.o
 .text.serial_read
                0x000e4b68      0x13c /cygdrive/C/ZOTDWP2020_SDK_0.01/ecos/ecos_install/lib/extras.o
 .text.serial_write
                0x000e4ca4      0x16c /cygdrive/C/ZOTDWP2020_SDK_0.01/ecos/ecos_install/lib/extras.o
 .text.serial_init
                0x000e4e10       0x98 /cygdrive/C/ZOTDWP2020_SDK_0.01/ecos/ecos_install/lib/extras.o
 .text._GLOBAL_.I.49000._ecos_c_ecos_1.3.1_packages_io_common_v1_3_1_src_ioinit.cxxVGI19a
                0x000e4ea8       0x20 /cygdrive/C/ZOTDWP2020_SDK_0.01/ecos/ecos_install/lib/extras.o
 .text.__static_initialization_and_destruction_0
                0x000e4ec8       0x30 /cygdrive/C/ZOTDWP2020_SDK_0.01/ecos/ecos_install/lib/extras.o
 .text.cyg_io_set_config
                0x000e4ef8       0x5c /cygdrive/C/ZOTDWP2020_SDK_0.01/ecos/ecos_install/lib/extras.o
                0x000e4ef8                cyg_io_set_config
 .text.cyg_io_get_config
                0x000e4f54       0x5c /cygdrive/C/ZOTDWP2020_SDK_0.01/ecos/ecos_install/lib/extras.o
                0x000e4f54                cyg_io_get_config
 .text.cyg_io_read
                0x000e4fb0       0x54 /cygdrive/C/ZOTDWP2020_SDK_0.01/ecos/ecos_install/lib/extras.o
                0x000e4fb0                cyg_io_read
 .text.cyg_io_write
                0x000e5004       0x54 /cygdrive/C/ZOTDWP2020_SDK_0.01/ecos/ecos_install/lib/extras.o
                0x000e5004                cyg_io_write
 .text.cyg_io_lookup
                0x000e5058       0xd4 /cygdrive/C/ZOTDWP2020_SDK_0.01/ecos/ecos_install/lib/extras.o
                0x000e5058                cyg_io_lookup
 .text.cyg_io_init
                0x000e512c       0x74 /cygdrive/C/ZOTDWP2020_SDK_0.01/ecos/ecos_install/lib/extras.o
                0x000e512c                cyg_io_init
 .text.cyg_io_compare
                0x000e51a0       0x84 /cygdrive/C/ZOTDWP2020_SDK_0.01/ecos/ecos_install/lib/extras.o
 .text.cyg_start
                0x000e5224       0x20 /cygdrive/C/ZOTDWP2020_SDK_0.01/ecos/ecos_install/lib/libtarget.a(infra_startup.o)
                0x000e5224                cyg_start
 .text.cyg_prestart
                0x000e5244       0x10 /cygdrive/C/ZOTDWP2020_SDK_0.01/ecos/ecos_install/lib/libtarget.a(infra_prestart.o)
                0x000e5244                cyg_prestart
 .text.cyg_package_start
                0x000e5254       0x10 /cygdrive/C/ZOTDWP2020_SDK_0.01/ecos/ecos_install/lib/libtarget.a(infra_pkgstart.o)
                0x000e5254                cyg_package_start
 .text.diag_write_char
                0x000e5264       0x2c /cygdrive/C/ZOTDWP2020_SDK_0.01/ecos/ecos_install/lib/libtarget.a(infra_diag.o)
                0x000e5264                diag_write_char
 .text.diag_write_string
                0x000e5290       0x34 /cygdrive/C/ZOTDWP2020_SDK_0.01/ecos/ecos_install/lib/libtarget.a(infra_diag.o)
                0x000e5290                diag_write_string
 .text.diag_write_hex
                0x000e52c4       0x28 /cygdrive/C/ZOTDWP2020_SDK_0.01/ecos/ecos_install/lib/libtarget.a(infra_diag.o)
                0x000e52c4                diag_write_hex
 .text.diag_write_num
                0x000e52ec       0xd8 /cygdrive/C/ZOTDWP2020_SDK_0.01/ecos/ecos_install/lib/libtarget.a(infra_diag.o)
                0x000e52ec                diag_write_num
 .text.diag_check_string__FPCc
                0x000e53c4       0x78 /cygdrive/C/ZOTDWP2020_SDK_0.01/ecos/ecos_install/lib/libtarget.a(infra_diag.o)
 .text.diag_vprintf
                0x000e543c      0x408 /cygdrive/C/ZOTDWP2020_SDK_0.01/ecos/ecos_install/lib/libtarget.a(infra_diag.o)
                0x000e543c                diag_vprintf
 .text.diag_printf
                0x000e5844       0x64 /cygdrive/C/ZOTDWP2020_SDK_0.01/ecos/ecos_install/lib/libtarget.a(infra_diag.o)
                0x000e5844                diag_printf
 .text.__static_initialization_and_destruction_0
                0x000e58a8       0x30 /cygdrive/C/ZOTDWP2020_SDK_0.01/ecos/ecos_install/lib/libtarget.a(infra_diag.o)
 .text._GLOBAL_.I.10100.diag_write_char
                0x000e58d8       0x20 /cygdrive/C/ZOTDWP2020_SDK_0.01/ecos/ecos_install/lib/libtarget.a(infra_diag.o)
 .text._memcpy  0x000e58f8       0xd4 /cygdrive/C/ZOTDWP2020_SDK_0.01/ecos/ecos_install/lib/libtarget.a(infra_memcpy.o)
                0x000e58f8                memcpy
                0x000e58f8                _memcpy
 .text._memset  0x000e59cc       0xb0 /cygdrive/C/ZOTDWP2020_SDK_0.01/ecos/ecos_install/lib/libtarget.a(infra_memset.o)
                0x000e59cc                _memset
                0x000e59cc                memset
 .text.cyg_scheduler_lock
                0x000e5a7c       0x28 /cygdrive/C/ZOTDWP2020_SDK_0.01/ecos/ecos_install/lib/libtarget.a(kernel_kapi.o)
                0x000e5a7c                cyg_scheduler_lock
 .text.cyg_scheduler_unlock
                0x000e5aa4       0x44 /cygdrive/C/ZOTDWP2020_SDK_0.01/ecos/ecos_install/lib/libtarget.a(kernel_kapi.o)
                0x000e5aa4                cyg_scheduler_unlock
 .text.cyg_thread_create
                0x000e5ae8       0x54 /cygdrive/C/ZOTDWP2020_SDK_0.01/ecos/ecos_install/lib/libtarget.a(kernel_kapi.o)
                0x000e5ae8                cyg_thread_create
 .text.cyg_thread_exit
                0x000e5b3c       0x14 /cygdrive/C/ZOTDWP2020_SDK_0.01/ecos/ecos_install/lib/libtarget.a(kernel_kapi.o)
                0x000e5b3c                cyg_thread_exit
 .text.cyg_thread_delete
                0x000e5b50       0x44 /cygdrive/C/ZOTDWP2020_SDK_0.01/ecos/ecos_install/lib/libtarget.a(kernel_kapi.o)
                0x000e5b50                cyg_thread_delete
 .text.cyg_thread_suspend
                0x000e5b94       0x14 /cygdrive/C/ZOTDWP2020_SDK_0.01/ecos/ecos_install/lib/libtarget.a(kernel_kapi.o)
                0x000e5b94                cyg_thread_suspend
 .text.cyg_thread_resume
                0x000e5ba8       0x2c /cygdrive/C/ZOTDWP2020_SDK_0.01/ecos/ecos_install/lib/libtarget.a(kernel_kapi.o)
                0x000e5ba8                cyg_thread_resume
 .text.cyg_thread_yield
                0x000e5bd4       0x24 /cygdrive/C/ZOTDWP2020_SDK_0.01/ecos/ecos_install/lib/libtarget.a(kernel_kapi.o)
                0x000e5bd4                cyg_thread_yield
 .text.cyg_thread_self
                0x000e5bf8       0x1c /cygdrive/C/ZOTDWP2020_SDK_0.01/ecos/ecos_install/lib/libtarget.a(kernel_kapi.o)
                0x000e5bf8                cyg_thread_self
 .text.cyg_thread_delay
                0x000e5c14       0x28 /cygdrive/C/ZOTDWP2020_SDK_0.01/ecos/ecos_install/lib/libtarget.a(kernel_kapi.o)
                0x000e5c14                cyg_thread_delay
 .text.cyg_interrupt_create
                0x000e5c3c       0x48 /cygdrive/C/ZOTDWP2020_SDK_0.01/ecos/ecos_install/lib/libtarget.a(kernel_kapi.o)
                0x000e5c3c                cyg_interrupt_create
 .text.cyg_interrupt_attach
                0x000e5c84       0x14 /cygdrive/C/ZOTDWP2020_SDK_0.01/ecos/ecos_install/lib/libtarget.a(kernel_kapi.o)
                0x000e5c84                cyg_interrupt_attach
 .text.cyg_interrupt_disable
                0x000e5c98       0x14 /cygdrive/C/ZOTDWP2020_SDK_0.01/ecos/ecos_install/lib/libtarget.a(kernel_kapi.o)
                0x000e5c98                cyg_interrupt_disable
 .text.cyg_interrupt_enable
                0x000e5cac       0x14 /cygdrive/C/ZOTDWP2020_SDK_0.01/ecos/ecos_install/lib/libtarget.a(kernel_kapi.o)
                0x000e5cac                cyg_interrupt_enable
 .text.cyg_interrupt_mask
                0x000e5cc0       0x14 /cygdrive/C/ZOTDWP2020_SDK_0.01/ecos/ecos_install/lib/libtarget.a(kernel_kapi.o)
                0x000e5cc0                cyg_interrupt_mask
 .text.cyg_interrupt_acknowledge
                0x000e5cd4       0x14 /cygdrive/C/ZOTDWP2020_SDK_0.01/ecos/ecos_install/lib/libtarget.a(kernel_kapi.o)
                0x000e5cd4                cyg_interrupt_acknowledge
 .text.cyg_counter_delete
                0x000e5ce8       0x18 /cygdrive/C/ZOTDWP2020_SDK_0.01/ecos/ecos_install/lib/libtarget.a(kernel_kapi.o)
                0x000e5ce8                cyg_counter_delete
 .text.cyg_clock_delete
                0x000e5d00       0x18 /cygdrive/C/ZOTDWP2020_SDK_0.01/ecos/ecos_install/lib/libtarget.a(kernel_kapi.o)
                0x000e5d00                cyg_clock_delete
 .text.cyg_clock_to_counter
                0x000e5d18       0x14 /cygdrive/C/ZOTDWP2020_SDK_0.01/ecos/ecos_install/lib/libtarget.a(kernel_kapi.o)
                0x000e5d18                cyg_clock_to_counter
 .text.cyg_real_time_clock
                0x000e5d2c       0x1c /cygdrive/C/ZOTDWP2020_SDK_0.01/ecos/ecos_install/lib/libtarget.a(kernel_kapi.o)
                0x000e5d2c                cyg_real_time_clock
 .text.cyg_current_time
                0x000e5d48       0x20 /cygdrive/C/ZOTDWP2020_SDK_0.01/ecos/ecos_install/lib/libtarget.a(kernel_kapi.o)
                0x000e5d48                cyg_current_time
 .text.cyg_alarm_create
                0x000e5d68       0x3c /cygdrive/C/ZOTDWP2020_SDK_0.01/ecos/ecos_install/lib/libtarget.a(kernel_kapi.o)
                0x000e5d68                cyg_alarm_create
 .text.cyg_alarm_delete
                0x000e5da4       0x18 /cygdrive/C/ZOTDWP2020_SDK_0.01/ecos/ecos_install/lib/libtarget.a(kernel_kapi.o)
                0x000e5da4                cyg_alarm_delete
 .text.cyg_alarm_initialize
                0x000e5dbc       0x28 /cygdrive/C/ZOTDWP2020_SDK_0.01/ecos/ecos_install/lib/libtarget.a(kernel_kapi.o)
                0x000e5dbc                cyg_alarm_initialize
 .text.cyg_alarm_disable
                0x000e5de4       0x28 /cygdrive/C/ZOTDWP2020_SDK_0.01/ecos/ecos_install/lib/libtarget.a(kernel_kapi.o)
                0x000e5de4                cyg_alarm_disable
 .text.cyg_mbox_create
                0x000e5e0c       0x24 /cygdrive/C/ZOTDWP2020_SDK_0.01/ecos/ecos_install/lib/libtarget.a(kernel_kapi.o)
                0x000e5e0c                cyg_mbox_create
 .text.cyg_mbox_delete
                0x000e5e30       0x18 /cygdrive/C/ZOTDWP2020_SDK_0.01/ecos/ecos_install/lib/libtarget.a(kernel_kapi.o)
                0x000e5e30                cyg_mbox_delete
 .text.cyg_mbox_get
                0x000e5e48       0x14 /cygdrive/C/ZOTDWP2020_SDK_0.01/ecos/ecos_install/lib/libtarget.a(kernel_kapi.o)
                0x000e5e48                cyg_mbox_get
 .text.cyg_mbox_timed_get
                0x000e5e5c       0x14 /cygdrive/C/ZOTDWP2020_SDK_0.01/ecos/ecos_install/lib/libtarget.a(kernel_kapi.o)
                0x000e5e5c                cyg_mbox_timed_get
 .text.cyg_mbox_put
                0x000e5e70       0x18 /cygdrive/C/ZOTDWP2020_SDK_0.01/ecos/ecos_install/lib/libtarget.a(kernel_kapi.o)
                0x000e5e70                cyg_mbox_put
 .text.cyg_semaphore_init
                0x000e5e88       0x14 /cygdrive/C/ZOTDWP2020_SDK_0.01/ecos/ecos_install/lib/libtarget.a(kernel_kapi.o)
                0x000e5e88                cyg_semaphore_init
 .text.cyg_semaphore_destroy
                0x000e5e9c       0x18 /cygdrive/C/ZOTDWP2020_SDK_0.01/ecos/ecos_install/lib/libtarget.a(kernel_kapi.o)
                0x000e5e9c                cyg_semaphore_destroy
 .text.cyg_semaphore_wait
                0x000e5eb4       0x14 /cygdrive/C/ZOTDWP2020_SDK_0.01/ecos/ecos_install/lib/libtarget.a(kernel_kapi.o)
                0x000e5eb4                cyg_semaphore_wait
 .text.cyg_semaphore_timed_wait
                0x000e5ec8       0x18 /cygdrive/C/ZOTDWP2020_SDK_0.01/ecos/ecos_install/lib/libtarget.a(kernel_kapi.o)
                0x000e5ec8                cyg_semaphore_timed_wait
 .text.cyg_semaphore_post
                0x000e5ee0       0x14 /cygdrive/C/ZOTDWP2020_SDK_0.01/ecos/ecos_install/lib/libtarget.a(kernel_kapi.o)
                0x000e5ee0                cyg_semaphore_post
 .text.cyg_mutex_init
                0x000e5ef4       0x14 /cygdrive/C/ZOTDWP2020_SDK_0.01/ecos/ecos_install/lib/libtarget.a(kernel_kapi.o)
                0x000e5ef4                cyg_mutex_init
 .text.cyg_mutex_destroy
                0x000e5f08       0x18 /cygdrive/C/ZOTDWP2020_SDK_0.01/ecos/ecos_install/lib/libtarget.a(kernel_kapi.o)
                0x000e5f08                cyg_mutex_destroy
 .text.cyg_mutex_lock
                0x000e5f20       0x18 /cygdrive/C/ZOTDWP2020_SDK_0.01/ecos/ecos_install/lib/libtarget.a(kernel_kapi.o)
                0x000e5f20                cyg_mutex_lock
 .text.cyg_mutex_unlock
                0x000e5f38       0x14 /cygdrive/C/ZOTDWP2020_SDK_0.01/ecos/ecos_install/lib/libtarget.a(kernel_kapi.o)
                0x000e5f38                cyg_mutex_unlock
 .text.cyg_mutex_release
                0x000e5f4c       0x14 /cygdrive/C/ZOTDWP2020_SDK_0.01/ecos/ecos_install/lib/libtarget.a(kernel_kapi.o)
                0x000e5f4c                cyg_mutex_release
 .text.cyg_cond_init
                0x000e5f60       0x14 /cygdrive/C/ZOTDWP2020_SDK_0.01/ecos/ecos_install/lib/libtarget.a(kernel_kapi.o)
                0x000e5f60                cyg_cond_init
 .text.cyg_cond_wait
                0x000e5f74       0x14 /cygdrive/C/ZOTDWP2020_SDK_0.01/ecos/ecos_install/lib/libtarget.a(kernel_kapi.o)
                0x000e5f74                cyg_cond_wait
 .text.cyg_cond_signal
                0x000e5f88       0x14 /cygdrive/C/ZOTDWP2020_SDK_0.01/ecos/ecos_install/lib/libtarget.a(kernel_kapi.o)
                0x000e5f88                cyg_cond_signal
 .text.cyg_cond_broadcast
                0x000e5f9c       0x14 /cygdrive/C/ZOTDWP2020_SDK_0.01/ecos/ecos_install/lib/libtarget.a(kernel_kapi.o)
                0x000e5f9c                cyg_cond_broadcast
 .text.thread_entry__18Cyg_HardwareThreadP10Cyg_Thread
                0x000e5fb0       0x60 /cygdrive/C/ZOTDWP2020_SDK_0.01/ecos/ecos_install/lib/libtarget.a(kernel_thread.o)
                0x000e5fb0                Cyg_HardwareThread::thread_entry(Cyg_Thread *)
 .text.__10Cyg_ThreadUiPFUi_vUiPcUiUi
                0x000e6010      0x1b4 /cygdrive/C/ZOTDWP2020_SDK_0.01/ecos/ecos_install/lib/libtarget.a(kernel_thread.o)
                0x000e6010                Cyg_Thread::Cyg_Thread(unsigned int, void (*)(unsigned int), unsigned int, char *, unsigned int, unsigned int)
 .text.reinitialize__10Cyg_Thread
                0x000e61c4       0x80 /cygdrive/C/ZOTDWP2020_SDK_0.01/ecos/ecos_install/lib/libtarget.a(kernel_thread.o)
                0x000e61c4                Cyg_Thread::reinitialize(void)
 .text._._10Cyg_Thread
                0x000e6244       0xc8 /cygdrive/C/ZOTDWP2020_SDK_0.01/ecos/ecos_install/lib/libtarget.a(kernel_thread.o)
                0x000e6244                Cyg_Thread::~Cyg_Thread(void)
 .text.sleep__10Cyg_Thread
                0x000e630c       0x7c /cygdrive/C/ZOTDWP2020_SDK_0.01/ecos/ecos_install/lib/libtarget.a(kernel_thread.o)
                0x000e630c                Cyg_Thread::sleep(void)
 .text.wake__10Cyg_Thread
                0x000e6388       0xa0 /cygdrive/C/ZOTDWP2020_SDK_0.01/ecos/ecos_install/lib/libtarget.a(kernel_thread.o)
                0x000e6388                Cyg_Thread::wake(void)
 .text.suspend__10Cyg_Thread
                0x000e6428       0x80 /cygdrive/C/ZOTDWP2020_SDK_0.01/ecos/ecos_install/lib/libtarget.a(kernel_thread.o)
                0x000e6428                Cyg_Thread::suspend(void)
 .text.resume__10Cyg_Thread
                0x000e64a8       0x94 /cygdrive/C/ZOTDWP2020_SDK_0.01/ecos/ecos_install/lib/libtarget.a(kernel_thread.o)
                0x000e64a8                Cyg_Thread::resume(void)
 .text.force_resume__10Cyg_Thread
                0x000e653c       0x88 /cygdrive/C/ZOTDWP2020_SDK_0.01/ecos/ecos_install/lib/libtarget.a(kernel_thread.o)
                0x000e653c                Cyg_Thread::force_resume(void)
 .text.release__10Cyg_Thread
                0x000e65c4       0xa4 /cygdrive/C/ZOTDWP2020_SDK_0.01/ecos/ecos_install/lib/libtarget.a(kernel_thread.o)
                0x000e65c4                Cyg_Thread::release(void)
 .text.exit__10Cyg_Thread
                0x000e6668       0x88 /cygdrive/C/ZOTDWP2020_SDK_0.01/ecos/ecos_install/lib/libtarget.a(kernel_thread.o)
                0x000e6668                Cyg_Thread::exit(void)
 .text.kill__10Cyg_Thread
                0x000e66f0      0x114 /cygdrive/C/ZOTDWP2020_SDK_0.01/ecos/ecos_install/lib/libtarget.a(kernel_thread.o)
                0x000e66f0                Cyg_Thread::kill(void)
 .text.set_priority__10Cyg_Threadi
                0x000e6804      0x140 /cygdrive/C/ZOTDWP2020_SDK_0.01/ecos/ecos_install/lib/libtarget.a(kernel_thread.o)
                0x000e6804                Cyg_Thread::set_priority(int)
 .text.delay__10Cyg_ThreadUx
                0x000e6944       0xd8 /cygdrive/C/ZOTDWP2020_SDK_0.01/ecos/ecos_install/lib/libtarget.a(kernel_thread.o)
                0x000e6944                Cyg_Thread::delay(unsigned long long)
 .text.deliver_exception__10Cyg_ThreadiUi
                0x000e6a1c       0x38 /cygdrive/C/ZOTDWP2020_SDK_0.01/ecos/ecos_install/lib/libtarget.a(kernel_thread.o)
                0x000e6a1c                Cyg_Thread::deliver_exception(int, unsigned int)
 .text.alarm__15Cyg_ThreadTimerP9Cyg_AlarmUi
                0x000e6a54       0xb8 /cygdrive/C/ZOTDWP2020_SDK_0.01/ecos/ecos_install/lib/libtarget.a(kernel_thread.o)
                0x000e6a54                Cyg_ThreadTimer::alarm(Cyg_Alarm *, unsigned int)
 .text.idle_thread_main__FUi
                0x000e6b0c       0x2c /cygdrive/C/ZOTDWP2020_SDK_0.01/ecos/ecos_install/lib/libtarget.a(kernel_thread.o)
                0x000e6b0c                idle_thread_main(unsigned int)
 .text.__14Cyg_IdleThreadPFUi_vUiUiUi
                0x000e6b38       0x58 /cygdrive/C/ZOTDWP2020_SDK_0.01/ecos/ecos_install/lib/libtarget.a(kernel_thread.o)
                0x000e6b38                Cyg_IdleThread::Cyg_IdleThread(void (*)(unsigned int), unsigned int, unsigned int, unsigned int)
 .text.__static_initialization_and_destruction_0
                0x000e6b90       0x74 /cygdrive/C/ZOTDWP2020_SDK_0.01/ecos/ecos_install/lib/libtarget.a(kernel_thread.o)
 .text._GLOBAL_.I.15000.thread_entry__18Cyg_HardwareThreadP10Cyg_Thread
                0x000e6c04       0x20 /cygdrive/C/ZOTDWP2020_SDK_0.01/ecos/ecos_install/lib/libtarget.a(kernel_thread.o)
 .text._GLOBAL_.D.15000.thread_entry__18Cyg_HardwareThreadP10Cyg_Thread
                0x000e6c24       0x20 /cygdrive/C/ZOTDWP2020_SDK_0.01/ecos/ecos_install/lib/libtarget.a(kernel_thread.o)
 .text.cyg_null_exception_handler__FUiiUi
                0x000e6c44       0x10 /cygdrive/C/ZOTDWP2020_SDK_0.01/ecos/ecos_install/lib/libtarget.a(kernel_except.o)
                0x000e6c44                cyg_null_exception_handler(unsigned int, int, unsigned int)
 .text.__21Cyg_Exception_Control
                0x000e6c54       0x24 /cygdrive/C/ZOTDWP2020_SDK_0.01/ecos/ecos_install/lib/libtarget.a(kernel_except.o)
                0x000e6c54                Cyg_Exception_Control::Cyg_Exception_Control(void)
 .text.deliver_exception__21Cyg_Exception_ControliUi
                0x000e6c78       0x20 /cygdrive/C/ZOTDWP2020_SDK_0.01/ecos/ecos_install/lib/libtarget.a(kernel_except.o)
                0x000e6c78                Cyg_Exception_Control::deliver_exception(int, unsigned int)
 .text.cyg_hal_deliver_exception
                0x000e6c98       0x2c /cygdrive/C/ZOTDWP2020_SDK_0.01/ecos/ecos_install/lib/libtarget.a(kernel_except.o)
                0x000e6c98                cyg_hal_deliver_exception
 .text.__static_initialization_and_destruction_0
                0x000e6cc4       0x38 /cygdrive/C/ZOTDWP2020_SDK_0.01/ecos/ecos_install/lib/libtarget.a(kernel_except.o)
 .text._GLOBAL_.I.12000.cyg_null_exception_handler__FUiiUi
                0x000e6cfc       0x20 /cygdrive/C/ZOTDWP2020_SDK_0.01/ecos/ecos_install/lib/libtarget.a(kernel_except.o)
 .text.__13Cyg_InterruptUiiUiPFUiUi_UiPFUiUiUi_v
                0x000e6d1c       0x28 /cygdrive/C/ZOTDWP2020_SDK_0.01/ecos/ecos_install/lib/libtarget.a(kernel_intr.o)
                0x000e6d1c                Cyg_Interrupt::Cyg_Interrupt(unsigned int, int, unsigned int, unsigned int (*)(unsigned int, unsigned int), void (*)(unsigned int, unsigned int, unsigned int))
 .text._._13Cyg_Interrupt
                0x000e6d44       0x2c /cygdrive/C/ZOTDWP2020_SDK_0.01/ecos/ecos_install/lib/libtarget.a(kernel_intr.o)
                0x000e6d44                Cyg_Interrupt::~Cyg_Interrupt(void)
 .text.call_pending_DSRs_inner__13Cyg_Interrupt
                0x000e6d70       0x80 /cygdrive/C/ZOTDWP2020_SDK_0.01/ecos/ecos_install/lib/libtarget.a(kernel_intr.o)
                0x000e6d70                Cyg_Interrupt::call_pending_DSRs_inner(void)
 .text.cyg_interrupt_call_pending_DSRs
                0x000e6df0       0x14 /cygdrive/C/ZOTDWP2020_SDK_0.01/ecos/ecos_install/lib/libtarget.a(kernel_intr.o)
                0x000e6df0                cyg_interrupt_call_pending_DSRs
 .text.call_pending_DSRs__13Cyg_Interrupt
                0x000e6e04       0x14 /cygdrive/C/ZOTDWP2020_SDK_0.01/ecos/ecos_install/lib/libtarget.a(kernel_intr.o)
                0x000e6e04                Cyg_Interrupt::call_pending_DSRs(void)
 .text.post_dsr__13Cyg_Interrupt
                0x000e6e18       0x58 /cygdrive/C/ZOTDWP2020_SDK_0.01/ecos/ecos_install/lib/libtarget.a(kernel_intr.o)
                0x000e6e18                Cyg_Interrupt::post_dsr(void)
 .text.interrupt_end
                0x000e6e70       0x80 /cygdrive/C/ZOTDWP2020_SDK_0.01/ecos/ecos_install/lib/libtarget.a(kernel_intr.o)
                0x000e6e70                interrupt_end
 .text.attach__13Cyg_Interrupt
                0x000e6ef0       0x68 /cygdrive/C/ZOTDWP2020_SDK_0.01/ecos/ecos_install/lib/libtarget.a(kernel_intr.o)
                0x000e6ef0                Cyg_Interrupt::attach(void)
 .text.detach__13Cyg_Interrupt
                0x000e6f58       0x58 /cygdrive/C/ZOTDWP2020_SDK_0.01/ecos/ecos_install/lib/libtarget.a(kernel_intr.o)
                0x000e6f58                Cyg_Interrupt::detach(void)
 .text.disable_interrupts__13Cyg_Interrupt
                0x000e6fb0       0x34 /cygdrive/C/ZOTDWP2020_SDK_0.01/ecos/ecos_install/lib/libtarget.a(kernel_intr.o)
                0x000e6fb0                Cyg_Interrupt::disable_interrupts(void)
 .text.enable_interrupts__13Cyg_Interrupt
                0x000e6fe4       0x38 /cygdrive/C/ZOTDWP2020_SDK_0.01/ecos/ecos_install/lib/libtarget.a(kernel_intr.o)
                0x000e6fe4                Cyg_Interrupt::enable_interrupts(void)
 .text.mask_interrupt__13Cyg_InterruptUi
                0x000e701c       0x14 /cygdrive/C/ZOTDWP2020_SDK_0.01/ecos/ecos_install/lib/libtarget.a(kernel_intr.o)
                0x000e701c                Cyg_Interrupt::mask_interrupt(unsigned int)
 .text.unmask_interrupt__13Cyg_InterruptUi
                0x000e7030       0x14 /cygdrive/C/ZOTDWP2020_SDK_0.01/ecos/ecos_install/lib/libtarget.a(kernel_intr.o)
                0x000e7030                Cyg_Interrupt::unmask_interrupt(unsigned int)
 .text.acknowledge_interrupt__13Cyg_InterruptUi
                0x000e7044       0x14 /cygdrive/C/ZOTDWP2020_SDK_0.01/ecos/ecos_install/lib/libtarget.a(kernel_intr.o)
                0x000e7044                Cyg_Interrupt::acknowledge_interrupt(unsigned int)
 .text.__35Cyg_Mempool_Variable_ImplementationPUciUi
                0x000e7058       0x90 /cygdrive/C/ZOTDWP2020_SDK_0.01/ecos/ecos_install/lib/libtarget.a(kernel_memvar.o)
                0x000e7058                Cyg_Mempool_Variable_Implementation::Cyg_Mempool_Variable_Implementation(unsigned char *, int, unsigned int)
 .text._._35Cyg_Mempool_Variable_Implementation
                0x000e70e8       0x1c /cygdrive/C/ZOTDWP2020_SDK_0.01/ecos/ecos_install/lib/libtarget.a(kernel_memvar.o)
                0x000e70e8                Cyg_Mempool_Variable_Implementation::~Cyg_Mempool_Variable_Implementation(void)
 .text.__20Cyg_Mempool_VariablePUci
                0x000e7104       0x20 /cygdrive/C/ZOTDWP2020_SDK_0.01/ecos/ecos_install/lib/libtarget.a(kernel_memvar.o)
                0x000e7104                Cyg_Mempool_Variable::Cyg_Mempool_Variable(unsigned char *, int)
 .text._._20Cyg_Mempool_Variable
                0x000e7124       0x30 /cygdrive/C/ZOTDWP2020_SDK_0.01/ecos/ecos_install/lib/libtarget.a(kernel_memvar.o)
                0x000e7124                Cyg_Mempool_Variable::~Cyg_Mempool_Variable(void)
 .text.try_alloc__20Cyg_Mempool_Variablei
                0x000e7154       0x14 /cygdrive/C/ZOTDWP2020_SDK_0.01/ecos/ecos_install/lib/libtarget.a(kernel_memvar.o)
                0x000e7154                Cyg_Mempool_Variable::try_alloc(int)
 .text.free__20Cyg_Mempool_VariablePUci
                0x000e7168       0x14 /cygdrive/C/ZOTDWP2020_SDK_0.01/ecos/ecos_install/lib/libtarget.a(kernel_memvar.o)
                0x000e7168                Cyg_Mempool_Variable::free(unsigned char *, int)
 .text.get_allocation_size__20Cyg_Mempool_VariablePUc
                0x000e717c       0x14 /cygdrive/C/ZOTDWP2020_SDK_0.01/ecos/ecos_install/lib/libtarget.a(kernel_memvar.o)
                0x000e717c                Cyg_Mempool_Variable::get_allocation_size(unsigned char *)
 .text.__28Cyg_Scheduler_Implementation
                0x000e7190       0x40 /cygdrive/C/ZOTDWP2020_SDK_0.01/ecos/ecos_install/lib/libtarget.a(kernel_mlqueue.o)
                0x000e7190                Cyg_Scheduler_Implementation::Cyg_Scheduler_Implementation(void)
 .text.schedule__28Cyg_Scheduler_Implementation
                0x000e71d0       0x2c /cygdrive/C/ZOTDWP2020_SDK_0.01/ecos/ecos_install/lib/libtarget.a(kernel_mlqueue.o)
                0x000e71d0                Cyg_Scheduler_Implementation::schedule(void)
 .text.add_thread__28Cyg_Scheduler_ImplementationP10Cyg_Thread
                0x000e71fc       0x88 /cygdrive/C/ZOTDWP2020_SDK_0.01/ecos/ecos_install/lib/libtarget.a(kernel_mlqueue.o)
                0x000e71fc                Cyg_Scheduler_Implementation::add_thread(Cyg_Thread *)
 .text.rem_thread__28Cyg_Scheduler_ImplementationP10Cyg_Thread
                0x000e7284       0x40 /cygdrive/C/ZOTDWP2020_SDK_0.01/ecos/ecos_install/lib/libtarget.a(kernel_mlqueue.o)
                0x000e7284                Cyg_Scheduler_Implementation::rem_thread(Cyg_Thread *)
 .text.register_thread__28Cyg_Scheduler_ImplementationP10Cyg_Thread
                0x000e72c4       0x10 /cygdrive/C/ZOTDWP2020_SDK_0.01/ecos/ecos_install/lib/libtarget.a(kernel_mlqueue.o)
                0x000e72c4                Cyg_Scheduler_Implementation::register_thread(Cyg_Thread *)
 .text.deregister_thread__28Cyg_Scheduler_ImplementationP10Cyg_Thread
                0x000e72d4       0x10 /cygdrive/C/ZOTDWP2020_SDK_0.01/ecos/ecos_install/lib/libtarget.a(kernel_mlqueue.o)
                0x000e72d4                Cyg_Scheduler_Implementation::deregister_thread(Cyg_Thread *)
 .text.timeslice__28Cyg_Scheduler_Implementation
                0x000e72e4       0x40 /cygdrive/C/ZOTDWP2020_SDK_0.01/ecos/ecos_install/lib/libtarget.a(kernel_mlqueue.o)
                0x000e72e4                Cyg_Scheduler_Implementation::timeslice(void)
 .text.__30Cyg_SchedThread_ImplementationUi
                0x000e7324       0x20 /cygdrive/C/ZOTDWP2020_SDK_0.01/ecos/ecos_install/lib/libtarget.a(kernel_mlqueue.o)
                0x000e7324                Cyg_SchedThread_Implementation::Cyg_SchedThread_Implementation(unsigned int)
 .text.insert__30Cyg_SchedThread_ImplementationP10Cyg_Thread
                0x000e7344       0x28 /cygdrive/C/ZOTDWP2020_SDK_0.01/ecos/ecos_install/lib/libtarget.a(kernel_mlqueue.o)
                0x000e7344                Cyg_SchedThread_Implementation::insert(Cyg_Thread *)
 .text.remove__30Cyg_SchedThread_Implementation
                0x000e736c       0x30 /cygdrive/C/ZOTDWP2020_SDK_0.01/ecos/ecos_install/lib/libtarget.a(kernel_mlqueue.o)
                0x000e736c                Cyg_SchedThread_Implementation::remove(void)
 .text.yield__30Cyg_SchedThread_Implementation
                0x000e739c       0xa0 /cygdrive/C/ZOTDWP2020_SDK_0.01/ecos/ecos_install/lib/libtarget.a(kernel_mlqueue.o)
                0x000e739c                Cyg_SchedThread_Implementation::yield(void)
 .text.__30Cyg_ThreadQueue_Implementation
                0x000e743c       0x18 /cygdrive/C/ZOTDWP2020_SDK_0.01/ecos/ecos_install/lib/libtarget.a(kernel_mlqueue.o)
                0x000e743c                Cyg_ThreadQueue_Implementation::Cyg_ThreadQueue_Implementation(void)
 .text.enqueue__30Cyg_ThreadQueue_ImplementationP10Cyg_Thread
                0x000e7454       0x38 /cygdrive/C/ZOTDWP2020_SDK_0.01/ecos/ecos_install/lib/libtarget.a(kernel_mlqueue.o)
                0x000e7454                Cyg_ThreadQueue_Implementation::enqueue(Cyg_Thread *)
 .text.dequeue__30Cyg_ThreadQueue_Implementation
                0x000e748c       0x64 /cygdrive/C/ZOTDWP2020_SDK_0.01/ecos/ecos_install/lib/libtarget.a(kernel_mlqueue.o)
                0x000e748c                Cyg_ThreadQueue_Implementation::dequeue(void)
 .text.highpri__30Cyg_ThreadQueue_Implementation
                0x000e74f0       0x14 /cygdrive/C/ZOTDWP2020_SDK_0.01/ecos/ecos_install/lib/libtarget.a(kernel_mlqueue.o)
                0x000e74f0                Cyg_ThreadQueue_Implementation::highpri(void)
 .text.remove__30Cyg_ThreadQueue_ImplementationP10Cyg_Thread
                0x000e7504       0x40 /cygdrive/C/ZOTDWP2020_SDK_0.01/ecos/ecos_install/lib/libtarget.a(kernel_mlqueue.o)
                0x000e7504                Cyg_ThreadQueue_Implementation::remove(Cyg_Thread *)
 .text.rotate__30Cyg_ThreadQueue_Implementation
                0x000e7544       0x1c /cygdrive/C/ZOTDWP2020_SDK_0.01/ecos/ecos_install/lib/libtarget.a(kernel_mlqueue.o)
                0x000e7544                Cyg_ThreadQueue_Implementation::rotate(void)
 .text.unlock_inner__13Cyg_Scheduler
                0x000e7560       0xc4 /cygdrive/C/ZOTDWP2020_SDK_0.01/ecos/ecos_install/lib/libtarget.a(kernel_sched.o)
                0x000e7560                Cyg_Scheduler::unlock_inner(void)
 .text.start__13Cyg_Scheduler
                0x000e7624       0x48 /cygdrive/C/ZOTDWP2020_SDK_0.01/ecos/ecos_install/lib/libtarget.a(kernel_sched.o)
                0x000e7624                Cyg_Scheduler::start(void)
 .text.__15Cyg_SchedThreadP10Cyg_ThreadUi
                0x000e766c       0x48 /cygdrive/C/ZOTDWP2020_SDK_0.01/ecos/ecos_install/lib/libtarget.a(kernel_sched.o)
                0x000e766c                Cyg_SchedThread::Cyg_SchedThread(Cyg_Thread *, unsigned int)
 .text.inherit_priority__15Cyg_SchedThreadP10Cyg_Thread
                0x000e76b4       0x48 /cygdrive/C/ZOTDWP2020_SDK_0.01/ecos/ecos_install/lib/libtarget.a(kernel_sched.o)
                0x000e76b4                Cyg_SchedThread::inherit_priority(Cyg_Thread *)
 .text.relay_priority__15Cyg_SchedThreadP10Cyg_ThreadP15Cyg_ThreadQueue
                0x000e76fc       0x20 /cygdrive/C/ZOTDWP2020_SDK_0.01/ecos/ecos_install/lib/libtarget.a(kernel_sched.o)
                0x000e76fc                Cyg_SchedThread::relay_priority(Cyg_Thread *, Cyg_ThreadQueue *)
 .text.disinherit_priority__15Cyg_SchedThread
                0x000e771c       0x48 /cygdrive/C/ZOTDWP2020_SDK_0.01/ecos/ecos_install/lib/libtarget.a(kernel_sched.o)
                0x000e771c                Cyg_SchedThread::disinherit_priority(void)
 .text.__static_initialization_and_destruction_0
                0x000e7764       0x38 /cygdrive/C/ZOTDWP2020_SDK_0.01/ecos/ecos_install/lib/libtarget.a(kernel_sched.o)
 .text._GLOBAL_.I.11000.cyg_scheduler_sched_lock
                0x000e779c       0x20 /cygdrive/C/ZOTDWP2020_SDK_0.01/ecos/ecos_install/lib/libtarget.a(kernel_sched.o)
 .text.__22Cyg_Counting_Semaphorei
                0x000e77bc       0x28 /cygdrive/C/ZOTDWP2020_SDK_0.01/ecos/ecos_install/lib/libtarget.a(kernel_cnt_sem.o)
                0x000e77bc                Cyg_Counting_Semaphore::Cyg_Counting_Semaphore(int)
 .text._._22Cyg_Counting_Semaphore
                0x000e77e4       0x1c /cygdrive/C/ZOTDWP2020_SDK_0.01/ecos/ecos_install/lib/libtarget.a(kernel_cnt_sem.o)
                0x000e77e4                Cyg_Counting_Semaphore::~Cyg_Counting_Semaphore(void)
 .text.wait__22Cyg_Counting_Semaphore
                0x000e7800      0x118 /cygdrive/C/ZOTDWP2020_SDK_0.01/ecos/ecos_install/lib/libtarget.a(kernel_cnt_sem.o)
                0x000e7800                Cyg_Counting_Semaphore::wait(void)
 .text.wait__22Cyg_Counting_SemaphoreUx
                0x000e7918      0x170 /cygdrive/C/ZOTDWP2020_SDK_0.01/ecos/ecos_install/lib/libtarget.a(kernel_cnt_sem.o)
                0x000e7918                Cyg_Counting_Semaphore::wait(unsigned long long)
 .text.post__22Cyg_Counting_Semaphore
                0x000e7a88       0x88 /cygdrive/C/ZOTDWP2020_SDK_0.01/ecos/ecos_install/lib/libtarget.a(kernel_cnt_sem.o)
                0x000e7a88                Cyg_Counting_Semaphore::post(void)
 .text.__8Cyg_Mbox
                0x000e7b10       0x1c /cygdrive/C/ZOTDWP2020_SDK_0.01/ecos/ecos_install/lib/libtarget.a(kernel_mbox.o)
                0x000e7b10                Cyg_Mbox::Cyg_Mbox(void)
 .text._._8Cyg_Mbox
                0x000e7b2c       0x30 /cygdrive/C/ZOTDWP2020_SDK_0.01/ecos/ecos_install/lib/libtarget.a(kernel_mbox.o)
                0x000e7b2c                Cyg_Mbox::~Cyg_Mbox(void)
 .text.get__8Cyg_Mbox
                0x000e7b5c       0x24 /cygdrive/C/ZOTDWP2020_SDK_0.01/ecos/ecos_install/lib/libtarget.a(kernel_mbox.o)
                0x000e7b5c                Cyg_Mbox::get(void)
 .text.get__8Cyg_MboxUx
                0x000e7b80       0x2c /cygdrive/C/ZOTDWP2020_SDK_0.01/ecos/ecos_install/lib/libtarget.a(kernel_mbox.o)
                0x000e7b80                Cyg_Mbox::get(unsigned long long)
 .text.put__8Cyg_MboxPv
                0x000e7bac       0x14 /cygdrive/C/ZOTDWP2020_SDK_0.01/ecos/ecos_install/lib/libtarget.a(kernel_mbox.o)
                0x000e7bac                Cyg_Mbox::put(void *)
 .text.__9Cyg_Mutex
                0x000e7bc0       0x2c /cygdrive/C/ZOTDWP2020_SDK_0.01/ecos/ecos_install/lib/libtarget.a(kernel_mutex.o)
                0x000e7bc0                Cyg_Mutex::Cyg_Mutex(void)
 .text._._9Cyg_Mutex
                0x000e7bec       0x1c /cygdrive/C/ZOTDWP2020_SDK_0.01/ecos/ecos_install/lib/libtarget.a(kernel_mutex.o)
                0x000e7bec                Cyg_Mutex::~Cyg_Mutex(void)
 .text.lock__9Cyg_Mutex
                0x000e7c08      0x150 /cygdrive/C/ZOTDWP2020_SDK_0.01/ecos/ecos_install/lib/libtarget.a(kernel_mutex.o)
                0x000e7c08                Cyg_Mutex::lock(void)
 .text.unlock__9Cyg_Mutex
                0x000e7d58       0xc4 /cygdrive/C/ZOTDWP2020_SDK_0.01/ecos/ecos_install/lib/libtarget.a(kernel_mutex.o)
                0x000e7d58                Cyg_Mutex::unlock(void)
 .text.release__9Cyg_Mutex
                0x000e7e1c       0x74 /cygdrive/C/ZOTDWP2020_SDK_0.01/ecos/ecos_install/lib/libtarget.a(kernel_mutex.o)
                0x000e7e1c                Cyg_Mutex::release(void)
 .text.__22Cyg_Condition_VariableR9Cyg_Mutex
                0x000e7e90       0x28 /cygdrive/C/ZOTDWP2020_SDK_0.01/ecos/ecos_install/lib/libtarget.a(kernel_mutex.o)
                0x000e7e90                Cyg_Condition_Variable::Cyg_Condition_Variable(Cyg_Mutex &)
 .text.wait__22Cyg_Condition_Variable
                0x000e7eb8       0xcc /cygdrive/C/ZOTDWP2020_SDK_0.01/ecos/ecos_install/lib/libtarget.a(kernel_mutex.o)
                0x000e7eb8                Cyg_Condition_Variable::wait(void)
 .text.signal__22Cyg_Condition_Variable
                0x000e7f84       0x7c /cygdrive/C/ZOTDWP2020_SDK_0.01/ecos/ecos_install/lib/libtarget.a(kernel_mutex.o)
                0x000e7f84                Cyg_Condition_Variable::signal(void)
 .text.broadcast__22Cyg_Condition_Variable
                0x000e8000       0x90 /cygdrive/C/ZOTDWP2020_SDK_0.01/ecos/ecos_install/lib/libtarget.a(kernel_mutex.o)
                0x000e8000                Cyg_Condition_Variable::broadcast(void)
 .text._isalnum
                0x000e8090       0x3c /cygdrive/C/ZOTDWP2020_SDK_0.01/ecos/ecos_install/lib/libtarget.a(language_c_libc_isalnum.o)
                0x000e8090                isalnum
                0x000e8090                _isalnum
 .text._isalpha
                0x000e80cc       0x3c /cygdrive/C/ZOTDWP2020_SDK_0.01/ecos/ecos_install/lib/libtarget.a(language_c_libc_isalpha.o)
                0x000e80cc                isalpha
                0x000e80cc                _isalpha
 .text._isdigit
                0x000e8108       0x20 /cygdrive/C/ZOTDWP2020_SDK_0.01/ecos/ecos_install/lib/libtarget.a(language_c_libc_isdigit.o)
                0x000e8108                isdigit
                0x000e8108                _isdigit
 .text._islower
                0x000e8128       0x20 /cygdrive/C/ZOTDWP2020_SDK_0.01/ecos/ecos_install/lib/libtarget.a(language_c_libc_islower.o)
                0x000e8128                islower
                0x000e8128                _islower
 .text._isprint
                0x000e8148       0x20 /cygdrive/C/ZOTDWP2020_SDK_0.01/ecos/ecos_install/lib/libtarget.a(language_c_libc_isprint.o)
                0x000e8148                isprint
                0x000e8148                _isprint
 .text._isspace
                0x000e8168       0x40 /cygdrive/C/ZOTDWP2020_SDK_0.01/ecos/ecos_install/lib/libtarget.a(language_c_libc_isspace.o)
                0x000e8168                _isspace
                0x000e8168                isspace
 .text._isupper
                0x000e81a8       0x20 /cygdrive/C/ZOTDWP2020_SDK_0.01/ecos/ecos_install/lib/libtarget.a(language_c_libc_isupper.o)
                0x000e81a8                _isupper
                0x000e81a8                isupper
 .text._isxdigit
                0x000e81c8       0x44 /cygdrive/C/ZOTDWP2020_SDK_0.01/ecos/ecos_install/lib/libtarget.a(language_c_libc_isxdigit.o)
                0x000e81c8                _isxdigit
                0x000e81c8                isxdigit
 .text._toupper
                0x000e820c       0x28 /cygdrive/C/ZOTDWP2020_SDK_0.01/ecos/ecos_install/lib/libtarget.a(language_c_libc_toupper.o)
                0x000e820c                _toupper
                0x000e820c                toupper
 .text._sprintf
                0x000e8234       0x24 /cygdrive/C/ZOTDWP2020_SDK_0.01/ecos/ecos_install/lib/libtarget.a(language_c_libc_sprintf.o)
                0x000e8234                _sprintf
                0x000e8234                sprintf
 .text.__static_initialization_and_destruction_0
                0x000e8258       0x8c /cygdrive/C/ZOTDWP2020_SDK_0.01/ecos/ecos_install/lib/libtarget.a(language_c_libc_stderr.o)
 .text._GLOBAL_.I.50000.cyg_libc_stdio_stderr
                0x000e82e4       0x20 /cygdrive/C/ZOTDWP2020_SDK_0.01/ecos/ecos_install/lib/libtarget.a(language_c_libc_stderr.o)
 .text._GLOBAL_.D.50000.cyg_libc_stdio_stderr
                0x000e8304       0x20 /cygdrive/C/ZOTDWP2020_SDK_0.01/ecos/ecos_install/lib/libtarget.a(language_c_libc_stderr.o)
 .text._vsprintf
                0x000e8324       0x24 /cygdrive/C/ZOTDWP2020_SDK_0.01/ecos/ecos_install/lib/libtarget.a(language_c_libc_stdioinlines.o)
                0x000e8324                vsprintf
                0x000e8324                _vsprintf
 .text.Cyg_libc_stdio_find_filename
                0x000e8348       0x34 /cygdrive/C/ZOTDWP2020_SDK_0.01/ecos/ecos_install/lib/libtarget.a(language_c_libc_stdiosupp.o)
                0x000e8348                Cyg_libc_stdio_find_filename
 .text.__static_initialization_and_destruction_0
                0x000e837c       0x8c /cygdrive/C/ZOTDWP2020_SDK_0.01/ecos/ecos_install/lib/libtarget.a(language_c_libc_stdout.o)
 .text._GLOBAL_.I.50000.cyg_libc_stdio_stdout
                0x000e8408       0x20 /cygdrive/C/ZOTDWP2020_SDK_0.01/ecos/ecos_install/lib/libtarget.a(language_c_libc_stdout.o)
 .text._GLOBAL_.D.50000.cyg_libc_stdio_stdout
                0x000e8428       0x20 /cygdrive/C/ZOTDWP2020_SDK_0.01/ecos/ecos_install/lib/libtarget.a(language_c_libc_stdout.o)
 .text.__15Cyg_StdioStreamPvQ215Cyg_StdioStream8OpenModebT3iUiPUc
                0x000e8448       0xc4 /cygdrive/C/ZOTDWP2020_SDK_0.01/ecos/ecos_install/lib/libtarget.a(language_c_libc_stream.o)
                0x000e8448                Cyg_StdioStream::Cyg_StdioStream(void *, Cyg_StdioStream::OpenMode, bool, bool, int, unsigned int, unsigned char *)
 .text.flush_output_unlocked__15Cyg_StdioStream
                0x000e850c       0x14 /cygdrive/C/ZOTDWP2020_SDK_0.01/ecos/ecos_install/lib/libtarget.a(language_c_libc_stream.o)
                0x000e850c                Cyg_StdioStream::flush_output_unlocked(void)
 .text.write__15Cyg_StdioStreamPCUcUiPUi
                0x000e8520       0x50 /cygdrive/C/ZOTDWP2020_SDK_0.01/ecos/ecos_install/lib/libtarget.a(language_c_libc_stream.o)
                0x000e8520                Cyg_StdioStream::write(unsigned char const *, unsigned int, unsigned int *)
 .text.str_write__FPvPCvPUi
                0x000e8570       0x58 /cygdrive/C/ZOTDWP2020_SDK_0.01/ecos/ecos_install/lib/libtarget.a(language_c_libc_vsnprintf.o)
 .text._vsnprintf
                0x000e85c8       0xcc /cygdrive/C/ZOTDWP2020_SDK_0.01/ecos/ecos_install/lib/libtarget.a(language_c_libc_vsnprintf.o)
                0x000e85c8                _vsnprintf
                0x000e85c8                vsnprintf
 .text._fprintf
                0x000e8694       0x24 /cygdrive/C/ZOTDWP2020_SDK_0.01/ecos/ecos_install/lib/libtarget.a(language_c_libc_fprintf.o)
                0x000e8694                fprintf
                0x000e8694                _fprintf
 .text._printf  0x000e86b8       0x30 /cygdrive/C/ZOTDWP2020_SDK_0.01/ecos/ecos_install/lib/libtarget.a(language_c_libc_printf.o)
                0x000e86b8                printf
                0x000e86b8                _printf
 .text.__mbtowc__FPcPCcUl
                0x000e86e8       0x40 /cygdrive/C/ZOTDWP2020_SDK_0.01/ecos/ecos_install/lib/libtarget.a(language_c_libc_vfnprintf.o)
 .text._vfnprintf
                0x000e8728      0xd18 /cygdrive/C/ZOTDWP2020_SDK_0.01/ecos/ecos_install/lib/libtarget.a(language_c_libc_vfnprintf.o)
                0x000e8728                vfnprintf
                0x000e8728                _vfnprintf
 .text._atoi    0x000e9440       0x1c /cygdrive/C/ZOTDWP2020_SDK_0.01/ecos/ecos_install/lib/libtarget.a(language_c_libc_atoi.o)
                0x000e9440                _atoi
                0x000e9440                atoi
 .text._atol    0x000e945c       0x1c /cygdrive/C/ZOTDWP2020_SDK_0.01/ecos/ecos_install/lib/libtarget.a(language_c_libc_atol.o)
                0x000e945c                atol
                0x000e945c                _atol
 .text._malloc  0x000e9478       0x28 /cygdrive/C/ZOTDWP2020_SDK_0.01/ecos/ecos_install/lib/libtarget.a(language_c_libc_malloc.o)
                0x000e9478                malloc
                0x000e9478                _malloc
 .text._free    0x000e94a0       0x28 /cygdrive/C/ZOTDWP2020_SDK_0.01/ecos/ecos_install/lib/libtarget.a(language_c_libc_malloc.o)
                0x000e94a0                _free
                0x000e94a0                free
 .text._calloc  0x000e94c8       0x38 /cygdrive/C/ZOTDWP2020_SDK_0.01/ecos/ecos_install/lib/libtarget.a(language_c_libc_malloc.o)
                0x000e94c8                calloc
                0x000e94c8                _calloc
 .text._realloc
                0x000e9500       0x88 /cygdrive/C/ZOTDWP2020_SDK_0.01/ecos/ecos_install/lib/libtarget.a(language_c_libc_malloc.o)
                0x000e9500                realloc
                0x000e9500                _realloc
 .text.__static_initialization_and_destruction_0
                0x000e9588       0x54 /cygdrive/C/ZOTDWP2020_SDK_0.01/ecos/ecos_install/lib/libtarget.a(language_c_libc_malloc.o)
 .text._GLOBAL_.I.50000._malloc
                0x000e95dc       0x20 /cygdrive/C/ZOTDWP2020_SDK_0.01/ecos/ecos_install/lib/libtarget.a(language_c_libc_malloc.o)
 .text._GLOBAL_.D.50000._malloc
                0x000e95fc       0x20 /cygdrive/C/ZOTDWP2020_SDK_0.01/ecos/ecos_install/lib/libtarget.a(language_c_libc_malloc.o)
 .text._rand    0x000e961c       0x1c /cygdrive/C/ZOTDWP2020_SDK_0.01/ecos/ecos_install/lib/libtarget.a(language_c_libc_rand.o)
                0x000e961c                _rand
                0x000e961c                rand
 .text._rand_r  0x000e9638       0x9c /cygdrive/C/ZOTDWP2020_SDK_0.01/ecos/ecos_install/lib/libtarget.a(language_c_libc_rand.o)
                0x000e9638                _rand_r
                0x000e9638                rand_r
 .text._srand   0x000e96d4       0x1c /cygdrive/C/ZOTDWP2020_SDK_0.01/ecos/ecos_install/lib/libtarget.a(language_c_libc_rand.o)
                0x000e96d4                _srand
                0x000e96d4                srand
 .text._strtol  0x000e96f0      0x1bc /cygdrive/C/ZOTDWP2020_SDK_0.01/ecos/ecos_install/lib/libtarget.a(language_c_libc_strtol.o)
                0x000e96f0                strtol
                0x000e96f0                _strtol
 .text._memchr  0x000e98ac      0x100 /cygdrive/C/ZOTDWP2020_SDK_0.01/ecos/ecos_install/lib/libtarget.a(language_c_libc_memchr.o)
                0x000e98ac                memchr
                0x000e98ac                _memchr
 .text._memcmp  0x000e99ac      0x100 /cygdrive/C/ZOTDWP2020_SDK_0.01/ecos/ecos_install/lib/libtarget.a(language_c_libc_memcmp.o)
                0x000e99ac                memcmp
                0x000e99ac                _memcmp
 .text._memmove
                0x000e9aac       0x74 /cygdrive/C/ZOTDWP2020_SDK_0.01/ecos/ecos_install/lib/libtarget.a(language_c_libc_memmove.o)
                0x000e9aac                memmove
                0x000e9aac                _memmove
 .text._strcat  0x000e9b20       0x88 /cygdrive/C/ZOTDWP2020_SDK_0.01/ecos/ecos_install/lib/libtarget.a(language_c_libc_strcat.o)
                0x000e9b20                _strcat
                0x000e9b20                strcat
 .text._strchr  0x000e9ba8       0xe8 /cygdrive/C/ZOTDWP2020_SDK_0.01/ecos/ecos_install/lib/libtarget.a(language_c_libc_strchr.o)
                0x000e9ba8                _strchr
                0x000e9ba8                strchr
 .text._strcmp  0x000e9c90       0xf8 /cygdrive/C/ZOTDWP2020_SDK_0.01/ecos/ecos_install/lib/libtarget.a(language_c_libc_strcmp.o)
                0x000e9c90                _strcmp
                0x000e9c90                strcmp
 .text._strcpy  0x000e9d88       0xbc /cygdrive/C/ZOTDWP2020_SDK_0.01/ecos/ecos_install/lib/libtarget.a(language_c_libc_strcpy.o)
                0x000e9d88                strcpy
                0x000e9d88                _strcpy
 .text._strlen  0x000e9e44       0x9c /cygdrive/C/ZOTDWP2020_SDK_0.01/ecos/ecos_install/lib/libtarget.a(language_c_libc_strlen.o)
                0x000e9e44                _strlen
                0x000e9e44                strlen
 .text._strncat
                0x000e9ee0       0xb4 /cygdrive/C/ZOTDWP2020_SDK_0.01/ecos/ecos_install/lib/libtarget.a(language_c_libc_strncat.o)
                0x000e9ee0                _strncat
                0x000e9ee0                strncat
 .text._strncmp
                0x000e9f94      0x144 /cygdrive/C/ZOTDWP2020_SDK_0.01/ecos/ecos_install/lib/libtarget.a(language_c_libc_strncmp.o)
                0x000e9f94                strncmp
                0x000e9f94                _strncmp
 .text._strncpy
                0x000ea0d8       0xe8 /cygdrive/C/ZOTDWP2020_SDK_0.01/ecos/ecos_install/lib/libtarget.a(language_c_libc_strncpy.o)
                0x000ea0d8                _strncpy
                0x000ea0d8                strncpy
 .text._strpbrk
                0x000ea1c0       0x7c /cygdrive/C/ZOTDWP2020_SDK_0.01/ecos/ecos_install/lib/libtarget.a(language_c_libc_strpbrk.o)
                0x000ea1c0                _strpbrk
                0x000ea1c0                strpbrk
 .text._strrchr
                0x000ea23c       0x4c /cygdrive/C/ZOTDWP2020_SDK_0.01/ecos/ecos_install/lib/libtarget.a(language_c_libc_strrchr.o)
                0x000ea23c                strrchr
                0x000ea23c                _strrchr
 .text._strspn  0x000ea288       0x70 /cygdrive/C/ZOTDWP2020_SDK_0.01/ecos/ecos_install/lib/libtarget.a(language_c_libc_strspn.o)
                0x000ea288                _strspn
                0x000ea288                strspn
 .text._strstr  0x000ea2f8       0x68 /cygdrive/C/ZOTDWP2020_SDK_0.01/ecos/ecos_install/lib/libtarget.a(language_c_libc_strstr.o)
                0x000ea2f8                strstr
                0x000ea2f8                _strstr
 .text._strtok  0x000ea360       0x1c /cygdrive/C/ZOTDWP2020_SDK_0.01/ecos/ecos_install/lib/libtarget.a(language_c_libc_strtok.o)
                0x000ea360                strtok
                0x000ea360                _strtok
 .text._strtok_r
                0x000ea37c       0xa0 /cygdrive/C/ZOTDWP2020_SDK_0.01/ecos/ecos_install/lib/libtarget.a(language_c_libc_strtok.o)
                0x000ea37c                strtok_r
                0x000ea37c                _strtok_r
 .text.__ctime  0x000ea41c       0x18 /cygdrive/C/ZOTDWP2020_SDK_0.01/ecos/ecos_install/lib/libtarget.a(language_c_libc_ctime.o)
                0x000ea41c                ctime
                0x000ea41c                __ctime
 .text.__localtime
                0x000ea434       0x24 /cygdrive/C/ZOTDWP2020_SDK_0.01/ecos/ecos_install/lib/libtarget.a(language_c_libc_localtime.o)
                0x000ea434                localtime
                0x000ea434                __localtime
 .text.__localtime_r
                0x000ea458       0x88 /cygdrive/C/ZOTDWP2020_SDK_0.01/ecos/ecos_install/lib/libtarget.a(language_c_libc_localtime_r.o)
                0x000ea458                __localtime_r
 .text.__time   0x000ea4e0       0x30 /cygdrive/C/ZOTDWP2020_SDK_0.01/ecos/ecos_install/lib/libtarget.a(language_c_libc_time.o)
                0x000ea4e0                time
                0x000ea4e0                __time
 .text.cyg_libc_time_normalize_structtm
                0x000ea510      0x3e8 /cygdrive/C/ZOTDWP2020_SDK_0.01/ecos/ecos_install/lib/libtarget.a(language_c_libc_timeutil.o)
                0x000ea510                cyg_libc_time_normalize_structtm
 .text.__13Cyg_WallClock
                0x000ea8f8       0x24 /cygdrive/C/ZOTDWP2020_SDK_0.01/ecos/ecos_install/lib/libtarget.a(devs_wallclock_emulate.o)
                0x000ea8f8                Cyg_WallClock::Cyg_WallClock(void)
 .text.get_current_time__13Cyg_WallClock
                0x000ea91c       0xd0 /cygdrive/C/ZOTDWP2020_SDK_0.01/ecos/ecos_install/lib/libtarget.a(devs_wallclock_emulate.o)
                0x000ea91c                Cyg_WallClock::get_current_time(void)
 .text.__static_initialization_and_destruction_0
                0x000ea9ec       0x38 /cygdrive/C/ZOTDWP2020_SDK_0.01/ecos/ecos_install/lib/libtarget.a(devs_wallclock_emulate.o)
 .text._GLOBAL_.I.14000.__13Cyg_WallClock
                0x000eaa24       0x20 /cygdrive/C/ZOTDWP2020_SDK_0.01/ecos/ecos_install/lib/libtarget.a(devs_wallclock_emulate.o)
 .text.exception_handler
                0x000eaa44       0x1c /cygdrive/C/ZOTDWP2020_SDK_0.01/ecos/ecos_install/lib/libtarget.a(hal_arm_arch_hal_misc.o)
                0x000eaa44                exception_handler
 .text.cyg_hal_invoke_constructors
                0x000eaa60       0x3c /cygdrive/C/ZOTDWP2020_SDK_0.01/ecos/ecos_install/lib/libtarget.a(hal_arm_arch_hal_misc.o)
                0x000eaa60                cyg_hal_invoke_constructors
 .text.hal_default_isr
                0x000eaa9c       0x2c /cygdrive/C/ZOTDWP2020_SDK_0.01/ecos/ecos_install/lib/libtarget.a(hal_arm_arch_hal_misc.o)
                0x000eaa9c                hal_default_isr
 .text.hal_idle_thread_action
                0x000eaac8       0x10 /cygdrive/C/ZOTDWP2020_SDK_0.01/ecos/ecos_install/lib/libtarget.a(hal_arm_arch_hal_misc.o)
                0x000eaac8                hal_idle_thread_action
 .text.hal_lsbindex
                0x000eaad8       0x34 /cygdrive/C/ZOTDWP2020_SDK_0.01/ecos/ecos_install/lib/libtarget.a(hal_arm_arch_hal_misc.o)
                0x000eaad8                hal_lsbindex
 .text          0x000eab0c       0x50 /cygdrive/C/ZOTDWP2020_SDK_0.01/ecos/ecos_install/lib/libtarget.a(hal_arm_arch_context.o)
                0x000eab44                hal_setjmp
                0x000eab24                hal_thread_load_context
                0x000eab0c                hal_thread_switch_context
                0x000eab50                hal_longjmp
 .text.str8131_clear_timer_interrupt_status
                0x000eab5c       0x20 /cygdrive/C/ZOTDWP2020_SDK_0.01/ecos/ecos_install/lib/libtarget.a(hal_arm_zot716u2_zot716u2_misc.o)
 .text.str8131_timer_enable
                0x000eab7c       0x24 /cygdrive/C/ZOTDWP2020_SDK_0.01/ecos/ecos_install/lib/libtarget.a(hal_arm_zot716u2_zot716u2_misc.o)
 .text.str8131_timer_disable
                0x000eaba0       0x24 /cygdrive/C/ZOTDWP2020_SDK_0.01/ecos/ecos_install/lib/libtarget.a(hal_arm_zot716u2_zot716u2_misc.o)
 .text.hal_clock_initialize
                0x000eabc4       0x80 /cygdrive/C/ZOTDWP2020_SDK_0.01/ecos/ecos_install/lib/libtarget.a(hal_arm_zot716u2_zot716u2_misc.o)
                0x000eabc4                hal_clock_initialize
 .text.hal_clock_reset
                0x000eac44       0x48 /cygdrive/C/ZOTDWP2020_SDK_0.01/ecos/ecos_install/lib/libtarget.a(hal_arm_zot716u2_zot716u2_misc.o)
                0x000eac44                hal_clock_reset
 .text.hal_clock_read
                0x000eac8c       0x38 /cygdrive/C/ZOTDWP2020_SDK_0.01/ecos/ecos_install/lib/libtarget.a(hal_arm_zot716u2_zot716u2_misc.o)
                0x000eac8c                hal_clock_read
 .text.str8131_set_irq_mode
                0x000eacc4       0xac /cygdrive/C/ZOTDWP2020_SDK_0.01/ecos/ecos_install/lib/libtarget.a(hal_arm_zot716u2_zot716u2_misc.o)
 .text.str8131_set_irq_level
                0x000ead70       0x84 /cygdrive/C/ZOTDWP2020_SDK_0.01/ecos/ecos_install/lib/libtarget.a(hal_arm_zot716u2_zot716u2_misc.o)
 .text.hal_hardware_init
                0x000eadf4       0x94 /cygdrive/C/ZOTDWP2020_SDK_0.01/ecos/ecos_install/lib/libtarget.a(hal_arm_zot716u2_zot716u2_misc.o)
                0x000eadf4                hal_hardware_init
 .text.hal_IRQ_handler
                0x000eae88      0x14c /cygdrive/C/ZOTDWP2020_SDK_0.01/ecos/ecos_install/lib/libtarget.a(hal_arm_zot716u2_zot716u2_misc.o)
                0x000eae88                hal_IRQ_handler
 .text.hal_interrupt_mask
                0x000eafd4       0x24 /cygdrive/C/ZOTDWP2020_SDK_0.01/ecos/ecos_install/lib/libtarget.a(hal_arm_zot716u2_zot716u2_misc.o)
                0x000eafd4                hal_interrupt_mask
 .text.hal_interrupt_unmask
                0x000eaff8       0x30 /cygdrive/C/ZOTDWP2020_SDK_0.01/ecos/ecos_install/lib/libtarget.a(hal_arm_zot716u2_zot716u2_misc.o)
                0x000eaff8                hal_interrupt_unmask
 .text.hal_interrupt_acknowledge
                0x000eb028       0x10 /cygdrive/C/ZOTDWP2020_SDK_0.01/ecos/ecos_install/lib/libtarget.a(hal_arm_zot716u2_zot716u2_misc.o)
                0x000eb028                hal_interrupt_acknowledge
 .text.hal_interrupt_set_level
                0x000eb038       0x10 /cygdrive/C/ZOTDWP2020_SDK_0.01/ecos/ecos_install/lib/libtarget.a(hal_arm_zot716u2_zot716u2_misc.o)
                0x000eb038                hal_interrupt_set_level
 .text.hal_diag_init
                0x000eb048       0x10 /cygdrive/C/ZOTDWP2020_SDK_0.01/ecos/ecos_install/lib/libtarget.a(hal_arm_zot716u2_hal_diag.o)
                0x000eb048                hal_diag_init
 .text.hal_diag_read_char
                0x000eb058       0x10 /cygdrive/C/ZOTDWP2020_SDK_0.01/ecos/ecos_install/lib/libtarget.a(hal_arm_zot716u2_hal_diag.o)
                0x000eb058                hal_diag_read_char
 .text.hal_diag_write_char
                0x000eb068       0x10 /cygdrive/C/ZOTDWP2020_SDK_0.01/ecos/ecos_install/lib/libtarget.a(hal_arm_zot716u2_hal_diag.o)
                0x000eb068                hal_diag_write_char
 .text.__builtin_delete
                0x000eb078       0x10 /cygdrive/C/ZOTDWP2020_SDK_0.01/ecos/ecos_install/lib/libtarget.a(infra_delete.o)
                0x000eb078                __builtin_delete
 .text.__11Cyg_CounterUi
                0x000eb088       0x28 /cygdrive/C/ZOTDWP2020_SDK_0.01/ecos/ecos_install/lib/libtarget.a(kernel_clock.o)
                0x000eb088                Cyg_Counter::Cyg_Counter(unsigned int)
 .text._._11Cyg_Counter
                0x000eb0b0       0x1c /cygdrive/C/ZOTDWP2020_SDK_0.01/ecos/ecos_install/lib/libtarget.a(kernel_clock.o)
                0x000eb0b0                Cyg_Counter::~Cyg_Counter(void)
 .text.tick__11Cyg_CounterUi
                0x000eb0cc      0x160 /cygdrive/C/ZOTDWP2020_SDK_0.01/ecos/ecos_install/lib/libtarget.a(kernel_clock.o)
                0x000eb0cc                Cyg_Counter::tick(unsigned int)
 .text.add_alarm__11Cyg_CounterP9Cyg_Alarm
                0x000eb22c      0x10c /cygdrive/C/ZOTDWP2020_SDK_0.01/ecos/ecos_install/lib/libtarget.a(kernel_clock.o)
                0x000eb22c                Cyg_Counter::add_alarm(Cyg_Alarm *)
 .text.rem_alarm__11Cyg_CounterP9Cyg_Alarm
                0x000eb338       0x8c /cygdrive/C/ZOTDWP2020_SDK_0.01/ecos/ecos_install/lib/libtarget.a(kernel_clock.o)
                0x000eb338                Cyg_Counter::rem_alarm(Cyg_Alarm *)
 .text.__9Cyg_ClockGQ29Cyg_Clock14cyg_resolution
                0x000eb3c4       0x30 /cygdrive/C/ZOTDWP2020_SDK_0.01/ecos/ecos_install/lib/libtarget.a(kernel_clock.o)
                0x000eb3c4                Cyg_Clock::Cyg_Clock(Cyg_Clock::cyg_resolution)
 .text._._9Cyg_Clock
                0x000eb3f4       0x14 /cygdrive/C/ZOTDWP2020_SDK_0.01/ecos/ecos_install/lib/libtarget.a(kernel_clock.o)
                0x000eb3f4                Cyg_Clock::~Cyg_Clock(void)
 .text.__9Cyg_AlarmP11Cyg_CounterPFP9Cyg_AlarmUi_vUi
                0x000eb408       0x44 /cygdrive/C/ZOTDWP2020_SDK_0.01/ecos/ecos_install/lib/libtarget.a(kernel_clock.o)
                0x000eb408                Cyg_Alarm::Cyg_Alarm(Cyg_Counter *, void (*)(Cyg_Alarm *, unsigned int), unsigned int)
 .text._._9Cyg_Alarm
                0x000eb44c       0x40 /cygdrive/C/ZOTDWP2020_SDK_0.01/ecos/ecos_install/lib/libtarget.a(kernel_clock.o)
                0x000eb44c                Cyg_Alarm::~Cyg_Alarm(void)
 .text.initialize__9Cyg_AlarmUxUx
                0x000eb48c       0x5c /cygdrive/C/ZOTDWP2020_SDK_0.01/ecos/ecos_install/lib/libtarget.a(kernel_clock.o)
                0x000eb48c                Cyg_Alarm::initialize(unsigned long long, unsigned long long)
 .text.synchronize__9Cyg_Alarm
                0x000eb4e8       0x9c /cygdrive/C/ZOTDWP2020_SDK_0.01/ecos/ecos_install/lib/libtarget.a(kernel_clock.o)
                0x000eb4e8                Cyg_Alarm::synchronize(void)
 .text.__17Cyg_RealTimeClock
                0x000eb584       0x84 /cygdrive/C/ZOTDWP2020_SDK_0.01/ecos/ecos_install/lib/libtarget.a(kernel_clock.o)
                0x000eb584                Cyg_RealTimeClock::Cyg_RealTimeClock(void)
 .text.isr__17Cyg_RealTimeClockUiUi
                0x000eb608       0x28 /cygdrive/C/ZOTDWP2020_SDK_0.01/ecos/ecos_install/lib/libtarget.a(kernel_clock.o)
                0x000eb608                Cyg_RealTimeClock::isr(unsigned int, unsigned int)
 .text.dsr__17Cyg_RealTimeClockUiUiUi
                0x000eb630       0x38 /cygdrive/C/ZOTDWP2020_SDK_0.01/ecos/ecos_install/lib/libtarget.a(kernel_clock.o)
                0x000eb630                Cyg_RealTimeClock::dsr(unsigned int, unsigned int, unsigned int)
 .text.__static_initialization_and_destruction_0
                0x000eb668       0x58 /cygdrive/C/ZOTDWP2020_SDK_0.01/ecos/ecos_install/lib/libtarget.a(kernel_clock.o)
 .text._GLOBAL_.I.14000._9Cyg_Clock.real_time_clock
                0x000eb6c0       0x20 /cygdrive/C/ZOTDWP2020_SDK_0.01/ecos/ecos_install/lib/libtarget.a(kernel_clock.o)
 .text._GLOBAL_.D.14000._9Cyg_Clock.real_time_clock
                0x000eb6e0       0x20 /cygdrive/C/ZOTDWP2020_SDK_0.01/ecos/ecos_install/lib/libtarget.a(kernel_clock.o)
 .text.__static_initialization_and_destruction_0
                0x000eb700       0x90 /cygdrive/C/ZOTDWP2020_SDK_0.01/ecos/ecos_install/lib/libtarget.a(language_c_libc_stdin.o)
 .text._GLOBAL_.I.50000.cyg_libc_stdio_stdin
                0x000eb790       0x20 /cygdrive/C/ZOTDWP2020_SDK_0.01/ecos/ecos_install/lib/libtarget.a(language_c_libc_stdin.o)
 .text._GLOBAL_.D.50000.cyg_libc_stdio_stdin
                0x000eb7b0       0x20 /cygdrive/C/ZOTDWP2020_SDK_0.01/ecos/ecos_install/lib/libtarget.a(language_c_libc_stdin.o)
 .text.__div    0x000eb7d0       0xac /cygdrive/C/ZOTDWP2020_SDK_0.01/ecos/ecos_install/lib/libtarget.a(language_c_libc_div.o)
                0x000eb7d0                div
                0x000eb7d0                __div
 .text.__asctime
                0x000eb87c       0x24 /cygdrive/C/ZOTDWP2020_SDK_0.01/ecos/ecos_install/lib/libtarget.a(language_c_libc_asctime.o)
                0x000eb87c                asctime
                0x000eb87c                __asctime
 .text.__asctime_r
                0x000eb8a0      0x150 /cygdrive/C/ZOTDWP2020_SDK_0.01/ecos/ecos_install/lib/libtarget.a(language_c_libc_asctime_r.o)
                0x000eb8a0                __asctime_r
 .text.__gmtime_r
                0x000eb9f0      0x334 /cygdrive/C/ZOTDWP2020_SDK_0.01/ecos/ecos_install/lib/libtarget.a(language_c_libc_gmtime_r.o)
                0x000eb9f0                __gmtime_r
 .text.cyg_libc_itoa
                0x000ebd24      0x140 /cygdrive/C/ZOTDWP2020_SDK_0.01/ecos/ecos_install/lib/libtarget.a(language_c_libc_itoa.o)
                0x000ebd24                cyg_libc_itoa
 .text          0x000ebe64       0xb0 /tools/H-i686-pc-cygwin/lib/gcc-lib/arm-elf/2.95.2/libgcc.a(_divsi3.o)
                0x000ebe64                __divsi3
 .text          0x000ebf14        0x4 /tools/H-i686-pc-cygwin/lib/gcc-lib/arm-elf/2.95.2/libgcc.a(_dvmd_tls.o)
                0x000ebf14                __div0
 .text          0x000ebf18       0xd0 /tools/H-i686-pc-cygwin/lib/gcc-lib/arm-elf/2.95.2/libgcc.a(_modsi3.o)
                0x000ebf18                __modsi3
 .text          0x000ebfe8      0x4e8 /tools/H-i686-pc-cygwin/lib/gcc-lib/arm-elf/2.95.2/libgcc.a(_udivdi3.o)
                0x000ebfe8                __udivdi3
 .text          0x000ec4d0       0x98 /tools/H-i686-pc-cygwin/lib/gcc-lib/arm-elf/2.95.2/libgcc.a(_udivsi3.o)
                0x000ec4d0                __udivsi3
 .text          0x000ec568      0x4d0 /tools/H-i686-pc-cygwin/lib/gcc-lib/arm-elf/2.95.2/libgcc.a(_umoddi3.o)
                0x000ec568                __umoddi3
 .text          0x000eca38       0xb4 /tools/H-i686-pc-cygwin/lib/gcc-lib/arm-elf/2.95.2/libgcc.a(_umodsi3.o)
                0x000eca38                __umodsi3
 *(.gnu.warning)
 *(.gnu.linkonce*)
 .gnu.linkonce.t.__t12Cyg_Mempolt21Z35Cyg_Mempool_Variable_ImplementationPUciUi
                0x000ecaec       0x24 /cygdrive/C/ZOTDWP2020_SDK_0.01/ecos/ecos_install/lib/libtarget.a(kernel_memvar.o)
                0x000ecaec                Cyg_Mempolt2<Cyg_Mempool_Variable_Implementation>::Cyg_Mempolt2(unsigned char *, int, unsigned int)
 .gnu.linkonce.t._._t12Cyg_Mempolt21Z35Cyg_Mempool_Variable_Implementation
                0x000ecb10       0xb0 /cygdrive/C/ZOTDWP2020_SDK_0.01/ecos/ecos_install/lib/libtarget.a(kernel_memvar.o)
                0x000ecb10                Cyg_Mempolt2<Cyg_Mempool_Variable_Implementation>::~Cyg_Mempolt2(void)
 .gnu.linkonce.t.free__t12Cyg_Mempolt21Z35Cyg_Mempool_Variable_ImplementationPUci
                0x000ecbc0      0x2e4 /cygdrive/C/ZOTDWP2020_SDK_0.01/ecos/ecos_install/lib/libtarget.a(kernel_memvar.o)
                0x000ecbc0                Cyg_Mempolt2<Cyg_Mempool_Variable_Implementation>::free(unsigned char *, int)
 .gnu.linkonce.t.get_allocation_size__t12Cyg_Mempolt21Z35Cyg_Mempool_Variable_ImplementationPUc
                0x000ecea4       0x98 /cygdrive/C/ZOTDWP2020_SDK_0.01/ecos/ecos_install/lib/libtarget.a(kernel_memvar.o)
                0x000ecea4                Cyg_Mempolt2<Cyg_Mempool_Variable_Implementation>::get_allocation_size(unsigned char *)
 .gnu.linkonce.t.try_alloc__t12Cyg_Mempolt21Z35Cyg_Mempool_Variable_Implementationi
                0x000ecf3c       0xdc /cygdrive/C/ZOTDWP2020_SDK_0.01/ecos/ecos_install/lib/libtarget.a(kernel_memvar.o)
                0x000ecf3c                Cyg_Mempolt2<Cyg_Mempool_Variable_Implementation>::try_alloc(int)
 .gnu.linkonce.t.__t10Cyg_Mboxt22ZPvi30
                0x000ed018       0x34 /cygdrive/C/ZOTDWP2020_SDK_0.01/ecos/ecos_install/lib/libtarget.a(kernel_mbox.o)
                0x000ed018                Cyg_Mboxt2<void *, 3>::Cyg_Mboxt2()
 .gnu.linkonce.t._._t10Cyg_Mboxt22ZPvi30
                0x000ed04c       0xe8 /cygdrive/C/ZOTDWP2020_SDK_0.01/ecos/ecos_install/lib/libtarget.a(kernel_mbox.o)
                0x000ed04c                Cyg_Mboxt2<void *, 3>::~Cyg_Mboxt2()
 .gnu.linkonce.t.get__t10Cyg_Mboxt22ZPvi30RPv
                0x000ed134      0x174 /cygdrive/C/ZOTDWP2020_SDK_0.01/ecos/ecos_install/lib/libtarget.a(kernel_mbox.o)
                0x000ed134                Cyg_Mboxt2<void *, 3>::get(, void *&)
 .gnu.linkonce.t.get__t10Cyg_Mboxt22ZPvi30RPvUx
                0x000ed2a8      0x1cc /cygdrive/C/ZOTDWP2020_SDK_0.01/ecos/ecos_install/lib/libtarget.a(kernel_mbox.o)
                0x000ed2a8                Cyg_Mboxt2<void *, 3>::get(, void *&, unsigned long long)
 .gnu.linkonce.t.put__t10Cyg_Mboxt22ZPvi30Pv
                0x000ed474      0x174 /cygdrive/C/ZOTDWP2020_SDK_0.01/ecos/ecos_install/lib/libtarget.a(kernel_mbox.o)
                0x000ed474                Cyg_Mboxt2<void *, 3>::put(, void *)
 *(.init)
 *(.glue_7)
 *(.glue_7t)
                0x000ed5e8                etext=.
                0x000ed5e8                PROVIDE (__etext, .)

.fini           0x000ed5e8        0x0
                0x000ed5e8                .=.
 *(.fini)

.rodata         0x000ed5e8    0x6958a
                0x000ed5e8                .=.
 *(.rodata*)
 .rodata        0x000ed5e8       0x1d /cygdrive/C/ZOTDWP2020_SDK_0.01/prod/zotdwp2020/build/obj/zotmain.o
 *fill*         0x000ed605        0x3
 .rodata        0x000ed608       0x68 ./lib/usb_host.a(usb.o)
 .rodata        0x000ed670        0x8 ./lib/usb_host.a(hub.o)
 .rodata        0x000ed678       0x3f ./lib/usb_host.a(printer.o)
 *fill*         0x000ed6b7        0x1
 .rodata.hcd_name
                0x000ed6b8        0x9 ./lib/usb_host.a(ehcihcd.o)
 *fill*         0x000ed6c1        0x3
 .rodata.ehci_driver
                0x000ed6c4       0x3c ./lib/usb_host.a(ehcihcd.o)
 .rodata        0x000ed700        0xd ./lib/usb_host.a(ehcihcd.o)
 *fill*         0x000ed70d        0x3
 .rodata        0x000ed710       0x22 ./lib/usb_host.a(ehcische.o)
 .rodata.usb2_rh_dev_descriptor
                0x000ed732       0x12 ./lib/usb_host.a(u2hcd.o)
 .rodata.usb11_rh_dev_descriptor
                0x000ed744       0x12 ./lib/usb_host.a(u2hcd.o)
 .rodata.fs_rh_config_descriptor
                0x000ed756       0x19 ./lib/usb_host.a(u2hcd.o)
 .rodata.hs_rh_config_descriptor
                0x000ed76f       0x19 ./lib/usb_host.a(u2hcd.o)
 .rodata        0x000ed788       0x1f ./lib/usb_host.a(u2hcd.o)
 *fill*         0x000ed7a7        0x1
 .rodata        0x000ed7a8        0xb ./lib/usb_host.a(ohci.o)
 *fill*         0x000ed7b3        0x1
 .rodata.driver_name
                0x000ed7b4        0x7 ./lib/usb_host.a(usbnet.o)
 *fill*         0x000ed7bb        0x1
 .rodata.ax8817x_info
                0x000ed7bc       0x2c ./lib/usb_host.a(usbnet.o)
 .rodata        0x000ed7e8       0xdb ./lib/usb_host.a(usbnet.o)
 *fill*         0x000ed8c3        0x1
 .rodata.ax88772_info
                0x000ed8c4       0x2c ./lib/usb_host.a(usbnet.o)
 .rodata.ax88178_info
                0x000ed8f0       0x2c ./lib/usb_host.a(usbnet.o)
 .rodata.ax88772a_info
                0x000ed91c       0x2c ./lib/usb_host.a(usbnet.o)
 .rodata.products
                0x000ed948       0xb4 ./lib/usb_host.a(usbnet.o)
 .rodata        0x000ed9fc       0xa4 ./lib/psglobal.a(psmain.o)
 .rodata        0x000edaa0       0xd8 ./lib/psglobal.a(eeprom.o)
 .rodata        0x000edb78        0x4 ./lib/psglobal.a(rwflash.o)
 .rodata        0x000edb7c       0x10 ./lib/psglobal.a(led.o)
 .rodata        0x000edb8c       0x33 ./lib/psglobal.a(pkdriver.o)
 *fill*         0x000edbbf        0x1
 .rodata.crc32table
                0x000edbc0      0x400 ./lib/psglobal.a(crc32.o)
 .rodata        0x000edfc0        0xe ./lib/psglobal.a(pm.o)
 *fill*         0x000edfce        0x2
 .rodata.MyDataSize
                0x000edfd0       0x10 ./lib/http_zot.a(endmark.o)
                0x000edfd0                MyDataSize
 .rodata.MyData
                0x000edfe0    0x60000 ./lib/http_zot.a(endmark.o)
                0x000edfe0                MyData
 .rodata        0x0014dfe0      0xb11 ./lib/http_zot.a(httpd.o)
 *fill*         0x0014eaf1        0x3
 .rodata        0x0014eaf4      0xec8 ./lib/http_zot.a(http_constant.o)
 .rodata.HTTPtypes
                0x0014f9bc       0x50 ./lib/http_zot.a(http_constant.o)
                0x0014f9bc                HTTPtypes
 .rodata.basis_64
                0x0014fa0c       0x41 ./lib/http_zot.a(http_constant.o)
                0x0014fa0c                basis_64
 .rodata.Days   0x0014fa4d        0xc ./lib/http_zot.a(http_constant.o)
                0x0014fa4d                Days
 *fill*         0x0014fa59        0x3
 .rodata        0x0014fa5c       0x24 ./lib/http_zot.a(gmtime.o)
 .rodata.FrameTypeSequence
                0x0014fa80        0x8 ./lib/ipxbeui.a(ipx.o)
                0x0014fa80                FrameTypeSequence
 .rodata        0x0014fa88       0x13 ./lib/ipxbeui.a(netbeui.o)
 *fill*         0x0014fa9b        0x1
 .rodata        0x0014fa9c       0x1b ./lib/ntps.a(ntudp.o)
 *fill*         0x0014fab7        0x1
 .rodata        0x0014fab8       0x24 ./lib/ntps.a(ntutil.o)
 .rodata        0x0014fadc       0x2c ./lib/ntps.a(ntipxbeui.o)
 .rodata        0x0014fb08       0xc0 ./lib/spooler.a(prnport.o)
 .rodata        0x0014fbc8      0x131 ./lib/spooler.a(prnqueue.o)
 *fill*         0x0014fcf9        0x3
 .rodata        0x0014fcfc      0x10f ./lib/novell.a(nps3.o)
 *fill*         0x0014fe0b        0x1
 .rodata.PrintServerData
                0x0014fe0c      0x3c1 ./lib/novell.a(nps3.o)
                0x0014fe0c                PrintServerData
 *fill*         0x001501cd        0x3
 .rodata.EPSONData
                0x001501d0       0x21 ./lib/novell.a(nps3.o)
                0x001501d0                EPSONData
 .rodata.lrgchars
                0x001501f1      0x149 ./lib/novell.a(banner.o)
                0x001501f1                lrgchars
 *fill*         0x0015033a        0x2
 .rodata.BannerData
                0x0015033c      0x2a3 ./lib/novell.a(banner.o)
                0x0015033c                BannerData
 *fill*         0x001505df        0x1
 .rodata.CharTable
                0x001505e0       0x30 ./lib/novell.a(banner.o)
                0x001505e0                CharTable
 .rodata        0x00150610        0x6 ./lib/novell.a(banner.o)
 *fill*         0x00150616        0x2
 .rodata        0x00150618       0x2c ./lib/nds.a(ndsqueue.o)
 .rodata        0x00150644       0x1a ./lib/nds.a(ndsmain.o)
 *fill*         0x0015065e        0x2
 .rodata        0x00150660       0x2e ./lib/nds.a(ndslogin.o)
 *fill*         0x0015068e        0x2
 .rodata        0x00150690       0xc3 ./lib/lpd.a(lpd.o)
 *fill*         0x00150753        0x1
 .rodata        0x00150754        0x5 ./lib/rawtcpd.a(rawtcpd.o)
 *fill*         0x00150759        0x3
 .rodata        0x0015075c      0x134 ./lib/ippd.a(ippd.o)
 .rodata        0x00150890      0x2de ./lib/ippd.a(ippd_constant.o)
 *fill*         0x00150b6e        0x2
 .rodata        0x00150b70       0x7b ./lib/telnet.a(telserv.o)
 *fill*         0x00150beb        0x1
 .rodata        0x00150bec      0x83b ./lib/telnet.a(telutil.o)
 *fill*         0x00151427        0x1
 .rodata        0x00151428      0x9ac ./lib/telnet.a(menu.o)
 .rodata.mainmenu
                0x00151dd4        0x8 ./lib/telnet.a(menu.o)
                0x00151dd4                mainmenu
 .rodata.SayOKSuppressGoAhead
                0x00151ddc        0x4 ./lib/telnet.a(menu.o)
                0x00151ddc                SayOKSuppressGoAhead
 .rodata.NeedClientTerminalType
                0x00151de0        0x7 ./lib/telnet.a(menu.o)
                0x00151de0                NeedClientTerminalType
 .rodata.SayOKEchoDisable
                0x00151de7        0x4 ./lib/telnet.a(menu.o)
                0x00151de7                SayOKEchoDisable
 .rodata.DoTerminalOption
                0x00151deb        0x4 ./lib/telnet.a(menu.o)
                0x00151deb                DoTerminalOption
 .rodata.WillEchoOption
                0x00151def        0x4 ./lib/telnet.a(menu.o)
                0x00151def                WillEchoOption
 *fill*         0x00151df3        0x1
 .rodata.LoginBanner
                0x00151df4       0x26 ./lib/telnet.a(menu.o)
                0x00151df4                LoginBanner
 *fill*         0x00151e1a        0x2
 .rodata.LoginError
                0x00151e1c       0x16 ./lib/telnet.a(menu.o)
                0x00151e1c                LoginError
 *fill*         0x00151e32        0x2
 .rodata.ADMINUSER
                0x00151e34        0x7 ./lib/telnet.a(menu.o)
                0x00151e34                ADMINUSER
 *fill*         0x00151e3b        0x1
 .rodata.StringFormat2
                0x00151e3c        0x5 ./lib/telnet.a(menu.o)
                0x00151e3c                StringFormat2
 *fill*         0x00151e41        0x3
 .rodata.StringFormat3
                0x00151e44        0x4 ./lib/telnet.a(menu.o)
                0x00151e44                StringFormat3
 .rodata.IpAddressFormat1
                0x00151e48        0xe ./lib/telnet.a(menu.o)
                0x00151e48                IpAddressFormat1
 .rodata.Tftpderrmsgs
                0x00151e56       0x68 ./lib/tftp_zot.a(tftpd.o)
 *fill*         0x00151ebe        0x2
 .rodata        0x00151ec0      0x367 ./lib/tftp_zot.a(tftpd.o)
 *fill*         0x00152227        0x1
 .rodata.PrintTestData1
                0x00152228      0x131 ./lib/tftp_zot.a(tftpd.o)
                0x00152228                PrintTestData1
 .rodata.ethbroadcast
                0x00152359        0x6 ./lib/tcpip.a(etharp.o)
 *fill*         0x0015235f        0x1
 .rodata        0x00152360       0x24 ./lib/tcpip.a(tcpip.o)
 .rodata.ip_addr_any
                0x00152384        0x4 ./lib/tcpip.a(ip_addr.o)
                0x00152384                ip_addr_any
 .rodata.ip_addr_broadcast
                0x00152388        0x4 ./lib/tcpip.a(ip_addr.o)
                0x00152388                ip_addr_broadcast
 .rodata.bitmap_bits
                0x0015238c        0x8 ./lib/tcpip.a(ip_frag.o)
 .rodata.memp_sizes
                0x00152394       0x16 ./lib/tcpip.a(memp.o)
 .rodata.memp_num
                0x001523aa       0x16 ./lib/tcpip.a(memp.o)
 .rodata.tcp_backoff
                0x001523c0        0xd ./lib/tcpip.a(tcp.o)
                0x001523c0                tcp_backoff
 *fill*         0x001523cd        0x3
 .rodata        0x001523d0        0x7 ./lib/tcpip.a(sys_arch.o)
 *fill*         0x001523d7        0x1
 .rodata        0x001523d8       0x12 ./lib/tcpip.a(linklip.o)
 *fill*         0x001523ea        0x2
 .rodata        0x001523ec        0x2 ./lib/atalk.a(zip.o)
 *fill*         0x001523ee        0x2
 .rodata        0x001523f0       0x41 ./lib/atalk.a(papd.o)
 *fill*         0x00152431        0x3
 .rodata.Inet_eol
                0x00152434        0x3 ./lib/atalk.a(socket2.o)
                0x00152434                Inet_eol
 *fill*         0x00152437        0x1
 .rodata        0x00152438       0x49 ./lib/atalk.a(magics.o)
 *fill*         0x00152481        0x3
 .rodata        0x00152484       0x5a ./lib/atalk.a(queries.o)
 .rodata.TBCP_escaped
                0x001524de       0x20 ./lib/atalk.a(paprint.o)
                0x001524de                TBCP_escaped
 .rodata.BCP_escaped
                0x001524fe       0x20 ./lib/atalk.a(paprint.o)
                0x001524fe                BCP_escaped
 *fill*         0x0015251e        0x2
 .rodata        0x00152520       0x23 ./lib/snmp.a(snmpd.o)
 *fill*         0x00152543        0x1
 .rodata        0x00152544       0x83 ./lib/snmp.a(snmpaget.o)
 *fill*         0x001525c7        0x1
 .rodata        0x001525c8       0x29 ./lib/snmp.a(snmp_api.o)
 *fill*         0x001525f1        0x3
 .rodata        0x001525f4      0x475 ./lib/snmp.a(snmpvars.o)
 *fill*         0x00152a69        0x3
 .rodata        0x00152a6c      0x15e ./lib/psutility.a(alert.o)
 *fill*         0x00152bca        0x2
 .rodata        0x00152bcc       0x84 ./lib/uart.a(serial.o)
 .rodata        0x00152c50       0x7c ./lib/rt3070.a(rt3070_dep.o)
 .rodata        0x00152ccc       0x18 ./lib/rt3070.a(cmm_data.o)
 .rodata        0x00152ce4       0x13 ./lib/rt3070.a(cmm_sync.o)
 *fill*         0x00152cf7        0x1
 .rodata        0x00152cf8      0x181 ./lib/rt3070.a(cmm_wpa.o)
 *fill*         0x00152e79        0x3
 .rodata        0x00152e7c       0x59 ./lib/rt3070.a(cmm_wpa_adhoc.o)
 *fill*         0x00152ed5        0x3
 .rodata        0x00152ed8        0x9 ./lib/rt3070.a(connect.o)
 *fill*         0x00152ee1        0x3
 .rodata.aes_rcon
                0x00152ee4       0x2c ./lib/rt3070.a(crypt_aes.o)
 .rodata.aes_sbox_enc
                0x00152f10      0x100 ./lib/rt3070.a(crypt_aes.o)
 .rodata.aes_sbox_dec
                0x00153010      0x100 ./lib/rt3070.a(crypt_aes.o)
 .rodata.aes_mul_2
                0x00153110      0x100 ./lib/rt3070.a(crypt_aes.o)
 .rodata.aes_mul_3
                0x00153210      0x100 ./lib/rt3070.a(crypt_aes.o)
 .rodata.aes_mul_9
                0x00153310      0x100 ./lib/rt3070.a(crypt_aes.o)
 .rodata.aes_mul_b
                0x00153410      0x100 ./lib/rt3070.a(crypt_aes.o)
 .rodata.aes_mul_d
                0x00153510      0x100 ./lib/rt3070.a(crypt_aes.o)
 .rodata.aes_mul_e
                0x00153610      0x100 ./lib/rt3070.a(crypt_aes.o)
 .rodata.MD5_DefaultHashValue
                0x00153710       0x10 ./lib/rt3070.a(crypt_md5.o)
 .rodata.SHA1_K
                0x00153720       0x10 ./lib/rt3070.a(crypt_sha2.o)
 .rodata.SHA1_DefaultHashValue
                0x00153730       0x14 ./lib/rt3070.a(crypt_sha2.o)
 .rodata.SHA256_K
                0x00153744      0x100 ./lib/rt3070.a(crypt_sha2.o)
 .rodata.SHA256_DefaultHashValue
                0x00153844       0x20 ./lib/rt3070.a(crypt_sha2.o)
 .rodata        0x00153864       0x26 ./lib/rt3070.a(dls.o)
 *fill*         0x0015388a        0x2
 .rodata        0x0015388c        0xd ./lib/rt3070.a(mlme.o)
 *fill*         0x00153899        0x3
 .rodata        0x0015389c      0x4cf ./lib/rt3070.a(rt_ate.o)
 *fill*         0x00153d6b        0x1
 .rodata        0x00153d6c      0x654 ./lib/rt3070.a(rt_linux.o)
 .rodata        0x001543c0       0x3c ./lib/rt3070.a(rt_usb.o)
 .rodata        0x001543fc       0x27 ./lib/rt3070.a(rtmp_init.o)
 *fill*         0x00154423        0x1
 .rodata        0x00154424       0x1c ./lib/rt3070.a(rtusb_io.o)
 .rodata        0x00154440       0x10 ./lib/rt3070.a(rtusb_bulk.o)
 .rodata        0x00154450        0xf ./lib/rt3070.a(sync.o)
 *fill*         0x0015445f        0x1
 .rodata        0x00154460       0x92 ./lib/rt3070.a(tdls.o)
 *fill*         0x001544f2        0x2
 .rodata        0x001544f4       0x64 ./lib/rt3070.a(tdls_ctrl.o)
 .rodata        0x00154558       0x30 ./lib/rt3070.a(tdls_link_mng.o)
 .rodata        0x00154588       0x1a ./lib/rt3070.a(tdls_tlv.o)
 *fill*         0x001545a2        0x2
 .rodata        0x001545a4       0x11 ./lib/rt3070.a(usb_main_dev.o)
 *fill*         0x001545b5        0x3
 .rodata        0x001545b8       0x2f ./lib/rt3070.a(wpa.o)
 *fill*         0x001545e7        0x1
 .rodata        0x001545e8      0x236 ./lib/rt3070.a(wsc.o)
 *fill*         0x0015481e        0x2
 .rodata        0x00154820        0x2 ./lib/rt3070.a(wsc_tlv.o)
 *fill*         0x00154822        0x2
 .rodata        0x00154824       0x28 ./lib/rt3070.a(wlanif.o)
 .rodata        0x0015484c       0x46 ./lib/rt3070.a(action.o)
 *fill*         0x00154892        0x2
 .rodata        0x00154894       0x4e ./lib/rt3070.a(assoc.o)
 *fill*         0x001548e2        0x2
 .rodata        0x001548e4        0x5 ./lib/rt3070.a(auth.o)
 *fill*         0x001548e9        0x3
 .rodata        0x001548ec       0x18 ./lib/rt3070.a(ba_action.o)
 .rodata        0x00154904        0xb ./lib/rt3070.a(rt_main_dev.o)
 *fill*         0x0015490f        0x1
 .rodata        0x00154910      0x162 ./lib/rt3070.a(spectrum.o)
 *fill*         0x00154a72        0x2
 .rodata        0x00154a74      0x638 ./lib/rt3070.a(sta_cfg.o)
 .rodata        0x001550ac      0x23d ./lib/rt3070.a(crypt_biginteger.o)
 *fill*         0x001552e9        0x3
 .rodata        0x001552ec      0x18b ./lib/rendezvous.a(Responder.o)
 .rodata.zeroIPAddr
                0x00155477        0x4 ./lib/rendezvous.a(mDNS.o)
                0x00155477                zeroIPAddr
 .rodata.zerov6Addr
                0x0015547b       0x10 ./lib/rendezvous.a(mDNS.o)
                0x0015547b                zerov6Addr
 .rodata.onesIPv4Addr
                0x0015548b        0x4 ./lib/rendezvous.a(mDNS.o)
                0x0015548b                onesIPv4Addr
 .rodata.onesIPv6Addr
                0x0015548f       0x10 ./lib/rendezvous.a(mDNS.o)
                0x0015548f                onesIPv6Addr
 *fill*         0x0015549f        0x1
 .rodata.mDNSInterface_Any
                0x001554a0        0x4 ./lib/rendezvous.a(mDNS.o)
                0x001554a0                mDNSInterface_Any
 .rodata.mDNSInterfaceMark
                0x001554a4        0x4 ./lib/rendezvous.a(mDNS.o)
 .rodata.MulticastDNSPort
                0x001554a8        0x2 ./lib/rendezvous.a(mDNS.o)
                0x001554a8                MulticastDNSPort
 .rodata.AllDNSLinkGroup
                0x001554aa        0x4 ./lib/rendezvous.a(mDNS.o)
                0x001554aa                AllDNSLinkGroup
 .rodata.AllDNSLinkGroupv6
                0x001554ae       0x10 ./lib/rendezvous.a(mDNS.o)
                0x001554ae                AllDNSLinkGroupv6
 *fill*         0x001554be        0x2
 .rodata.AllDNSLinkGroup_v4
                0x001554c0       0x14 ./lib/rendezvous.a(mDNS.o)
                0x001554c0                AllDNSLinkGroup_v4
 .rodata.zeroID
                0x001554d4        0x2 ./lib/rendezvous.a(mDNS.o)
 .rodata.QueryFlags
                0x001554d6        0x2 ./lib/rendezvous.a(mDNS.o)
 .rodata.ResponseFlags
                0x001554d8        0x2 ./lib/rendezvous.a(mDNS.o)
 *fill*         0x001554da        0x2
 .rodata        0x001554dc     0x121e ./lib/rendezvous.a(mDNS.o)
 *fill*         0x001566fa        0x2
 .rodata.hexValues
                0x001566fc       0x11 ./lib/rendezvous.a(mDNS.o)
 *fill*         0x0015670d        0x3
 .rodata        0x00156710       0xab ./lib/rendezvous.a(mDNSPosix.o)
 *fill*         0x001567bb        0x1
 .rodata        0x001567bc        0xd ./lib/rendezvous.a(mDNSUNP.o)
 *fill*         0x001567c9        0x3
 .rodata        0x001567cc       0x4f /cygdrive/C/ZOTDWP2020_SDK_0.01/ecos/ecos_install/lib/extras.o
 *fill*         0x0015681b        0x1
 .rodata        0x0015681c       0x77 /cygdrive/C/ZOTDWP2020_SDK_0.01/ecos/ecos_install/lib/libtarget.a(infra_diag.o)
 *fill*         0x00156893        0x1
 .rodata        0x00156894        0xc /cygdrive/C/ZOTDWP2020_SDK_0.01/ecos/ecos_install/lib/libtarget.a(kernel_thread.o)
 .rodata        0x001568a0        0xa /cygdrive/C/ZOTDWP2020_SDK_0.01/ecos/ecos_install/lib/libtarget.a(language_c_libc_stderr.o)
 *fill*         0x001568aa        0x2
 .rodata        0x001568ac        0xa /cygdrive/C/ZOTDWP2020_SDK_0.01/ecos/ecos_install/lib/libtarget.a(language_c_libc_stdout.o)
 *fill*         0x001568b6        0x2
 .rodata        0x001568b8        0x7 /cygdrive/C/ZOTDWP2020_SDK_0.01/ecos/ecos_install/lib/libtarget.a(language_c_libc_vsnprintf.o)
 *fill*         0x001568bf        0x1
 .rodata        0x001568c0       0x4e /cygdrive/C/ZOTDWP2020_SDK_0.01/ecos/ecos_install/lib/libtarget.a(language_c_libc_vfnprintf.o)
 *fill*         0x0015690e        0x2
 .rodata.Cyg_libc_str_null_mask_1
                0x00156910        0x8 /cygdrive/C/ZOTDWP2020_SDK_0.01/ecos/ecos_install/lib/libtarget.a(language_c_libc_strsuppt.o)
                0x00156910                Cyg_libc_str_null_mask_1
 .rodata.Cyg_libc_str_null_mask_2
                0x00156918        0x8 /cygdrive/C/ZOTDWP2020_SDK_0.01/ecos/ecos_install/lib/libtarget.a(language_c_libc_strsuppt.o)
                0x00156918                Cyg_libc_str_null_mask_2
 .rodata.cyg_libc_time_month_lengths
                0x00156920       0x18 /cygdrive/C/ZOTDWP2020_SDK_0.01/ecos/ecos_install/lib/libtarget.a(language_c_libc_timeutil.o)
                0x00156920                cyg_libc_time_month_lengths
 .rodata        0x00156938       0x2e /cygdrive/C/ZOTDWP2020_SDK_0.01/ecos/ecos_install/lib/libtarget.a(hal_arm_arch_hal_misc.o)
 *fill*         0x00156966        0x2
 .rodata        0x00156968        0xa /cygdrive/C/ZOTDWP2020_SDK_0.01/ecos/ecos_install/lib/libtarget.a(language_c_libc_stdin.o)
 .rodata        0x00156972      0x100 /tools/H-i686-pc-cygwin/lib/gcc-lib/arm-elf/2.95.2/libgcc.a(_udivdi3.o)
 .rodata        0x00156a72      0x100 /tools/H-i686-pc-cygwin/lib/gcc-lib/arm-elf/2.95.2/libgcc.a(_umoddi3.o)

.rodata1        0x00156b74        0x0
                0x00156b74                .=.
 *(.rodata1)

.fixup          0x00156b74        0x0
                0x00156b74                .=.
 *(.fixup)

.gcc_except_table
                0x00156b74        0x0
                0x00156b74                .=.
 *(.gcc_except_table)

.data           0x00156b74    0x2b790
                0x00156b74                __ram_data_start=L(.)
 *(.data*)
 .data          0x00156b74      0x184 /cygdrive/C/ZOTDWP2020_SDK_0.01/ecos/ecos_install/lib/vectors.o
                0x00156b78                hal_interrupt_handlers
                0x00156bf8                hal_interrupt_data
                0x00156c78                hal_interrupt_objects
 .data.STAR_MAC_Plugout
                0x00156cf8        0x4 ./lib/mac.a(star_nic.o)
                0x00156cf8                STAR_MAC_Plugout
 .data.install_isr_account
                0x00156cfc        0x4 ./lib/mac.a(star_nic.o)
 .data.my_vlan_id
                0x00156d00       0x20 ./lib/mac.a(star_nic.o)
 .data.usb_driver_list
                0x00156d20        0x8 ./lib/usb_host.a(usb.o)
                0x00156d20                usb_driver_list
 .data.usb_bus_list
                0x00156d28        0x8 ./lib/usb_host.a(usb.o)
                0x00156d28                usb_bus_list
 .data.hub_event_list
                0x00156d30        0x8 ./lib/usb_host.a(hub.o)
 .data.hub_list
                0x00156d38        0x8 ./lib/usb_host.a(hub.o)
 .data.usb_devices_per_port
                0x00156d40       0x20 ./lib/usb_host.a(hub.o)
                0x00156d40                usb_devices_per_port
 .data.OHCI_LINK
                0x00156d60       0x20 ./lib/usb_host.a(hub.o)
                0x00156d60                OHCI_LINK
 .data.EHCI_LINK
                0x00156d80       0x20 ./lib/usb_host.a(hub.o)
                0x00156d80                EHCI_LINK
 .data.hub_id_table
                0x00156da0       0x28 ./lib/usb_host.a(hub.o)
 .data.hub_driver
                0x00156dc8       0x30 ./lib/usb_host.a(hub.o)
 .data.IS_HP_GDI_PRINTER_HP_1020
                0x00156df8        0x4 ./lib/usb_host.a(printer.o)
                0x00156df8                IS_HP_GDI_PRINTER_HP_1020
 .data.IS_SHARP_AR_M207
                0x00156dfc        0x4 ./lib/usb_host.a(printer.o)
                0x00156dfc                IS_SHARP_AR_M207
 .data.IS_SET_AR_M207_CMD
                0x00156e00        0x4 ./lib/usb_host.a(printer.o)
                0x00156e00                IS_SET_AR_M207_CMD
 .data.quirk_printers
                0x00156e04       0x70 ./lib/usb_host.a(printer.o)
 .data.proto_bias
                0x00156e74        0x4 ./lib/usb_host.a(printer.o)
 .data.AR_M207_CLEAR_DATA_1
                0x00156e78        0x6 ./lib/usb_host.a(printer.o)
                0x00156e78                AR_M207_CLEAR_DATA_1
 .data.AR_M207_CLEAR_DATA_2
                0x00156e7e        0x6 ./lib/usb_host.a(printer.o)
                0x00156e7e                AR_M207_CLEAR_DATA_2
 .data.AR_M207_GET_STATUS
                0x00156e84        0x6 ./lib/usb_host.a(printer.o)
                0x00156e84                AR_M207_GET_STATUS
 .data.AR_M207_STATUS_OK
                0x00156e8a       0x10 ./lib/usb_host.a(printer.o)
                0x00156e8a                AR_M207_STATUS_OK
 *fill*         0x00156e9a        0x2
 .data.usblp_ids
                0x00156e9c       0x8c ./lib/usb_host.a(printer.o)
 .data.usblp_driver
                0x00156f28       0x30 ./lib/usb_host.a(printer.o)
 .data.ehci_tasklet_hcd
                0x00156f58        0x4 ./lib/usb_host.a(ehcihcd.o)
                0x00156f58                ehci_tasklet_hcd
 .data.log2_irq_thresh
                0x00156f5c        0x4 ./lib/usb_host.a(ehcihcd.o)
 .data.hcd_list
                0x00156f60        0x8 ./lib/usb_host.a(u2hcd.o)
 .data.hcd_operations
                0x00156f68       0x14 ./lib/usb_host.a(u2hcd.o)
 .data.cc_to_error
                0x00156f7c       0x40 ./lib/usb_host.a(ohci.o)
 .data.ohci_hcd_list
                0x00156fbc        0x8 ./lib/usb_host.a(ohci.o)
 .data.sohci_device_operations
                0x00156fc4       0x14 ./lib/usb_host.a(ohci.o)
                0x00156fc4                sohci_device_operations
 .data.root_hub_dev_des
                0x00156fd8       0x12 ./lib/usb_host.a(ohci.o)
 .data.root_hub_config_des
                0x00156fea       0x19 ./lib/usb_host.a(ohci.o)
 *fill*         0x00157003        0x1
 .data.usbnet_list
                0x00157004        0x8 ./lib/usb_host.a(usbnet.o)
 .data.USBNET   0x0015700c        0x4 ./lib/usb_host.a(usbnet.o)
                0x0015700c                USBNET
 .data.msg_level
                0x00157010        0x4 ./lib/usb_host.a(usbnet.o)
 .data.USB_RECV_QUEUE
                0x00157014        0x4 ./lib/usb_host.a(usbnet.o)
                0x00157014                USB_RECV_QUEUE
 .data.HP1020_BIN
                0x00157018    0x1f5af ./lib/usb_host.a(hp1020.o)
                0x00157018                HP1020_BIN
 *fill*         0x001765c7        0x1
 .data.disconnect_wireless
                0x001765c8        0x4 ./lib/psglobal.a(psmain.o)
                0x001765c8                disconnect_wireless
 .data.ROOT_flag
                0x001765cc        0x4 ./lib/psglobal.a(psmain.o)
                0x001765cc                ROOT_flag
 .data.PSUpgradeMode
                0x001765d0        0x1 ./lib/psglobal.a(eeprom.o)
                0x001765d0                PSUpgradeMode
 .data.DefaultNodeID
                0x001765d1        0x6 ./lib/psglobal.a(eeprom.o)
                0x001765d1                DefaultNodeID
 .data.Hostname
                0x001765d7       0x13 ./lib/psglobal.a(eeprom.o)
                0x001765d7                Hostname
 *fill*         0x001765ea        0x2
 .data.RANDOMID_32K_ADDRESS
                0x001765ec        0x4 ./lib/psglobal.a(eeprom.o)
                0x001765ec                RANDOMID_32K_ADDRESS
 .data.RANDOMID_START_ADDRESS
                0x001765f0        0x4 ./lib/psglobal.a(eeprom.o)
                0x001765f0                RANDOMID_START_ADDRESS
 .data.code1_major_ver
                0x001765f4        0x1 ./lib/psglobal.a(eeprom.o)
                0x001765f4                code1_major_ver
 .data.code1_minor_ver
                0x001765f5        0x1 ./lib/psglobal.a(eeprom.o)
                0x001765f5                code1_minor_ver
 .data.code1_build_low_ver
                0x001765f6        0x1 ./lib/psglobal.a(eeprom.o)
                0x001765f6                code1_build_low_ver
 .data.code1_build_hi_ver
                0x001765f7        0x1 ./lib/psglobal.a(eeprom.o)
                0x001765f7                code1_build_hi_ver
 .data.code1_ps_model
                0x001765f8        0x1 ./lib/psglobal.a(eeprom.o)
                0x001765f8                code1_ps_model
 .data.code1_firmware_string
                0x001765f9       0x3c ./lib/psglobal.a(eeprom.o)
                0x001765f9                code1_firmware_string
 .data.code2_major_ver
                0x00176635        0x1 ./lib/psglobal.a(eeprom.o)
                0x00176635                code2_major_ver
 .data.code2_minor_ver
                0x00176636        0x1 ./lib/psglobal.a(eeprom.o)
                0x00176636                code2_minor_ver
 .data.code2_ps_model
                0x00176637        0x1 ./lib/psglobal.a(eeprom.o)
                0x00176637                code2_ps_model
 .data.code2_build_low_ver
                0x00176638        0x1 ./lib/psglobal.a(eeprom.o)
                0x00176638                code2_build_low_ver
 .data.code2_build_hi_ver
                0x00176639        0x1 ./lib/psglobal.a(eeprom.o)
                0x00176639                code2_build_hi_ver
 .data.code2_release_ver
                0x0017663a        0x1 ./lib/psglobal.a(eeprom.o)
                0x0017663a                code2_release_ver
 .data.code2_firmware_string
                0x0017663b       0x3c ./lib/psglobal.a(eeprom.o)
                0x0017663b                code2_firmware_string
 .data.Loader_firmware_string
                0x00176677       0x3c ./lib/psglobal.a(eeprom.o)
                0x00176677                Loader_firmware_string
 .data.StatusLightToggle
                0x001766b3        0x1 ./lib/psglobal.a(led.o)
                0x001766b3                StatusLightToggle
 .data.USB11LightToggle
                0x001766b4        0x1 ./lib/psglobal.a(led.o)
                0x001766b4                USB11LightToggle
 .data.USB20LightToggle
                0x001766b5        0x1 ./lib/psglobal.a(led.o)
                0x001766b5                USB20LightToggle
 .data.USBTestLightToggle
                0x001766b6        0x1 ./lib/psglobal.a(led.o)
                0x001766b6                USBTestLightToggle
 .data.LANLightToggle
                0x001766b7        0x1 ./lib/psglobal.a(led.o)
                0x001766b7                LANLightToggle
 .data.Lanrecvcnt
                0x001766b8        0x4 ./lib/psglobal.a(pkdriver.o)
                0x001766b8                Lanrecvcnt
 .data.OtherPcktrecvcnt
                0x001766bc        0x4 ./lib/psglobal.a(pkdriver.o)
                0x001766bc                OtherPcktrecvcnt
 .data.WLan_queuecount
                0x001766c0        0x4 ./lib/psglobal.a(pkdriver.o)
                0x001766c0                WLan_queuecount
 .data.WLAN_READ_QUEUE
                0x001766c4        0x4 ./lib/psglobal.a(pkdriver.o)
                0x001766c4                WLAN_READ_QUEUE
 .data.ttb_base
                0x001766c8        0x4 ./lib/psglobal.a(io.o)
                0x001766c8                ttb_base
 .data.mvWDomain
                0x001766cc        0x1 ./lib/http_zot.a(httpd.o)
                0x001766cc                mvWDomain
 .data.WebLangVersion
                0x001766cd        0x3 ./lib/http_zot.a(httpd.o)
                0x001766cd                WebLangVersion
 .data.Usedsock
                0x001766d0      0x120 ./lib/http_zot.a(httpd.o)
                0x001766d0                Usedsock
 .data.WlanNeedServey
                0x001767f0        0x1 ./lib/http_zot.a(httpd.o)
                0x001767f0                WlanNeedServey
 *fill*         0x001767f1        0x3
 .data.errorstr
                0x001767f4        0xc ./lib/http_zot.a(httpd.o)
                0x001767f4                errorstr
 .data.HttpUsers
                0x00176800        0x2 ./lib/http_zot.a(httpd.o)
                0x00176800                HttpUsers
 *fill*         0x00176802        0x2
 .data.Protocol_Name
                0x00176804       0x20 ./lib/http_zot.a(httpd.o)
                0x00176804                Protocol_Name
 .data.CurMediaMode
                0x00176824        0x2 ./lib/http_zot.a(httpd.o)
                0x00176824                CurMediaMode
 *fill*         0x00176826        0x2
 .data.wHdrs    0x00176828       0x44 ./lib/http_zot.a(http_constant.o)
                0x00176828                wHdrs
 .data.HttpResp
                0x0017686c       0x20 ./lib/http_zot.a(http_constant.o)
                0x0017686c                HttpResp
 .data.HttpMsg  0x0017688c       0x18 ./lib/http_zot.a(http_constant.o)
                0x0017688c                HttpMsg
 .data.HttpErrMsg
                0x001768a4       0x10 ./lib/http_zot.a(http_constant.o)
                0x001768a4                HttpErrMsg
 .data.EchoName
                0x001768b4      0x33c ./lib/http_zot.a(http_constant.o)
                0x001768b4                EchoName
 .data.MediaMode
                0x00176bf0       0x14 ./lib/http_zot.a(http_constant.o)
                0x00176bf0                MediaMode
 .data.Weeks    0x00176c04       0x1c ./lib/http_zot.a(http_constant.o)
                0x00176c04                Weeks
 .data.Months   0x00176c20       0x30 ./lib/http_zot.a(http_constant.o)
                0x00176c20                Months
 .data.NTHoldTimerOut
                0x00176c50        0x4 ./lib/ntps.a(ntps.o)
                0x00176c50                NTHoldTimerOut
 .data.CurPortNumber
                0x00176c54        0x4 ./lib/ntps.a(ntps.o)
                0x00176c54                CurPortNumber
 .data.t_tran_byte_udp
                0x00176c58        0x2 ./lib/ntps.a(ntudp.o)
                0x00176c58                t_tran_byte_udp
 .data.Previous_BNo_UDP
                0x00176c5a        0x1 ./lib/ntps.a(ntudp.o)
                0x00176c5a                Previous_BNo_UDP
 *fill*         0x00176c5b        0x1
 .data.recbuffer_udp
                0x00176c5c        0x4 ./lib/ntps.a(ntudp.o)
                0x00176c5c                recbuffer_udp
 .data.ANYESS   0x00176c60        0x8 ./lib/ntps.a(ntutil.o)
                0x00176c60                ANYESS
 .data.recbuffer_ipx
                0x00176c68        0x4 ./lib/ntps.a(ntipxbeui.o)
                0x00176c68                recbuffer_ipx
 .data.t_tran_byte_ipx
                0x00176c6c        0x2 ./lib/ntps.a(ntipxbeui.o)
                0x00176c6c                t_tran_byte_ipx
 .data.Previous_BNo_IPX
                0x00176c6e        0x1 ./lib/ntps.a(ntipxbeui.o)
                0x00176c6e                Previous_BNo_IPX
 .data.Previous_BNo
                0x00176c6f        0x1 ./lib/ntps.a(ntipxbeui.o)
                0x00176c6f                Previous_BNo
 .data.ruery_ecb
                0x00176c70        0x4 ./lib/ntps.a(ntipxbeui.o)
                0x00176c70                ruery_ecb
 .data.Printing_StartNum
                0x00176c74        0x4 ./lib/spooler.a(prnport.o)
                0x00176c74                Printing_StartNum
 .data.PortType
                0x00176c78        0x1 ./lib/spooler.a(prnport.o)
                0x00176c78                PortType
 .data.adjPortType
                0x00176c79        0x1 ./lib/spooler.a(prnport.o)
                0x00176c79                adjPortType
 *fill*         0x00176c7a        0x2
 .data.Printing_MarkNum
                0x00176c7c        0x4 ./lib/spooler.a(prnport.o)
                0x00176c7c                Printing_MarkNum
 .data.StateSpooler_Interval
                0x00176c80        0x4 ./lib/spooler.a(prnport.o)
                0x00176c80                StateSpooler_Interval
 .data.PNW_Statu
                0x00176c84        0x4 ./lib/spooler.a(prnport.o)
                0x00176c84                PNW_Statu
 .data.UsedPortNumber
                0x00176c88        0x4 ./lib/spooler.a(prnport.o)
                0x00176c88                UsedPortNumber
 .data.PrnUsedMessage
                0x00176c8c       0x30 ./lib/spooler.a(prnqueue.o)
                0x00176c8c                PrnUsedMessage
 .data.OpenQueueBuffer
                0x00176cbc       0x1e ./lib/novell.a(nps3.o)
                0x00176cbc                OpenQueueBuffer
 .data.BrocastNetwork
                0x00176cda        0x4 ./lib/novell.a(nps3.o)
                0x00176cda                BrocastNetwork
 .data.BrocastNode
                0x00176cde        0x6 ./lib/novell.a(nps3.o)
                0x00176cde                BrocastNode
 .data.PrimaryConnectFinish
                0x00176ce4        0x4 ./lib/novell.a(nps3.o)
                0x00176ce4                PrimaryConnectFinish
 .data.TestPageStrings
                0x00176ce8       0x14 ./lib/novell.a(nps3.o)
 .data.encrypttable
                0x00176cfc      0x100 ./lib/nds.a(nwcrypt.o)
                0x00176cfc                encrypttable
 .data.encryptkeys
                0x00176dfc       0x20 ./lib/nds.a(nwcrypt.o)
                0x00176dfc                encryptkeys
 .data.NetWareReEntry
                0x00176e1c        0x1 ./lib/nds.a(ndsqueue.o)
                0x00176e1c                NetWareReEntry
 .data.NDSConnectFlag
                0x00176e1d        0x1 ./lib/nds.a(ndsqueue.o)
                0x00176e1d                NDSConnectFlag
 .data.buf2str1
                0x00176e1e        0x8 ./lib/nds.a(ndslogin.o)
                0x00176e1e                buf2str1
 .data.buf2str2
                0x00176e26       0x10 ./lib/nds.a(ndslogin.o)
                0x00176e26                buf2str2
 .data.buf2str3
                0x00176e36        0x8 ./lib/nds.a(ndslogin.o)
                0x00176e36                buf2str3
 .data.keyprefix
                0x00176e3e        0x8 ./lib/nds.a(ndslogin.o)
                0x00176e3e                keyprefix
 .data.bufstr   0x00176e46       0x10 ./lib/nds.a(ndslogin.o)
                0x00176e46                bufstr
 *fill*         0x00176e56        0x2
 .data.PrivateKey
                0x00176e58        0x4 ./lib/nds.a(ndslogin.o)
 .data.global_precision
                0x00176e5c        0x2 ./lib/nds.a(mpilib.o)
                0x00176e5c                global_precision
 .data.nwcryptdata
                0x00176e5e      0x100 ./lib/nds.a(ndscrypt.o)
 .data.nwhashdata
                0x00176f5e      0x100 ./lib/nds.a(ndscrypt.o)
 .data.UnixHold
                0x0017705e        0x1 ./lib/lpd.a(lpd.o)
                0x0017705e                UnixHold
 *fill*         0x0017705f        0x1
 .data.Slpd     0x00177060        0x4 ./lib/lpd.a(lpd.o)
 .data.ServiceProcIsBusy
                0x00177064        0x4 ./lib/lpd.a(lpd.o)
 .data.LPRTaskInUse
                0x00177068       0x18 ./lib/lpd.a(lpd.o)
                0x00177068                LPRTaskInUse
 .data.HadLogged
                0x00177080        0x1 ./lib/lpd.a(lpd.o)
                0x00177080                HadLogged
 *fill*         0x00177081        0x3
 .data.buffercount
                0x00177084        0x4 ./lib/lpd.a(lpd.o)
                0x00177084                buffercount
 .data.tbuffer  0x00177088       0x20 ./lib/lpd.a(lpd.o)
                0x00177088                tbuffer
 .data.AttribTAG
                0x001770a8       0x34 ./lib/ippd.a(ippd_constant.o)
                0x001770a8                AttribTAG
 .data.JobTempAttribTAG
                0x001770dc       0x2c ./lib/ippd.a(ippd_constant.o)
                0x001770dc                JobTempAttribTAG
 .data.PrinterDescriptionTAG
                0x00177108       0x54 ./lib/ippd.a(ippd_constant.o)
                0x00177108                PrinterDescriptionTAG
 .data.telnetlink
                0x0017715c        0x4 ./lib/telnet.a(telserv.o)
 .data.TELNET_MAX_USER
                0x00177160        0x4 ./lib/telnet.a(telserv.o)
                0x00177160                TELNET_MAX_USER
 .data.TELNETDUsers
                0x00177164        0x4 ./lib/telnet.a(telserv.o)
                0x00177164                TELNETDUsers
 .data.QuitMenu
                0x00177168        0x4 ./lib/telnet.a(telutil.o)
                0x00177168                QuitMenu
 .data.viewitems1
                0x0017716c       0xd8 ./lib/telnet.a(menu.o)
                0x0017716c                viewitems1
 .data.viewmenu1
                0x00177244        0x8 ./lib/telnet.a(menu.o)
                0x00177244                viewmenu1
 .data.viewitems2
                0x0017724c       0x78 ./lib/telnet.a(menu.o)
                0x0017724c                viewitems2
 .data.viewmenu2
                0x001772c4        0x8 ./lib/telnet.a(menu.o)
                0x001772c4                viewmenu2
 .data.viewitems3
                0x001772cc      0x120 ./lib/telnet.a(menu.o)
                0x001772cc                viewitems3
 .data.viewmenu3
                0x001773ec        0x8 ./lib/telnet.a(menu.o)
                0x001773ec                viewmenu3
 .data.viewitems4
                0x001773f4       0xa8 ./lib/telnet.a(menu.o)
                0x001773f4                viewitems4
 .data.viewmenu4
                0x0017749c        0x8 ./lib/telnet.a(menu.o)
                0x0017749c                viewmenu4
 .data.viewitems5
                0x001774a4       0xf0 ./lib/telnet.a(menu.o)
                0x001774a4                viewitems5
 .data.viewmenu5
                0x00177594        0x8 ./lib/telnet.a(menu.o)
                0x00177594                viewmenu5
 .data.viewitems6
                0x0017759c       0x78 ./lib/telnet.a(menu.o)
                0x0017759c                viewitems6
 .data.viewmenu6
                0x00177614        0x8 ./lib/telnet.a(menu.o)
                0x00177614                viewmenu6
 .data.viewitems
                0x0017761c       0xd8 ./lib/telnet.a(menu.o)
                0x0017761c                viewitems
 .data.viewmenu
                0x001776f4        0x8 ./lib/telnet.a(menu.o)
                0x001776f4                viewmenu
 .data.setitems1
                0x001776fc       0xa8 ./lib/telnet.a(menu.o)
                0x001776fc                setitems1
 .data.setmenu1
                0x001777a4        0x8 ./lib/telnet.a(menu.o)
                0x001777a4                setmenu1
 .data.setitems3
                0x001777ac      0x108 ./lib/telnet.a(menu.o)
                0x001777ac                setitems3
 .data.setmenu3
                0x001778b4        0x8 ./lib/telnet.a(menu.o)
                0x001778b4                setmenu3
 .data.setitems4_1
                0x001778bc       0x90 ./lib/telnet.a(menu.o)
                0x001778bc                setitems4_1
 .data.setmenu4_1
                0x0017794c        0x8 ./lib/telnet.a(menu.o)
                0x0017794c                setmenu4_1
 .data.setitems4
                0x00177954       0x78 ./lib/telnet.a(menu.o)
                0x00177954                setitems4
 .data.setmenu4
                0x001779cc        0x8 ./lib/telnet.a(menu.o)
                0x001779cc                setmenu4
 .data.setitems5_1
                0x001779d4       0x78 ./lib/telnet.a(menu.o)
                0x001779d4                setitems5_1
 .data.setmenu5_1
                0x00177a4c        0x8 ./lib/telnet.a(menu.o)
                0x00177a4c                setmenu5_1
 .data.setitems5_2
                0x00177a54       0xa8 ./lib/telnet.a(menu.o)
                0x00177a54                setitems5_2
 .data.setmenu5_2
                0x00177afc        0x8 ./lib/telnet.a(menu.o)
                0x00177afc                setmenu5_2
 .data.setitems5
                0x00177b04       0x78 ./lib/telnet.a(menu.o)
                0x00177b04                setitems5
 .data.setmenu5
                0x00177b7c        0x8 ./lib/telnet.a(menu.o)
                0x00177b7c                setmenu5
 .data.setitems6
                0x00177b84       0xa8 ./lib/telnet.a(menu.o)
                0x00177b84                setitems6
 .data.setmenu6
                0x00177c2c        0x8 ./lib/telnet.a(menu.o)
                0x00177c2c                setmenu6
 .data.setitems
                0x00177c34       0xd8 ./lib/telnet.a(menu.o)
                0x00177c34                setitems
 .data.setmenu  0x00177d0c        0x8 ./lib/telnet.a(menu.o)
                0x00177d0c                setmenu
 .data.mainitems
                0x00177d14       0xa8 ./lib/telnet.a(menu.o)
                0x00177d14                mainitems
 .data.CRLF     0x00177dbc        0x3 ./lib/telnet.a(menu.o)
                0x00177dbc                CRLF
 .data.CTRLC    0x00177dbf        0x3 ./lib/telnet.a(menu.o)
                0x00177dbf                CTRLC
 .data.CTRLD    0x00177dc2        0x3 ./lib/telnet.a(menu.o)
                0x00177dc2                CTRLD
 *fill*         0x00177dc5        0x3
 .data.Tftpdprintername
                0x00177dc8        0xd ./lib/tftp_zot.a(tftpd.o)
 *fill*         0x00177dd5        0x3
 .data.EnDisable
                0x00177dd8        0x8 ./lib/tftp_zot.a(tftpd.o)
                0x00177dd8                EnDisable
 .data.DHCPMsg  0x00177de0        0x8 ./lib/tftp_zot.a(tftpd.o)
                0x00177de0                DHCPMsg
 .data.TftpdRequestCmd
                0x00177de8       0x90 ./lib/tftp_zot.a(tftpd.o)
                0x00177de8                TftpdRequestCmd
 .data.Tftpdlinename
                0x00177e78       0x24 ./lib/tftp_zot.a(tftpd.o)
                0x00177e78                Tftpdlinename
 .data.Tftp_config1
                0x00177e9c        0x4 ./lib/tftp_zot.a(tftpd.o)
 .data.Tftp_config2
                0x00177ea0        0x4 ./lib/tftp_zot.a(tftpd.o)
 .data.ip_conflict_cnt
                0x00177ea4        0x4 ./lib/tcpip.a(etharp.o)
 .data.start_timer_flag
                0x00177ea8        0x4 ./lib/tcpip.a(etharp.o)
                0x00177ea8                start_timer_flag
 .data.linklocal_start_time
                0x00177eac        0x4 ./lib/tcpip.a(etharp.o)
                0x00177eac                linklocal_start_time
 .data.linklocal_stop_time
                0x00177eb0        0x4 ./lib/tcpip.a(etharp.o)
                0x00177eb0                linklocal_stop_time
 .data.tcpip_init_done
                0x00177eb4        0x4 ./lib/tcpip.a(tcpip.o)
 .data.tcpip_tcp_timer_active
                0x00177eb8        0x4 ./lib/tcpip.a(tcpip.o)
 .data.WLanface
                0x00177ebc        0x4 ./lib/tcpip.a(tcpip.o)
                0x00177ebc                WLanface
 .data.ULanface
                0x00177ec0        0x4 ./lib/tcpip.a(tcpip.o)
                0x00177ec0                ULanface
 .data.Need_Rendezous_Reload
                0x00177ec4        0x4 ./lib/tcpip.a(tcpip.o)
                0x00177ec4                Need_Rendezous_Reload
 .data.select_cb_list
                0x00177ec8        0x4 ./lib/tcpip.a(sockets.o)
 .data.socksem  0x00177ecc        0x4 ./lib/tcpip.a(sockets.o)
 .data.selectsem
                0x00177ed0        0x4 ./lib/tcpip.a(sockets.o)
 .data.err_to_errno_table
                0x00177ed4       0x2c ./lib/tcpip.a(sockets.o)
 .data.decode   0x00177f00       0x2c ./lib/tcpip.a(api_msg.o)
 .data.pbuf_pool
                0x00177f2c        0x4 ./lib/tcpip.a(pbuf.o)
 .data.raw_pcbs
                0x00177f30        0x4 ./lib/tcpip.a(raw.o)
 .data.udp_pcbs
                0x00177f34        0x4 ./lib/tcpip.a(udp.o)
                0x00177f34                udp_pcbs
 .data.pcb_cache
                0x00177f38        0x4 ./lib/tcpip.a(udp.o)
 .data.port     0x00177f3c        0x2 ./lib/tcpip.a(tcp.o)
 *fill*         0x00177f3e        0x2
 .data.iss      0x00177f40        0x4 ./lib/tcpip.a(tcp.o)
 .data.xid      0x00177f44        0x4 ./lib/tcpip.a(dhcp.o)
 .data.DHCP_Rebew_or_Rebind_Handle
                0x00177f48        0x4 ./lib/tcpip.a(dhcp.o)
                0x00177f48                DHCP_Rebew_or_Rebind_Handle
 .data.netif_list
                0x00177f4c        0x4 ./lib/tcpip.a(netif.o)
                0x00177f4c                netif_list
 .data.netif_default
                0x00177f50        0x4 ./lib/tcpip.a(netif.o)
                0x00177f50                netif_default
 .data.netifnum
                0x00177f54        0x4 ./lib/tcpip.a(netif.o)
 .data.Threads_List
                0x00177f58        0x4 ./lib/tcpip.a(sys_arch.o)
 .data.at_org_code
                0x00177f5c        0x3 ./lib/atalk.a(ddp.o)
 .data.CurATport
                0x00177f5f        0x1 ./lib/atalk.a(ddp.o)
 .data.aarptab  0x00177f60       0x28 ./lib/atalk.a(aarp.o)
                0x00177f60                aarptab
 .data.atmulticastaddr
                0x00177f88        0x6 ./lib/atalk.a(aarp.o)
                0x00177f88                atmulticastaddr
 *fill*         0x00177f8e        0x2
 .data.ATD_INIT_OK
                0x00177f90        0x4 ./lib/atalk.a(atalkd.o)
                0x00177f90                ATD_INIT_OK
 .data.ZIP_NEED_WAIT
                0x00177f94        0x1 ./lib/atalk.a(atalkd.o)
                0x00177f94                ZIP_NEED_WAIT
 *fill*         0x00177f95        0x3
 .data.pap_socksum
                0x00177f98       0x30 ./lib/atalk.a(papd.o)
                0x00177f98                pap_socksum
 .data.ApplePortNumber
                0x00177fc8        0x4 ./lib/atalk.a(papd.o)
                0x00177fc8                ApplePortNumber
 .data.PrStatus
                0x00177fcc       0x10 ./lib/atalk.a(papd.o)
                0x00177fcc                PrStatus
 .data.AT_SOCKET2_INIT
                0x00177fdc        0x4 ./lib/atalk.a(socket2.o)
                0x00177fdc                AT_SOCKET2_INIT
 .data.Nsock    0x00177fe0        0x4 ./lib/atalk.a(socket2.o)
                0x00177fe0                Nsock
 .data.Socklink
                0x00177fe4       0x88 ./lib/atalk.a(socket2.o)
                0x00177fe4                Socklink
 .data.free_list
                0x0017806c        0x4 ./lib/atalk.a(atp_bufs.o)
 .data.atpNumBufs
                0x00178070        0x4 ./lib/atalk.a(atp_bufs.o)
                0x00178070                atpNumBufs
 .data.HadLoggedA
                0x00178074        0x1 ./lib/atalk.a(magics.o)
                0x00178074                HadLoggedA
 *fill*         0x00178075        0x3
 .data.Query    0x00178078        0x4 ./lib/atalk.a(magics.o)
                0x00178078                Query
 .data.magics   0x0017807c       0x40 ./lib/atalk.a(magics.o)
                0x0017807c                magics
 .data.queries  0x001780bc       0x30 ./lib/atalk.a(queries.o)
                0x001780bc                queries
 .data.TBCPEndString
                0x001780ec        0xa ./lib/atalk.a(paprint.o)
                0x001780ec                TBCPEndString
 *fill*         0x001780f6        0x2
 .data.PaperOutMessage
                0x001780f8       0x11 ./lib/snmp.a(snmpd.o)
 *fill*         0x00178109        0x3
 .data.OffLineMessage
                0x0017810c       0x10 ./lib/snmp.a(snmpd.o)
 .data.JetPort  0x0017811c        0x1 ./lib/snmp.a(snmpaget.o)
                0x0017811c                JetPort
 *fill*         0x0017811d        0x3
 .data.session  0x00178120       0x30 ./lib/snmp.a(snmpaget.o)
                0x00178120                session
 .data.Reqid    0x00178150        0x4 ./lib/snmp.a(snmp_api.o)
 .data.Snmp_Change_IP
                0x00178154        0x1 ./lib/snmp.a(snmp_api.o)
                0x00178154                Snmp_Change_IP
 .data.Snmp_WriteDataTo_EEPROM
                0x00178155        0x1 ./lib/snmp.a(snmp_api.o)
                0x00178155                Snmp_WriteDataTo_EEPROM
 .data.Snmp_Restart
                0x00178156        0x1 ./lib/snmp.a(snmp_api.o)
                0x00178156                Snmp_Restart
 *fill*         0x00178157        0x1
 .data.Ip_mib   0x00178158       0xa0 ./lib/snmp.a(snmpvars.o)
                0x00178158                Ip_mib
 .data.Icmp_mib
                0x001781f8       0xd8 ./lib/snmp.a(snmpvars.o)
                0x001781f8                Icmp_mib
 .data.Tcp_mib  0x001782d0       0x80 ./lib/snmp.a(snmpvars.o)
                0x001782d0                Tcp_mib
 .data.Udp_mib  0x00178350       0x28 ./lib/snmp.a(snmpvars.o)
                0x00178350                Udp_mib
 .data.InterfaceIfDescr
                0x00178378        0x9 ./lib/snmp.a(snmpvars.o)
 *fill*         0x00178381        0x3
 .data.JetModel
                0x00178384        0x3 ./lib/snmp.a(snmpvars.o)
                0x00178384                JetModel
 .data.Snmp_PJLStatus
                0x00178387        0x1 ./lib/snmp.a(snmpvars.o)
                0x00178387                Snmp_PJLStatus
 .data.UsingSoftwareReset
                0x00178388        0x1 ./lib/snmp.a(snmpvars.o)
                0x00178388                UsingSoftwareReset
 *fill*         0x00178389        0x3
 .data.Snmp_JobTimeOut
                0x0017838c        0x4 ./lib/snmp.a(snmpvars.o)
                0x0017838c                Snmp_JobTimeOut
 .data.Snmp_ScanTimeOut
                0x00178390        0x4 ./lib/snmp.a(snmpvars.o)
                0x00178390                Snmp_ScanTimeOut
 .data.Snmp_PortDesiredMode
                0x00178394        0x4 ./lib/snmp.a(snmpvars.o)
                0x00178394                Snmp_PortDesiredMode
 .data.Snmp_PortHandshanking
                0x00178398        0x4 ./lib/snmp.a(snmpvars.o)
                0x00178398                Snmp_PortHandshanking
 .data.Snmp_ProtocolSet
                0x0017839c        0x4 ./lib/snmp.a(snmpvars.o)
                0x0017839c                Snmp_ProtocolSet
 .data.Snmp_StatusPageLanguage
                0x001783a0        0x4 ./lib/snmp.a(snmpvars.o)
                0x001783a0                Snmp_StatusPageLanguage
 .data.Snmp_PrintStatusPage
                0x001783a4        0x4 ./lib/snmp.a(snmpvars.o)
                0x001783a4                Snmp_PrintStatusPage
 .data.Snmp_ErrorBehavior
                0x001783a8        0x4 ./lib/snmp.a(snmpvars.o)
                0x001783a8                Snmp_ErrorBehavior
 .data.Snmp_IdelTimeOut
                0x001783ac        0x4 ./lib/snmp.a(snmpvars.o)
                0x001783ac                Snmp_IdelTimeOut
 .data.SnmpVersionID
                0x001783b0       0x16 ./lib/snmp.a(snmpvars.o)
                0x001783b0                SnmpVersionID
 *fill*         0x001783c6        0x2
 .data.version_descr
                0x001783c8       0x45 ./lib/snmp.a(snmpvars.o)
                0x001783c8                version_descr
 *fill*         0x0017840d        0x3
 .data.system_variables
                0x00178410       0x70 ./lib/snmp.a(snmpvars.o)
                0x00178410                system_variables
 .data.interface_variables
                0x00178480      0x1cc ./lib/snmp.a(snmpvars.o)
                0x00178480                interface_variables
 .data.at_variables
                0x0017864c       0x30 ./lib/snmp.a(snmpvars.o)
                0x0017864c                at_variables
 .data.ip_variables
                0x0017867c      0x1e0 ./lib/snmp.a(snmpvars.o)
                0x0017867c                ip_variables
 .data.icmp_variables
                0x0017885c      0x1a0 ./lib/snmp.a(snmpvars.o)
                0x0017885c                icmp_variables
 .data.tcp_variables
                0x001789fc      0x2ac ./lib/snmp.a(snmpvars.o)
                0x001789fc                tcp_variables
 .data.udp_variables
                0x00178ca8       0xd8 ./lib/snmp.a(snmpvars.o)
                0x00178ca8                udp_variables
 .data.GeneralDeviceStatus_variables
                0x00178d80      0x750 ./lib/snmp.a(snmpvars.o)
                0x00178d80                GeneralDeviceStatus_variables
 .data.NpSys_variables
                0x001794d0      0x1d4 ./lib/snmp.a(snmpvars.o)
                0x001794d0                NpSys_variables
 .data.NpConns_variables
                0x001796a4      0x374 ./lib/snmp.a(snmpvars.o)
                0x001796a4                NpConns_variables
 .data.NpCfg_variables
                0x00179a18      0x30c ./lib/snmp.a(snmpvars.o)
                0x00179a18                NpCfg_variables
 .data.NpTcp_variables
                0x00179d24       0xd0 ./lib/snmp.a(snmpvars.o)
                0x00179d24                NpTcp_variables
 .data.NpCtl_variables
                0x00179df4      0x270 ./lib/snmp.a(snmpvars.o)
                0x00179df4                NpCtl_variables
 .data.NpNpi_variables
                0x0017a064      0x5e4 ./lib/snmp.a(snmpvars.o)
                0x0017a064                NpNpi_variables
 .data.NpIpx_variables
                0x0017a648      0x23c ./lib/snmp.a(snmpvars.o)
                0x0017a648                NpIpx_variables
 .data.NpCard11_variables
                0x0017a884       0x34 ./lib/snmp.a(snmpvars.o)
                0x0017a884                NpCard11_variables
 .data.NpCard12_variables
                0x0017a8b8       0x68 ./lib/snmp.a(snmpvars.o)
                0x0017a8b8                NpCard12_variables
 .data.NpCard13_variables
                0x0017a920       0x9c ./lib/snmp.a(snmpvars.o)
                0x0017a920                NpCard13_variables
 .data.NpCard17_variables
                0x0017a9bc       0x34 ./lib/snmp.a(snmpvars.o)
                0x0017a9bc                NpCard17_variables
 .data.base     0x0017a9f0      0x170 ./lib/snmp.a(snmpvars.o)
 .data.trap_send_session
                0x0017ab60       0x30 ./lib/snmp.a(snmptrap.o)
                0x0017ab60                trap_send_session
 .data.SnmpTrapTargetCommunity
                0x0017ab90        0x7 ./lib/snmp.a(snmptrap.o)
 *fill*         0x0017ab97        0x1
 .data.JOBCount
                0x0017ab98        0x4 ./lib/psutility.a(joblog.o)
                0x0017ab98                JOBCount
 .data.CurOFTotal
                0x0017ab9c        0x4 ./lib/psutility.a(joblog.o)
                0x0017ab9c                CurOFTotal
 .data.JobTotCount
                0x0017aba0        0x4 ./lib/psutility.a(joblog.o)
                0x0017aba0                JobTotCount
 .data.JOBLIST  0x0017aba4       0x50 ./lib/psutility.a(joblog.o)
                0x0017aba4                JOBLIST
 .data.job_log  0x0017abf4        0x4 ./lib/psutility.a(joblog.o)
                0x0017abf4                job_log
 .data.alertType
                0x0017abf8        0x1 ./lib/psutility.a(alert.o)
                0x0017abf8                alertType
 *fill*         0x0017abf9        0x3
 .data.Send_Mail_Interval
                0x0017abfc        0x4 ./lib/psutility.a(alert.o)
                0x0017abfc                Send_Mail_Interval
 .data.MailPort
                0x0017ac00        0x1 ./lib/psutility.a(alert.o)
                0x0017ac00                MailPort
 .data.Is_Constraint
                0x0017ac01        0x1 ./lib/psutility.a(alert.o)
                0x0017ac01                Is_Constraint
 *fill*         0x0017ac02        0x2
 .data.debug_queue_index
                0x0017ac04        0x4 ./lib/uart.a(serial.o)
                0x0017ac04                debug_queue_index
 .data.debug_queue_counter
                0x0017ac08        0x4 ./lib/uart.a(serial.o)
                0x0017ac08                debug_queue_counter
 .data.number_of_enqueue_string
                0x0017ac0c        0x4 ./lib/uart.a(serial.o)
                0x0017ac0c                number_of_enqueue_string
 .data.headptr  0x0017ac10        0x4 ./lib/uart.a(serial.o)
                0x0017ac10                headptr
 .data.tailptr  0x0017ac14        0x4 ./lib/uart.a(serial.o)
                0x0017ac14                tailptr
 .data.print_stack_base
                0x0017ac18      0x800 ./lib/uart.a(serial.o)
                0x0017ac18                print_stack_base
 .data.enqueue_string
                0x0017b418       0xc8 ./lib/uart.a(serial.o)
                0x0017b418                enqueue_string
 .data.sprintf_string
                0x0017b4e0       0x64 ./lib/uart.a(serial.o)
                0x0017b4e0                sprintf_string
 .data.address_index
                0x0017b544        0x4 ./lib/uart.a(serial.o)
                0x0017b544                address_index
 .data.info1    0x0017b548     0x2710 ./lib/uart.a(serial.o)
                0x0017b548                info1
 .data.zTimers  0x0017dc58        0x4 ./lib/rt3070.a(rt3070_dep.o)
                0x0017dc58                zTimers
 .data.SNAP_802_1H
                0x0017dc5c        0x6 ./lib/rt3070.a(cmm_data.o)
                0x0017dc5c                SNAP_802_1H
 .data.SNAP_BRIDGE_TUNNEL
                0x0017dc62        0x6 ./lib/rt3070.a(cmm_data.o)
                0x0017dc62                SNAP_BRIDGE_TUNNEL
 .data.EAPOL    0x0017dc68        0x2 ./lib/rt3070.a(cmm_data.o)
                0x0017dc68                EAPOL
 .data.TPID     0x0017dc6a        0x2 ./lib/rt3070.a(cmm_data.o)
                0x0017dc6a                TPID
 .data.rIPX     0x0017dc6c        0x2 ./lib/rt3070.a(cmm_data.o)
                0x0017dc6c                rIPX
 .data.APPLE_TALK
                0x0017dc6e        0x2 ./lib/rt3070.a(cmm_data.o)
                0x0017dc6e                APPLE_TALK
 .data.OfdmRateToRxwiMCS
                0x0017dc70        0xc ./lib/rt3070.a(cmm_data.o)
                0x0017dc70                OfdmRateToRxwiMCS
 .data.MapUserPriorityToAccessCategory
                0x0017dc7c        0x8 ./lib/rt3070.a(cmm_data.o)
                0x0017dc7c                MapUserPriorityToAccessCategory
 .data.A_BAND_REGION_0_CHANNEL_LIST
                0x0017dc84        0xd ./lib/rt3070.a(cmm_sync.o)
                0x0017dc84                A_BAND_REGION_0_CHANNEL_LIST
 .data.A_BAND_REGION_1_CHANNEL_LIST
                0x0017dc91       0x13 ./lib/rt3070.a(cmm_sync.o)
                0x0017dc91                A_BAND_REGION_1_CHANNEL_LIST
 .data.A_BAND_REGION_2_CHANNEL_LIST
                0x0017dca4        0x8 ./lib/rt3070.a(cmm_sync.o)
                0x0017dca4                A_BAND_REGION_2_CHANNEL_LIST
 .data.A_BAND_REGION_3_CHANNEL_LIST
                0x0017dcac        0x8 ./lib/rt3070.a(cmm_sync.o)
                0x0017dcac                A_BAND_REGION_3_CHANNEL_LIST
 .data.A_BAND_REGION_4_CHANNEL_LIST
                0x0017dcb4        0x5 ./lib/rt3070.a(cmm_sync.o)
                0x0017dcb4                A_BAND_REGION_4_CHANNEL_LIST
 .data.A_BAND_REGION_5_CHANNEL_LIST
                0x0017dcb9        0x4 ./lib/rt3070.a(cmm_sync.o)
                0x0017dcb9                A_BAND_REGION_5_CHANNEL_LIST
 .data.A_BAND_REGION_6_CHANNEL_LIST
                0x0017dcbd        0x4 ./lib/rt3070.a(cmm_sync.o)
                0x0017dcbd                A_BAND_REGION_6_CHANNEL_LIST
 .data.A_BAND_REGION_7_CHANNEL_LIST
                0x0017dcc1       0x1a ./lib/rt3070.a(cmm_sync.o)
                0x0017dcc1                A_BAND_REGION_7_CHANNEL_LIST
 .data.A_BAND_REGION_8_CHANNEL_LIST
                0x0017dcdb        0x4 ./lib/rt3070.a(cmm_sync.o)
                0x0017dcdb                A_BAND_REGION_8_CHANNEL_LIST
 .data.A_BAND_REGION_9_CHANNEL_LIST
                0x0017dcdf       0x15 ./lib/rt3070.a(cmm_sync.o)
                0x0017dcdf                A_BAND_REGION_9_CHANNEL_LIST
 .data.A_BAND_REGION_10_CHANNEL_LIST
                0x0017dcf4        0x9 ./lib/rt3070.a(cmm_sync.o)
                0x0017dcf4                A_BAND_REGION_10_CHANNEL_LIST
 .data.A_BAND_REGION_11_CHANNEL_LIST
                0x0017dcfd       0x12 ./lib/rt3070.a(cmm_sync.o)
                0x0017dcfd                A_BAND_REGION_11_CHANNEL_LIST
 .data.A_BAND_REGION_12_CHANNEL_LIST
                0x0017dd0f       0x13 ./lib/rt3070.a(cmm_sync.o)
                0x0017dd0f                A_BAND_REGION_12_CHANNEL_LIST
 .data.A_BAND_REGION_13_CHANNEL_LIST
                0x0017dd22       0x13 ./lib/rt3070.a(cmm_sync.o)
                0x0017dd22                A_BAND_REGION_13_CHANNEL_LIST
 .data.A_BAND_REGION_14_CHANNEL_LIST
                0x0017dd35       0x14 ./lib/rt3070.a(cmm_sync.o)
                0x0017dd35                A_BAND_REGION_14_CHANNEL_LIST
 .data.A_BAND_REGION_15_CHANNEL_LIST
                0x0017dd49        0x7 ./lib/rt3070.a(cmm_sync.o)
                0x0017dd49                A_BAND_REGION_15_CHANNEL_LIST
 .data.A_BAND_REGION_16_CHANNEL_LIST
                0x0017dd50        0x9 ./lib/rt3070.a(cmm_sync.o)
                0x0017dd50                A_BAND_REGION_16_CHANNEL_LIST
 .data.OUI_WPA_NONE_AKM
                0x0017dd59        0x4 ./lib/rt3070.a(cmm_wpa.o)
                0x0017dd59                OUI_WPA_NONE_AKM
 .data.OUI_WPA_VERSION
                0x0017dd5d        0x4 ./lib/rt3070.a(cmm_wpa.o)
                0x0017dd5d                OUI_WPA_VERSION
 .data.OUI_WPA_WEP40
                0x0017dd61        0x4 ./lib/rt3070.a(cmm_wpa.o)
                0x0017dd61                OUI_WPA_WEP40
 .data.OUI_WPA_TKIP
                0x0017dd65        0x4 ./lib/rt3070.a(cmm_wpa.o)
                0x0017dd65                OUI_WPA_TKIP
 .data.OUI_WPA_CCMP
                0x0017dd69        0x4 ./lib/rt3070.a(cmm_wpa.o)
                0x0017dd69                OUI_WPA_CCMP
 .data.OUI_WPA_WEP104
                0x0017dd6d        0x4 ./lib/rt3070.a(cmm_wpa.o)
                0x0017dd6d                OUI_WPA_WEP104
 .data.OUI_WPA_8021X_AKM
                0x0017dd71        0x4 ./lib/rt3070.a(cmm_wpa.o)
                0x0017dd71                OUI_WPA_8021X_AKM
 .data.OUI_WPA_PSK_AKM
                0x0017dd75        0x4 ./lib/rt3070.a(cmm_wpa.o)
                0x0017dd75                OUI_WPA_PSK_AKM
 .data.OUI_WPA2
                0x0017dd79        0x3 ./lib/rt3070.a(cmm_wpa.o)
                0x0017dd79                OUI_WPA2
 .data.OUI_WPA2_WEP40
                0x0017dd7c        0x4 ./lib/rt3070.a(cmm_wpa.o)
                0x0017dd7c                OUI_WPA2_WEP40
 .data.OUI_WPA2_TKIP
                0x0017dd80        0x4 ./lib/rt3070.a(cmm_wpa.o)
                0x0017dd80                OUI_WPA2_TKIP
 .data.OUI_WPA2_CCMP
                0x0017dd84        0x4 ./lib/rt3070.a(cmm_wpa.o)
                0x0017dd84                OUI_WPA2_CCMP
 .data.OUI_WPA2_8021X_AKM
                0x0017dd88        0x4 ./lib/rt3070.a(cmm_wpa.o)
                0x0017dd88                OUI_WPA2_8021X_AKM
 .data.OUI_WPA2_PSK_AKM
                0x0017dd8c        0x4 ./lib/rt3070.a(cmm_wpa.o)
                0x0017dd8c                OUI_WPA2_PSK_AKM
 .data.OUI_WPA2_WEP104
                0x0017dd90        0x4 ./lib/rt3070.a(cmm_wpa.o)
                0x0017dd90                OUI_WPA2_WEP104
 .data.Const_Zero
                0x0017dd94       0x10 ./lib/rt3070.a(crypt_aes.o)
 .data.Const_Rb
                0x0017dda4       0x10 ./lib/rt3070.a(crypt_aes.o)
 .data.Default_IV
                0x0017ddb4        0x8 ./lib/rt3070.a(crypt_aes.o)
 .data.CISCO_OUI
                0x0017ddbc        0x3 ./lib/rt3070.a(mlme.o)
                0x0017ddbc                CISCO_OUI
 .data.RALINK_OUI
                0x0017ddbf        0x3 ./lib/rt3070.a(mlme.o)
                0x0017ddbf                RALINK_OUI
 .data.WPA_OUI  0x0017ddc2        0x4 ./lib/rt3070.a(mlme.o)
                0x0017ddc2                WPA_OUI
 .data.RSN_OUI  0x0017ddc6        0x3 ./lib/rt3070.a(mlme.o)
                0x0017ddc6                RSN_OUI
 .data.WME_INFO_ELEM
                0x0017ddc9        0x6 ./lib/rt3070.a(mlme.o)
                0x0017ddc9                WME_INFO_ELEM
 .data.WME_PARM_ELEM
                0x0017ddcf        0x6 ./lib/rt3070.a(mlme.o)
                0x0017ddcf                WME_PARM_ELEM
 .data.WPS_OUI  0x0017ddd5        0x4 ./lib/rt3070.a(mlme.o)
                0x0017ddd5                WPS_OUI
 .data.PRE_N_HT_OUI
                0x0017ddd9        0x3 ./lib/rt3070.a(mlme.o)
                0x0017ddd9                PRE_N_HT_OUI
 .data.Anyssid  0x0017dddc       0x21 ./lib/rt3070.a(mlme.o)
                0x0017dddc                Anyssid
 .data.RateSwitchTable
                0x0017ddfd       0xa5 ./lib/rt3070.a(mlme.o)
                0x0017ddfd                RateSwitchTable
 .data.RateSwitchTable11B
                0x0017dea2       0x19 ./lib/rt3070.a(mlme.o)
                0x0017dea2                RateSwitchTable11B
 .data.RateSwitchTable11BG
                0x0017debb       0x37 ./lib/rt3070.a(mlme.o)
                0x0017debb                RateSwitchTable11BG
 .data.RateSwitchTable11G
                0x0017def2       0x2d ./lib/rt3070.a(mlme.o)
                0x0017def2                RateSwitchTable11G
 .data.RateSwitchTable11N1S
                0x0017df1f       0x41 ./lib/rt3070.a(mlme.o)
                0x0017df1f                RateSwitchTable11N1S
 .data.RateSwitchTable11N2S
                0x0017df60       0x4b ./lib/rt3070.a(mlme.o)
                0x0017df60                RateSwitchTable11N2S
 .data.RateSwitchTable11N3S
                0x0017dfab       0x4b ./lib/rt3070.a(mlme.o)
                0x0017dfab                RateSwitchTable11N3S
 .data.RateSwitchTable11N2SForABand
                0x0017dff6       0x3c ./lib/rt3070.a(mlme.o)
                0x0017dff6                RateSwitchTable11N2SForABand
 .data.RateSwitchTable11BGN1S
                0x0017e032       0x41 ./lib/rt3070.a(mlme.o)
                0x0017e032                RateSwitchTable11BGN1S
 .data.RateSwitchTable11BGN2S
                0x0017e073       0x4b ./lib/rt3070.a(mlme.o)
                0x0017e073                RateSwitchTable11BGN2S
 .data.RateSwitchTable11BGN3S
                0x0017e0be       0x37 ./lib/rt3070.a(mlme.o)
                0x0017e0be                RateSwitchTable11BGN3S
 .data.RateSwitchTable11BGN2SForABand
                0x0017e0f5       0x3c ./lib/rt3070.a(mlme.o)
                0x0017e0f5                RateSwitchTable11BGN2SForABand
 .data.BROADCAST_ADDR
                0x0017e131        0x6 ./lib/rt3070.a(mlme.o)
                0x0017e131                BROADCAST_ADDR
 .data.ZERO_MAC_ADDR
                0x0017e137        0x6 ./lib/rt3070.a(mlme.o)
                0x0017e137                ZERO_MAC_ADDR
 *fill*         0x0017e13d        0x1
 .data.RateIdTo500Kbps
                0x0017e13e       0x1c ./lib/rt3070.a(mlme.o)
                0x0017e13e                RateIdTo500Kbps
 .data.SsidIe   0x0017e15a        0x1 ./lib/rt3070.a(mlme.o)
                0x0017e15a                SsidIe
 .data.SupRateIe
                0x0017e15b        0x1 ./lib/rt3070.a(mlme.o)
                0x0017e15b                SupRateIe
 .data.ExtRateIe
                0x0017e15c        0x1 ./lib/rt3070.a(mlme.o)
                0x0017e15c                ExtRateIe
 .data.HtCapIe  0x0017e15d        0x1 ./lib/rt3070.a(mlme.o)
                0x0017e15d                HtCapIe
 .data.AddHtInfoIe
                0x0017e15e        0x1 ./lib/rt3070.a(mlme.o)
                0x0017e15e                AddHtInfoIe
 .data.NewExtChanIe
                0x0017e15f        0x1 ./lib/rt3070.a(mlme.o)
                0x0017e15f                NewExtChanIe
 .data.BssCoexistIe
                0x0017e160        0x1 ./lib/rt3070.a(mlme.o)
                0x0017e160                BssCoexistIe
 .data.ExtHtCapIe
                0x0017e161        0x1 ./lib/rt3070.a(mlme.o)
                0x0017e161                ExtHtCapIe
 .data.ExtCapIe
                0x0017e162        0x1 ./lib/rt3070.a(mlme.o)
                0x0017e162                ExtCapIe
 .data.DsIe     0x0017e163        0x1 ./lib/rt3070.a(mlme.o)
                0x0017e163                DsIe
 .data.WpaIe    0x0017e164        0x1 ./lib/rt3070.a(mlme.o)
                0x0017e164                WpaIe
 .data.Wpa2Ie   0x0017e165        0x1 ./lib/rt3070.a(mlme.o)
                0x0017e165                Wpa2Ie
 .data.IbssIe   0x0017e166        0x1 ./lib/rt3070.a(mlme.o)
                0x0017e166                IbssIe
 .data.SES_OUI  0x0017e167        0x3 ./lib/rt3070.a(mlme.o)
                0x0017e167                SES_OUI
 .data.ZeroSsid
                0x0017e16a       0x20 ./lib/rt3070.a(mlme.o)
                0x0017e16a                ZeroSsid
 .data.restore_BBP
                0x0017e18a       0xa8 ./lib/rt3070.a(rt_ate.o)
                0x0017e18a                restore_BBP
 .data.restore_BbpID
                0x0017e232       0x17 ./lib/rt3070.a(rt_ate.o)
                0x0017e232                restore_BbpID
 *fill*         0x0017e249        0x3
 .data.restoreRegNum
                0x0017e24c        0x4 ./lib/rt3070.a(rt_ate.o)
                0x0017e24c                restoreRegNum
 .data.TemplateFrame
                0x0017e250       0x18 ./lib/rt3070.a(rt_ate.o)
                0x0017e250                TemplateFrame
 .data.CCKRateTable
                0x0017e268        0x9 ./lib/rt3070.a(rt_ate.o)
 .data.OFDMRateTable
                0x0017e271        0x9 ./lib/rt3070.a(rt_ate.o)
 .data.HTMIXRateTable
                0x0017e27a       0x11 ./lib/rt3070.a(rt_ate.o)
 *fill*         0x0017e28b        0x1
 .data.pWirelessSysEventText
                0x0017e28c       0x68 ./lib/rt3070.a(rt_linux.o)
                0x0017e28c                pWirelessSysEventText
 .data.pWirelessWscEventText
                0x0017e2f4       0x80 ./lib/rt3070.a(rt_linux.o)
                0x0017e2f4                pWirelessWscEventText
 .data.ralinkrate
                0x0017e374      0x1b0 ./lib/rt3070.a(rt_linux.o)
                0x0017e374                ralinkrate
 .data.RT_RateSize
                0x0017e524        0x4 ./lib/rt3070.a(rt_linux.o)
                0x0017e524                RT_RateSize
 .data.RxURB    0x0017e528        0x4 ./lib/rt3070.a(rt_usb.o)
                0x0017e528                RxURB
 .data.BBPRegTable
                0x0017e52c       0x3c ./lib/rt3070.a(rtmp_init.o)
                0x0017e52c                BBPRegTable
 .data.MACRegTable
                0x0017e568       0xf0 ./lib/rt3070.a(rtmp_init.o)
                0x0017e568                MACRegTable
 .data.STAMACRegTable
                0x0017e658       0x18 ./lib/rt3070.a(rtmp_init.o)
                0x0017e658                STAMACRegTable
 .data.CMDHdlrTable
                0x0017e670       0x7c ./lib/rt3070.a(rtusb_io.o)
 .data.EpToQueue
                0x0017e6ec        0x6 ./lib/rt3070.a(rtusb_bulk.o)
                0x0017e6ec                EpToQueue
 .data.FirmwareImage
                0x0017e6f2     0x2000 ./lib/rt3070.a(rtmp_mcu.o)
                0x0017e6f2                FirmwareImage
 .data.TDLS_LLC_SNAP_WITH_CATEGORY
                0x001806f2        0xa ./lib/rt3070.a(tdls.o)
                0x001806f2                TDLS_LLC_SNAP_WITH_CATEGORY
 .data.CipherSuiteTDLSWpa2PskTkip
                0x001806fc       0x16 ./lib/rt3070.a(tdls_link_mng.o)
                0x001806fc                CipherSuiteTDLSWpa2PskTkip
 .data.CipherSuiteTDLSWpa2PskAes
                0x00180712       0x16 ./lib/rt3070.a(tdls_link_mng.o)
                0x00180712                CipherSuiteTDLSWpa2PskAes
 .data.CipherSuiteTDLSLen
                0x00180728        0x1 ./lib/rt3070.a(tdls_link_mng.o)
                0x00180728                CipherSuiteTDLSLen
 .data.TdlsZeroSsid
                0x00180729       0x20 ./lib/rt3070.a(tdls_link_mng.o)
                0x00180729                TdlsZeroSsid
 *fill*         0x00180749        0x3
 .data.Global_pAd
                0x0018074c        0x4 ./lib/rt3070.a(usb_main_dev.o)
                0x0018074c                Global_pAd
 .data.rtusb_driver
                0x00180750       0x30 ./lib/rt3070.a(usb_main_dev.o)
                0x00180750                rtusb_driver
 .data.WSC_MSG_SIGNATURE
                0x00180780        0x9 ./lib/rt3070.a(wsc.o)
                0x00180780                WSC_MSG_SIGNATURE
 .data.WPS_DH_G_VALUE
                0x00180789        0x1 ./lib/rt3070.a(wsc.o)
                0x00180789                WPS_DH_G_VALUE
 .data.WPS_DH_P_VALUE
                0x0018078a       0xc0 ./lib/rt3070.a(wsc.o)
                0x0018078a                WPS_DH_P_VALUE
 .data.STA_Wsc_Pri_Dev_Type
                0x0018084a        0x8 ./lib/rt3070.a(wsc.o)
                0x0018084a                STA_Wsc_Pri_Dev_Type
 *fill*         0x00180852        0x2
 .data.Wsc_Personal_String
                0x00180854       0x25 ./lib/rt3070.a(wsc_tlv.o)
 .data.wsc_tlv_init_done
                0x00180879        0x1 ./lib/rt3070.a(wsc_tlv.o)
 *fill*         0x0018087a        0x2
 .data.wsc_tlv_0b
                0x0018087c      0x194 ./lib/rt3070.a(wsc_tlv.o)
 .data.WirelessInitFailed
                0x00180a10        0x1 ./lib/rt3070.a(wlanif.o)
                0x00180a10                WirelessInitFailed
 .data.mvESSID  0x00180a11       0x21 ./lib/rt3070.a(wlanif.o)
                0x00180a11                mvESSID
 *fill*         0x00180a32        0x2
 .data.mvCRX    0x00180a34        0x4 ./lib/rt3070.a(wlanif.o)
                0x00180a34                mvCRX
 .data.mvCTX    0x00180a38        0x4 ./lib/rt3070.a(wlanif.o)
                0x00180a38                mvCTX
 .data.mvNonModulate
                0x00180a3c        0x4 ./lib/rt3070.a(wlanif.o)
                0x00180a3c                mvNonModulate
 .data.FreqItems3020
                0x00180a40       0x38 ./lib/rt3070.a(cmm_asic.o)
                0x00180a40                FreqItems3020
 .data.NUM_OF_3020_CHNL
                0x00180a78        0x1 ./lib/rt3070.a(cmm_asic.o)
                0x00180a78                NUM_OF_3020_CHNL
 *fill*         0x00180a79        0x3
 .data.Tkip_Sbox_Lower
                0x00180a7c      0x400 ./lib/rt3070.a(cmm_tkip.o)
                0x00180a7c                Tkip_Sbox_Lower
 .data.Tkip_Sbox_Upper
                0x00180e7c      0x400 ./lib/rt3070.a(cmm_tkip.o)
                0x00180e7c                Tkip_Sbox_Upper
 .data.FCSTAB_32
                0x0018127c      0x400 ./lib/rt3070.a(cmm_wep.o)
                0x0018127c                FCSTAB_32
 .data.RT3020_RFRegTable
                0x0018167c       0x4c ./lib/rt3070.a(rt30xx.o)
                0x0018167c                RT3020_RFRegTable
 .data.NUM_RF_3020_REG_PARMS
                0x001816c8        0x1 ./lib/rt3070.a(rt30xx.o)
                0x001816c8                NUM_RF_3020_REG_PARMS
 *fill*         0x001816c9        0x3
 .data.rtusb_dev_id
                0x001816cc      0x53c ./lib/rt3070.a(rtusb_dev_id.o)
                0x001816cc                rtusb_dev_id
 .data.APList   0x00181c08        0x4 ./lib/rt3070.a(sta_ioctl.o)
                0x00181c08                APList
 .data.WPS_DH_P_VALUE
                0x00181c0c       0xc0 ./lib/rt3070.a(crypt_biginteger.o)
 .data.WPS_DH_R_VALUE
                0x00181ccc       0xc1 ./lib/rt3070.a(crypt_biginteger.o)
 .data.WPS_DH_X_VALUE
                0x00181d8d       0xb8 ./lib/rt3070.a(crypt_biginteger.o)
 .data.WPS_DH_RRModP_VALUE
                0x00181e45       0xc0 ./lib/rt3070.a(crypt_biginteger.o)
 .data.Value_0  0x00181f05        0x1 ./lib/rt3070.a(crypt_biginteger.o)
 .data.Value_1  0x00181f06        0x1 ./lib/rt3070.a(crypt_biginteger.o)
 *fill*         0x00181f07        0x1
 .data.pBI_U    0x00181f08        0x4 ./lib/rt3070.a(crypt_biginteger.o)
 .data.pBI_S    0x00181f0c        0x4 ./lib/rt3070.a(crypt_biginteger.o)
 .data.pBI_O    0x00181f10        0x4 ./lib/rt3070.a(crypt_biginteger.o)
 .data.Bits_Of_R
                0x00181f14        0x4 ./lib/rt3070.a(crypt_biginteger.o)
 .data.gServiceList
                0x00181f18        0x4 ./lib/rendezvous.a(Responder.o)
 .data.gServiceID
                0x00181f1c        0x4 ./lib/rendezvous.a(Responder.o)
 .data.emsg     0x00181f20       0x15 ./lib/rendezvous.a(mDNS.o)
 *fill*         0x00181f35        0x3
 .data.seed     0x00181f38        0x4 ./lib/rendezvous.a(mDNS.o)
 .data.num_registered_interfaces
                0x00181f3c        0x4 ./lib/rendezvous.a(mDNSPosix.o)
 .data.num_pkts_accepted
                0x00181f40        0x4 ./lib/rendezvous.a(mDNSPosix.o)
 .data.num_pkts_rejected
                0x00181f44        0x4 ./lib/rendezvous.a(mDNSPosix.o)
 .data.gMDNSPlatformPosixVerboseLevel
                0x00181f48        0x4 ./lib/rendezvous.a(mDNSPosix.o)
                0x00181f48                gMDNSPlatformPosixVerboseLevel
 .data.mDNSPlatformOneSecond
                0x00181f4c        0x4 ./lib/rendezvous.a(mDNSPosix.o)
                0x00181f4c                mDNSPlatformOneSecond
 .data.haldiag_channel0
                0x00181f50       0x8c /cygdrive/C/ZOTDWP2020_SDK_0.01/ecos/ecos_install/lib/extras.o
 .data.haldiag_funs
                0x00181fdc       0x14 /cygdrive/C/ZOTDWP2020_SDK_0.01/ecos/ecos_install/lib/extras.o
 .data.tty_devio
                0x00181ff0       0x10 /cygdrive/C/ZOTDWP2020_SDK_0.01/ecos/ecos_install/lib/extras.o
 .data.cyg_io_serial_callbacks
                0x00182000        0xc /cygdrive/C/ZOTDWP2020_SDK_0.01/ecos/ecos_install/lib/extras.o
                0x00182000                cyg_io_serial_callbacks
 .data.cyg_io_serial_devio
                0x0018200c       0x10 /cygdrive/C/ZOTDWP2020_SDK_0.01/ecos/ecos_install/lib/extras.o
                0x0018200c                cyg_io_serial_devio
 .data._init    0x0018201c        0x4 /cygdrive/C/ZOTDWP2020_SDK_0.01/ecos/ecos_install/lib/extras.o
 .data._10Cyg_Thread.thread_list
                0x00182020        0x4 /cygdrive/C/ZOTDWP2020_SDK_0.01/ecos/ecos_install/lib/libtarget.a(kernel_thread.o)
                0x00182020                Cyg_Thread::thread_list
 .data.next_unique_id
                0x00182024        0x2 /cygdrive/C/ZOTDWP2020_SDK_0.01/ecos/ecos_install/lib/libtarget.a(kernel_thread.o)
 *fill*         0x00182026        0x2
 .data.idle_thread_loops
                0x00182028        0x4 /cygdrive/C/ZOTDWP2020_SDK_0.01/ecos/ecos_install/lib/libtarget.a(kernel_thread.o)
                0x00182028                idle_thread_loops
 .data._13Cyg_Interrupt.disable_counter
                0x0018202c        0x4 /cygdrive/C/ZOTDWP2020_SDK_0.01/ecos/ecos_install/lib/libtarget.a(kernel_intr.o)
                0x0018202c                Cyg_Interrupt::disable_counter
 .data._13Cyg_Interrupt.dsr_list
                0x00182030        0x4 /cygdrive/C/ZOTDWP2020_SDK_0.01/ecos/ecos_install/lib/libtarget.a(kernel_intr.o)
                0x00182030                Cyg_Interrupt::dsr_list
 .data._28Cyg_Scheduler_Implementation.timeslice_count
                0x00182034        0x4 /cygdrive/C/ZOTDWP2020_SDK_0.01/ecos/ecos_install/lib/libtarget.a(kernel_mlqueue.o)
                0x00182034                Cyg_Scheduler_Implementation::timeslice_count
 .data.sched_lock
                0x00182038        0x4 /cygdrive/C/ZOTDWP2020_SDK_0.01/ecos/ecos_install/lib/libtarget.a(kernel_sched.o)
                0x00182038                cyg_scheduler_sched_lock
 .data._18Cyg_Scheduler_Base.current_thread
                0x0018203c        0x4 /cygdrive/C/ZOTDWP2020_SDK_0.01/ecos/ecos_install/lib/libtarget.a(kernel_sched.o)
                0x0018203c                Cyg_Scheduler_Base::current_thread
 .data._18Cyg_Scheduler_Base.need_reschedule
                0x00182040        0x1 /cygdrive/C/ZOTDWP2020_SDK_0.01/ecos/ecos_install/lib/libtarget.a(kernel_sched.o)
                0x00182040                Cyg_Scheduler_Base::need_reschedule
 *fill*         0x00182041        0x3
 .data._18Cyg_Scheduler_Base.thread_switches
                0x00182044        0x4 /cygdrive/C/ZOTDWP2020_SDK_0.01/ecos/ecos_install/lib/libtarget.a(kernel_sched.o)
                0x00182044                Cyg_Scheduler_Base::thread_switches
 .data.errno    0x00182048        0x4 /cygdrive/C/ZOTDWP2020_SDK_0.01/ecos/ecos_install/lib/libtarget.a(language_c_libc_errno.o)
                0x00182048                errno
 .data._20Cyg_libc_stdio_files.files
                0x0018204c       0x20 /cygdrive/C/ZOTDWP2020_SDK_0.01/ecos/ecos_install/lib/libtarget.a(language_c_libc_stdiofiles.o)
                0x0018204c                Cyg_libc_stdio_files::files
 .data.devio_table
                0x0018206c       0x10 /cygdrive/C/ZOTDWP2020_SDK_0.01/ecos/ecos_install/lib/libtarget.a(language_c_libc_vsnprintf.o)
 .data.blanks   0x0018207c       0x10 /cygdrive/C/ZOTDWP2020_SDK_0.01/ecos/ecos_install/lib/libtarget.a(language_c_libc_vfnprintf.o)
 .data.zeroes   0x0018208c       0x10 /cygdrive/C/ZOTDWP2020_SDK_0.01/ecos/ecos_install/lib/libtarget.a(language_c_libc_vfnprintf.o)
 .data.cyg_libc_rand_seed
                0x0018209c        0x4 /cygdrive/C/ZOTDWP2020_SDK_0.01/ecos/ecos_install/lib/libtarget.a(language_c_libc_rand.o)
 .data.cyg_libc_time_day_name
                0x001820a0       0x46 /cygdrive/C/ZOTDWP2020_SDK_0.01/ecos/ecos_install/lib/libtarget.a(language_c_libc_timeutil.o)
                0x001820a0                cyg_libc_time_day_name
 .data.cyg_libc_time_month_name
                0x001820e6       0x78 /cygdrive/C/ZOTDWP2020_SDK_0.01/ecos/ecos_install/lib/libtarget.a(language_c_libc_timeutil.o)
                0x001820e6                cyg_libc_time_month_name
 *fill*         0x0018215e        0x2
 .data.cyg_libc_time_current_dst_stat
                0x00182160        0x4 /cygdrive/C/ZOTDWP2020_SDK_0.01/ecos/ecos_install/lib/libtarget.a(language_c_libc_timeutil.o)
                0x00182160                cyg_libc_time_current_dst_stat
 .data.cyg_libc_time_current_std_offset
                0x00182164        0x4 /cygdrive/C/ZOTDWP2020_SDK_0.01/ecos/ecos_install/lib/libtarget.a(language_c_libc_timeutil.o)
                0x00182164                cyg_libc_time_current_std_offset
 .data.cyg_libc_time_current_dst_offset
                0x00182168        0x4 /cygdrive/C/ZOTDWP2020_SDK_0.01/ecos/ecos_install/lib/libtarget.a(language_c_libc_timeutil.o)
                0x00182168                cyg_libc_time_current_dst_offset
 .data.intc_trigger_table
                0x0018216c      0x100 /cygdrive/C/ZOTDWP2020_SDK_0.01/ecos/ecos_install/lib/libtarget.a(hal_arm_zot716u2_zot716u2_misc.o)
 .data._9Cyg_Clock.real_time_clock
                0x0018226c        0x4 /cygdrive/C/ZOTDWP2020_SDK_0.01/ecos/ecos_install/lib/libtarget.a(kernel_clock.o)
                0x0018226c                Cyg_Clock::real_time_clock
 .data.rtc_resolution
                0x00182270        0x8 /cygdrive/C/ZOTDWP2020_SDK_0.01/ecos/ecos_install/lib/libtarget.a(kernel_clock.o)
                0x00182270                rtc_resolution
 .data          0x00182278       0x10 /tools/H-i686-pc-cygwin/lib/gcc-lib/arm-elf/2.95.2/libgcc.a(_ctors.o)
 *(.data1)
                0x00182288                _GOT1_START_=L(.)
 *(.got1)
                0x00182288                _GOT1_END_=L(.)
                0x00182288                _GOT2_START_=L(.)
 *(.got2)
                0x00182288                _GOT2_END_=L(.)
                0x00182288                .=ALIGN(0x4)
                0x00182288                __DEVTAB__=L(.)
 *(SORT(.devtab*))
 .devtab        0x00182288       0x38 /cygdrive/C/ZOTDWP2020_SDK_0.01/ecos/ecos_install/lib/extras.o
                0x001822a4                haldiag_io0
                0x00182288                tty_io_diag
                0x001822c0                __DEVTAB_END__=L(.)
                0x001822c0                __NETDEVTAB__=L(.)
 *(SORT(.netdevtab*))
                0x001822c0                __NETDEVTAB_END__=L(.)
                0x001822c0                __CTOR_LIST__=L(.)
 *(SORT(.ctors*))
 .ctors.15535   0x001822c0        0x4 /cygdrive/C/ZOTDWP2020_SDK_0.01/ecos/ecos_install/lib/libtarget.a(language_c_libc_stderr.o)
 .ctors.15535   0x001822c4        0x4 /cygdrive/C/ZOTDWP2020_SDK_0.01/ecos/ecos_install/lib/libtarget.a(language_c_libc_stdout.o)
 .ctors.15535   0x001822c8        0x4 /cygdrive/C/ZOTDWP2020_SDK_0.01/ecos/ecos_install/lib/libtarget.a(language_c_libc_malloc.o)
 .ctors.15535   0x001822cc        0x4 /cygdrive/C/ZOTDWP2020_SDK_0.01/ecos/ecos_install/lib/libtarget.a(language_c_libc_stdin.o)
 .ctors.16535   0x001822d0        0x4 /cygdrive/C/ZOTDWP2020_SDK_0.01/ecos/ecos_install/lib/extras.o
 .ctors.50535   0x001822d4        0x4 /cygdrive/C/ZOTDWP2020_SDK_0.01/ecos/ecos_install/lib/libtarget.a(kernel_thread.o)
 .ctors.51535   0x001822d8        0x4 /cygdrive/C/ZOTDWP2020_SDK_0.01/ecos/ecos_install/lib/libtarget.a(devs_wallclock_emulate.o)
 .ctors.51535   0x001822dc        0x4 /cygdrive/C/ZOTDWP2020_SDK_0.01/ecos/ecos_install/lib/libtarget.a(kernel_clock.o)
 .ctors.53535   0x001822e0        0x4 /cygdrive/C/ZOTDWP2020_SDK_0.01/ecos/ecos_install/lib/libtarget.a(kernel_except.o)
 .ctors.54535   0x001822e4        0x4 /cygdrive/C/ZOTDWP2020_SDK_0.01/ecos/ecos_install/lib/libtarget.a(kernel_sched.o)
 .ctors.55435   0x001822e8        0x4 /cygdrive/C/ZOTDWP2020_SDK_0.01/ecos/ecos_install/lib/libtarget.a(infra_diag.o)
                0x001822ec                __CTOR_END__=L(.)
                0x001822ec                __DTOR_LIST__=L(.)
 *(SORT(.dtors*))
 .dtors.15535   0x001822ec        0x4 /cygdrive/C/ZOTDWP2020_SDK_0.01/ecos/ecos_install/lib/libtarget.a(language_c_libc_stderr.o)
 .dtors.15535   0x001822f0        0x4 /cygdrive/C/ZOTDWP2020_SDK_0.01/ecos/ecos_install/lib/libtarget.a(language_c_libc_stdout.o)
 .dtors.15535   0x001822f4        0x4 /cygdrive/C/ZOTDWP2020_SDK_0.01/ecos/ecos_install/lib/libtarget.a(language_c_libc_malloc.o)
 .dtors.15535   0x001822f8        0x4 /cygdrive/C/ZOTDWP2020_SDK_0.01/ecos/ecos_install/lib/libtarget.a(language_c_libc_stdin.o)
 .dtors.50535   0x001822fc        0x4 /cygdrive/C/ZOTDWP2020_SDK_0.01/ecos/ecos_install/lib/libtarget.a(kernel_thread.o)
 .dtors.51535   0x00182300        0x4 /cygdrive/C/ZOTDWP2020_SDK_0.01/ecos/ecos_install/lib/libtarget.a(kernel_clock.o)
                0x00182304                __DTOR_END__=L(.)
 *(.dynamic)
 *(.sdata*)
 *(.sbss*)
                0x00156b74                __rom_data_start=LOADADDR(.data)
                0x00182304                __ram_data_end=.
                0x00182304                PROVIDE (__ram_data_end, .)
                0x00182304                _edata=.
                0x00182304                PROVIDE (edata, .)
                0x00182304                PROVIDE (__rom_data_end, (LOADADDR(.data)+SIZEOF(.data)))

.bss            0x00182304   0x2f1824
                0x00182304                __bss_start=L(.)
 *(.scommon)
 *(.dynbss)
 *(.bss*)
 *fill*         0x00182304        0xc
 .bss           0x00182310     0x1390 /cygdrive/C/ZOTDWP2020_SDK_0.01/ecos/ecos_install/lib/vectors.o
                0x00182490                cyg_interrupt_stack_base
                0x00183490                cyg_interrupt_stack
 .bss           0x001836a0     0x10a0 /cygdrive/C/ZOTDWP2020_SDK_0.01/prod/zotdwp2020/build/obj/zotmain.o
 .bss           0x00184740      0x594 ./lib/mac.a(star_nic.o)
 .bss           0x00184cd4       0x48 ./lib/usb_host.a(usb.o)
 .bss           0x00184d1c     0x10ac ./lib/usb_host.a(hub.o)
 .bss           0x00185dc8       0x18 ./lib/usb_host.a(printer.o)
 .bss           0x00185de0     0x10a0 ./lib/usb_host.a(ehcihcd.o)
 .bss           0x00186e80     0x10ba ./lib/usb_host.a(usbnet.o)
 *fill*         0x00187f3a        0x2
 .bss           0x00187f3c     0x94ac ./lib/psglobal.a(psmain.o)
 .bss           0x001913e8      0x8a0 ./lib/psglobal.a(led.o)
 .bss           0x00191c88     0x41e0 ./lib/psglobal.a(pkdriver.o)
 .bss           0x00195e68      0x8a0 ./lib/psglobal.a(pm.o)
 .bss           0x00196708     0x8408 ./lib/psglobal.a(bridge.o)
 .bss           0x0019eb10    0x1b0fc ./lib/http_zot.a(httpd.o)
 .bss           0x001b9c0c       0x4c ./lib/http_zot.a(gmtime.o)
 .bss           0x001b9c58      0x5f0 ./lib/ipxbeui.a(ipx.o)
 .bss           0x001ba248       0x3c ./lib/ipxbeui.a(netbeui.o)
 .bss           0x001ba284      0x592 ./lib/ntps.a(ntudp.o)
 *fill*         0x001ba816        0x2
 .bss           0x001ba818      0x8a0 ./lib/ntps.a(ntipxbeui.o)
 .bss           0x001bb0b8      0xde0 ./lib/spooler.a(prnport.o)
 .bss           0x001bbe98       0x98 ./lib/spooler.a(prnqueue.o)
 .bss           0x001bbf30       0x20 ./lib/novell.a(nps3.o)
 .bss           0x001bbf50      0x208 ./lib/nds.a(mpilib.o)
 .bss           0x001bc158     0x1140 ./lib/lpd.a(lpd.o)
 .bss           0x001bd298      0x4a0 ./lib/ippd.a(ippd.o)
 .bss           0x001bd738     0x10a0 ./lib/telnet.a(telserv.o)
 .bss           0x001be7d8      0x44c ./lib/tftp_zot.a(tftpd.o)
 .bss           0x001bec24      0x2d0 ./lib/tcpip.a(etharp.o)
 .bss           0x001beef4     0x2148 ./lib/tcpip.a(tcpip.o)
 .bss           0x001c103c     0x1cd4 ./lib/tcpip.a(ip_frag.o)
 .bss           0x001c2d10      0x280 ./lib/tcpip.a(sockets.o)
 .bss           0x001c2f90    0x4001c ./lib/tcpip.a(mem.o)
 .bss           0x00202fac     0x7dec ./lib/tcpip.a(memp.o)
 .bss           0x0020ad98    0x3f200 ./lib/tcpip.a(pbuf.o)
 .bss           0x00249f98        0x1 ./lib/tcpip.a(tcp.o)
 *fill*         0x00249f99        0x3
 .bss           0x00249f9c       0x30 ./lib/tcpip.a(tcp_in.o)
 .bss           0x00249fcc       0x10 ./lib/tcpip.a(inet.o)
 .bss           0x00249fdc     0x28a0 ./lib/tcpip.a(sys_arch.o)
 .bss           0x0024c87c      0x4a0 ./lib/tcpip.a(linklip.o)
 .bss           0x0024cd1c       0x19 ./lib/atalk.a(nbp.o)
 *fill*         0x0024cd35        0x3
 .bss           0x0024cd38     0x63c0 ./lib/atalk.a(papd.o)
 .bss           0x002530f8        0x4 ./lib/atalk.a(socket2.o)
 .bss           0x002530fc     0x1940 ./lib/snmp.a(snmpd.o)
 .bss           0x00254a3c        0x4 ./lib/snmp.a(snmp.o)
 .bss           0x00254a40      0x2c8 ./lib/snmp.a(snmpvars.o)
 .bss           0x00254d08        0x1 ./lib/snmp.a(snmptrap.o)
 *fill*         0x00254d09        0x3
 .bss           0x00254d0c       0x18 ./lib/psutility.a(kmalloc.o)
 .bss           0x00254d24     0x20a0 ./lib/rt3070.a(rt3070_dep.o)
 .bss           0x00256dc4     0x5280 ./lib/rt3070.a(rt_usb.o)
 .bss           0x0025c044     0x20a0 ./lib/rt3070.a(usb_main_dev.o)
 .bss           0x0025e0e4     0x10a0 ./lib/rt3070.a(wsc.o)
 .bss           0x0025f184        0x4 ./lib/rt3070.a(ba_action.o)
 .bss           0x0025f188     0xbd94 ./lib/rendezvous.a(Responder.o)
 .bss           0x0026af1c       0x1c ./lib/rendezvous.a(mDNS.o)
 .bss           0x0026af38       0x14 /cygdrive/C/ZOTDWP2020_SDK_0.01/ecos/ecos_install/lib/extras.o
 .bss           0x0026af4c      0x89d /cygdrive/C/ZOTDWP2020_SDK_0.01/ecos/ecos_install/lib/libtarget.a(kernel_thread.o)
                0x0026af4c                idle_thread
 *fill*         0x0026b7e9        0x3
 .bss           0x0026b7ec        0x8 /cygdrive/C/ZOTDWP2020_SDK_0.01/ecos/ecos_install/lib/libtarget.a(kernel_except.o)
                0x0026b7ec                Cyg_Thread::exception_control
 .bss           0x0026b7f4       0x88 /cygdrive/C/ZOTDWP2020_SDK_0.01/ecos/ecos_install/lib/libtarget.a(kernel_sched.o)
                0x0026b7f4                Cyg_Scheduler::scheduler
 .bss           0x0026b87c       0x18 /cygdrive/C/ZOTDWP2020_SDK_0.01/ecos/ecos_install/lib/libtarget.a(language_c_libc_stderr.o)
                0x0026b87c                cyg_libc_stdio_stderr
 .bss           0x0026b894       0x18 /cygdrive/C/ZOTDWP2020_SDK_0.01/ecos/ecos_install/lib/libtarget.a(language_c_libc_stdout.o)
                0x0026b894                cyg_libc_stdio_stdout
 .bss           0x0026b8ac   0x20002c /cygdrive/C/ZOTDWP2020_SDK_0.01/ecos/ecos_install/lib/libtarget.a(language_c_libc_malloc.o)
                0x0026b8d8                cyg_libc_malloc_memorypool
 .bss           0x0046b8d8        0x4 /cygdrive/C/ZOTDWP2020_SDK_0.01/ecos/ecos_install/lib/libtarget.a(language_c_libc_strtok.o)
 .bss           0x0046b8dc       0x24 /cygdrive/C/ZOTDWP2020_SDK_0.01/ecos/ecos_install/lib/libtarget.a(language_c_libc_localtime.o)
                0x0046b8dc                cyg_libc_time_localtime_buf
 .bss           0x0046b900       0x10 /cygdrive/C/ZOTDWP2020_SDK_0.01/ecos/ecos_install/lib/libtarget.a(devs_wallclock_emulate.o)
 .bss           0x0046b910        0x8 /cygdrive/C/ZOTDWP2020_SDK_0.01/ecos/ecos_install/lib/libtarget.a(hal_arm_zot716u2_zot716u2_misc.o)
 .bss           0x0046b918       0x34 /cygdrive/C/ZOTDWP2020_SDK_0.01/ecos/ecos_install/lib/libtarget.a(kernel_clock.o)
                0x0046b918                Cyg_RealTimeClock::rtc
 .bss           0x0046b94c       0x18 /cygdrive/C/ZOTDWP2020_SDK_0.01/ecos/ecos_install/lib/libtarget.a(language_c_libc_stdin.o)
                0x0046b94c                cyg_libc_stdio_stdin
 .bss           0x0046b964       0x1a /cygdrive/C/ZOTDWP2020_SDK_0.01/ecos/ecos_install/lib/libtarget.a(language_c_libc_asctime.o)
                0x0046b964                cyg_libc_time_asctime_buf
 *(COMMON)
 *fill*         0x0046b97e        0x2
 COMMON         0x0046b980       0xac ./lib/mac.a(star_nic.o)
                                  0x0 (size before relaxing)
                0x0046b980                MAC_RXQF_interrupt
                0x0046b9a0                MAC_STATE_interrupt
                0x0046b9bc                MAC_RXQF_interrupt_handle
                0x0046b9c0                STAR_PRIV
                0x0046b9c4                MAC_STATE_interrupt_handle
                0x0046b9d0                PHY_timerAlarm
                0x0046ba00                MAC_RXRC_interrupt
                0x0046ba1c                MAC_RXRC_interrupt_handle
                0x0046ba20                PHY_Counter
                0x0046ba24                PHY_SysClk
                0x0046ba28                PHY_Alarm
 *fill*         0x0046ba2c        0x4
 COMMON         0x0046ba30        0x8 ./lib/usb_host.a(usb.o)
                                  0x0 (size before relaxing)
                0x0046ba30                urb_sem
 COMMON         0x0046ba38       0x18 ./lib/usb_host.a(hub.o)
                                  0x0 (size before relaxing)
                0x0046ba38                hub_event_lock
                0x0046ba48                khubd_wait
 COMMON         0x0046ba50       0x18 ./lib/usb_host.a(ehcihcd.o)
                                  0x0 (size before relaxing)
                0x0046ba50                ehci_tasklet_mt
                0x0046ba60                ehci_tasklet_sem
 *fill*         0x0046ba68        0x8
 COMMON         0x0046ba70       0x84 ./lib/usb_host.a(u2hcd.o)
                                  0x0 (size before relaxing)
                0x0046ba70                hcd_list_lock
                0x0046ba7c                GLOBAL_DRIVER
                0x0046ba80                USB_EHCI_interrupt
                0x0046ba9c                RH_SysClk
                0x0046baa0                GLOBAL_HCD
                0x0046baa4                RH_Counter
                0x0046baa8                GLOBAL_EHCI_RH_URB
                0x0046baac                USB_EHCI_interrupt_handle
                0x0046bab0                hcd_data_lock
                0x0046babc                RH_Alarm
                0x0046bac0                hcd_free_lock
                0x0046bad0                RH_timerAlarm
 *fill*         0x0046baf4        0xc
 COMMON         0x0046bb00       0x6c ./lib/usb_host.a(ohci.o)
                                  0x0 (size before relaxing)
                0x0046bb00                USB_OHCI_interrupt
                0x0046bb1c                GLOBAL_OHCI
                0x0046bb20                GLOBAL_OHCI_RH_URB
                0x0046bb24                ORH_Alarm
                0x0046bb30                ORH_timerAlarm
                0x0046bb54                ORH_Counter
                0x0046bb58                usb_ed_lock
                0x0046bb64                USB_OHCI_interrupt_handle
                0x0046bb68                ORH_SysClk
 *fill*         0x0046bb6c        0x4
 COMMON         0x0046bb70       0x68 ./lib/usb_host.a(usbnet.o)
                                  0x0 (size before relaxing)
                0x0046bb70                ULANMAC
                0x0046bb80                ether
                0x0046bb90                Ifaces
                0x0046bba0                usbnet_driver
                0x0046bbd0                USB_INPUT_SEM
 COMMON         0x0046bbd8        0x4 ./lib/psglobal.a(psmain.o)
                                  0x0 (size before relaxing)
                0x0046bbd8                ZIP_WAIT
 *fill*         0x0046bbdc        0x4
 COMMON         0x0046bbe0     0x1710 ./lib/psglobal.a(eeprom.o)
                                  0x0 (size before relaxing)
                0x0046bbe0                QC0_Defualt_EEPROM
                0x0046c160                OffsetOfFSName
                0x0046c1e0                CurSetupPassword
                0x0046c1f0                mvRENVServiceName
                0x0046c230                EEPROM_Data
                0x0046c7b0                mvRENVEnable
                0x0046c7b8                MyPhysNodeAddress
                0x0046c7c0                mvATPortName
                0x0046c7d0                PSMode2
                0x0046c7d4                PSMode
                0x0046c7e0                DEFAULT_Data
                0x0046cd60                NTMaxRecvPacket
                0x0046cd64                mvAPPTLKEn
                0x0046cd68                PollingTime
                0x0046cd70                EEPROM_Data_temp
 COMMON         0x0046d2f0        0xc ./lib/psglobal.a(led.o)
                                  0x0 (size before relaxing)
                0x0046d2f0                LEDErrorCode
                0x0046d2f4                CurLEDvalue
                0x0046d2f8                WirelessLightToggle
 *fill*         0x0046d2fc        0x4
 COMMON         0x0046d300       0x4c ./lib/psglobal.a(pkdriver.o)
                                  0x0 (size before relaxing)
                0x0046d300                usb_usb_send
                0x0046d308                mib_DHCP
                0x0046d314                mib_DHCP_p
                0x0046d318                Process_OthPkt_handle
                0x0046d31c                MyIntNO
                0x0046d320                IPXENIIRecv
                0x0046d324                IPX8022Recv
                0x0046d328                IPX8023Recv
                0x0046d330                WLan_TX_lock
                0x0046d33c                Process_OthPkt_mbox
                0x0046d340                wlan_tx_sem
                0x0046d348                IPXSNAPRecv
 COMMON         0x0046d34c       0x10 ./lib/psglobal.a(io.o)
                                  0x0 (size before relaxing)
                0x0046d34c                PLL_clock
                0x0046d350                CPU_clock
                0x0046d354                APB_clock
                0x0046d358                AHB_clock
 *fill*         0x0046d35c        0x4
 COMMON         0x0046d360       0x1c ./lib/psglobal.a(bridge.o)
                                  0x0 (size before relaxing)
                0x0046d360                bdg_addresses
                0x0046d378                bdg_ports
 *fill*         0x0046d37c        0x4
 COMMON         0x0046d380      0x13c ./lib/http_zot.a(httpd.o)
                                  0x0 (size before relaxing)
                0x0046d380                AuthFileList
                0x0046d388                Httpd_sem
                0x0046d390                HttpNeedReboot
                0x0046d394                ippJobsNo
                0x0046d398                HttpNeedWriteEEPROM
                0x0046d3a0                at_iface
                0x0046d3d0                HttpStartTime
                0x0046d3d4                Cgi_Error
                0x0046d3d8                ippObjList
                0x0046d3dc                AuthSeed
                0x0046d3e0                mvWEPKey
                0x0046d400                HttpNeedReset
                0x0046d410                WebMsg
                0x0046d48c                HttpNeedLoadDefault
                0x0046d490                CGI_Msg
 COMMON         0x0046d4bc        0x4 ./lib/http_zot.a(pfs.o)
                                  0x0 (size before relaxing)
                0x0046d4bc                pDirList
 COMMON         0x0046d4c0       0x88 ./lib/ipxbeui.a(ipx.o)
                                  0x0 (size before relaxing)
                0x0046d4c0                MyNetworkAddress
                0x0046d4c4                socketTablePointer
                0x0046d4d0                socketTable
 COMMON         0x0046d548        0x4 ./lib/ipxbeui.a(netbeui.o)
                                  0x0 (size before relaxing)
                0x0046d548                IPXSocketErr
 *fill*         0x0046d54c        0x4
 COMMON         0x0046d550       0x70 ./lib/ntps.a(ntps.o)
                                  0x0 (size before relaxing)
                0x0046d550                NTimeOutRetryCount
                0x0046d558                NT_SIGNAL_PORT_1
                0x0046d560                NTPortInfo
                0x0046d5b4                NTimeOutCount
                0x0046d5b8                IsNTEndPrint
                0x0046d5bc                NTHoldTimer
 COMMON         0x0046d5c0      0x614 ./lib/ntps.a(ntudp.o)
                                  0x0 (size before relaxing)
                0x0046d5c0                printsock
                0x0046d5d0                rec_buffer_udp
                0x0046dbcc                peer_socket
                0x0046dbd0                util_socket
 *fill*         0x0046dbd4        0xc
 COMMON         0x0046dbe0     0x264c ./lib/ntps.a(ntipxbeui.o)
                                  0x0 (size before relaxing)
                0x0046dbe0                SIGNAL_IPX_UPGRADE_DATA
                0x0046dbe8                NTSendQueryAckData
                0x0046dbf4                IPXBlockErr
                0x0046dbf8                SIGNAL_IPX_UPGRADE_FINISH
                0x0046dc00                SendUtilUpgradeECB
                0x0046dc40                RecvUtilUpgradeECB
                0x0046dc78                IPXTimeOut
                0x0046dc80                SendUtilUpgradeData
                0x0046e090                rec_buffer_ipx
                0x0046f118                IPXUSOCK
                0x0046f130                RecvUtilUpgradeIPXHeader
                0x0046f150                ReceiveUtilIPXHeader
                0x0046f170                NTSendPsIPXHeader
                0x0046f190                ReceiveUtilECB
                0x0046f1d0                RecvUtilUpgradeData
                0x0046f5e0                SendUtilData
                0x0046fb70                SendUtilUpgradeIPXHeader
                0x0046fb90                TotalUpgradeBlock
                0x0046fba0                SendUtilECB
                0x0046fbe0                ReceiveUtilData
                0x00470170                SendUtilIPXHeader
                0x00470190                NTReceivePsECB
                0x004701d0                NTReceivePsIPXHeader
                0x004701f0                NTSendPsECB
                0x00470228                IPXPktErr
 *fill*         0x0047022c        0x4
 COMMON         0x00470230       0x44 ./lib/spooler.a(prnport.o)
                                  0x0 (size before relaxing)
                0x00470230                G_PortReady
                0x00470238                SP_SIGNAL_PORT_1
                0x00470240                PortIO
 *fill*         0x00470274        0xc
 COMMON         0x00470280      0xeec ./lib/novell.a(nps3.o)
                                  0x0 (size before relaxing)
                0x00470280                ReceiveWDogECB
                0x004702b8                IntoNPS3main
                0x004702c0                SendPsECB
                0x00470300                SendWDogECB
                0x00470340                ReceivePsIPXData
                0x0047091c                NovellConnectFlag
                0x00470920                ReceivePsECB
                0x00470960                ReceivePsIPXHeader
                0x00470980                SendWDogData
                0x00470984                BinderyObjectID
                0x00470990                SendPsIPXHeader
                0x004709b0                ReadByte
                0x004709c0                ReceiveWDogIPXHeader
                0x004709e0                PrintQueueName
                0x00470a10                ServiceFSCount
                0x00470a20                SendWDogIPXHeader
                0x00470a40                SendSAPECB
                0x00470a78                ReceiveNCPData
                0x00470a7c                FSInfoBlock
                0x00470a80                ReceiveSAPECB
                0x00470ab8                ReceiveWDogData
                0x00470abc                SendNCPSubData
                0x00470ac0                SendSAPIPXData
                0x00470b04                bNoActiveFSInfo
                0x00470b10                SAPName
                0x00470b20                SendPsIPXData
                0x004710fc                CSIP
                0x00471100                PrintData
                0x00471108                PortInfo
                0x00471120                SendSAPIPXHeader
                0x00471140                HttpdUsed
                0x00471144                CurrentFrameType
                0x00471148                SendNCPData
                0x0047114c                CurServicePort
                0x00471150                LoginKeyID
                0x00471158                ReceiveNCPSubData
                0x0047115c                StartByteOffset
                0x00471160                LPTPort
                0x00471164                IntoAttachFS
                0x00471168                status
 COMMON         0x0047116c        0xc ./lib/nds.a(ndsqueue.o)
                                  0x0 (size before relaxing)
                0x0047116c                NDSFSInfo
                0x00471170                NDSbNoActiveFSInfo
                0x00471174                NDSPCBInfo
 *fill*         0x00471178        0x8
 COMMON         0x00471180       0x70 ./lib/nds.a(ndsmain.o)
                                  0x0 (size before relaxing)
                0x00471180                NDSReceiveWDogIPXHeader
                0x004711a0                NDSReceiveWDogData
                0x004711b0                NDSReceiveWDogECB
                0x004711e8                SendNDSData
                0x004711ec                NDStatus
 COMMON         0x004711f0        0x4 ./lib/nds.a(mpilib.o)
                                  0x0 (size before relaxing)
                0x004711f0                munit_prec
 *fill*         0x004711f4        0xc
 COMMON         0x00471200       0x58 ./lib/lpd.a(lpd.o)
                                  0x0 (size before relaxing)
                0x00471200                CurJobQueueID
                0x00471210                LPD
 COMMON         0x00471258        0x8 ./lib/ippd.a(ippd.o)
                                  0x0 (size before relaxing)
                0x00471258                ippJobID
                0x0047125c                ippProcessOn
 COMMON         0x00471260      0x594 ./lib/telnet.a(telserv.o)
                                  0x0 (size before relaxing)
                0x00471260                ModifyConfigFlag
                0x00471264                CurrentIP
                0x00471270                TELNET_EEPROM_Data
                0x004717f0                ServiceFSCountInTelnet
 *fill*         0x004717f4        0xc
 COMMON         0x00471800       0x88 ./lib/telnet.a(telutil.o)
                                  0x0 (size before relaxing)
                0x00471800                OffsetOfFSNameInTelnet
                0x00471880                MenuIndex
                0x00471884                MenuSel
 *fill*         0x00471888        0x8
 COMMON         0x00471890       0x3c ./lib/tcpip.a(etharp.o)
                                  0x0 (size before relaxing)
                0x00471890                mRENVEnable
                0x00471894                hCounter
                0x00471898                hAlarm
                0x004718a0                timerAlarm
                0x004718c4                hSysClk
                0x004718c8                alarmData
 *fill*         0x004718cc        0x4
 COMMON         0x004718d0       0x10 ./lib/tcpip.a(tcpip.o)
                                  0x0 (size before relaxing)
                0x004718d0                dhcp_sem
                0x004718d8                Lanface
                0x004718dc                Network_TCPIP_ON
 COMMON         0x004718e0      0x184 ./lib/tcpip.a(stats.o)
                                  0x0 (size before relaxing)
                0x004718e0                lwip_stats
 COMMON         0x00471a64       0x14 ./lib/tcpip.a(tcp.o)
                                  0x0 (size before relaxing)
                0x00471a64                tcp_active_pcbs
                0x00471a68                tcp_ticks
                0x00471a6c                tcp_listen_pcbs
                0x00471a70                tcp_tmp_pcb
                0x00471a74                tcp_tw_pcbs
 COMMON         0x00471a78        0x4 ./lib/tcpip.a(tcp_in.o)
                                  0x0 (size before relaxing)
                0x00471a78                tcp_input_pcb
 *fill*         0x00471a7c        0x4
 COMMON         0x00471a80       0x24 ./lib/tcpip.a(dhcp.o)
                                  0x0 (size before relaxing)
                0x00471a80                DHCP_Rebew_or_Rebind_Alarm
 *fill*         0x00471aa4        0x4
 COMMON         0x00471aa8       0x28 ./lib/tcpip.a(linklip.o)
                                  0x0 (size before relaxing)
                0x00471aa8                rendezvous_sem
                0x00471ab0                LinkLocal_state
                0x00471ab8                linklocal_conflict
                0x00471ac0                DhcpWaitLinklocal_sem
                0x00471ac8                linklocal_sem
 COMMON         0x00471ad0     0x1810 ./lib/atalk.a(ddp.o)
                                  0x0 (size before relaxing)
                0x00471ad0                recv_ddp_buffer
                0x004722d0                Ddps
                0x004722e0                ddp_input_buffer
                0x00472ae0                send_ddp_buffer
 COMMON         0x004732e0        0x8 ./lib/atalk.a(aarp.o)
                                  0x0 (size before relaxing)
                0x004732e0                SEM_AARP_PROBE
 *fill*         0x004732e8        0x8
 COMMON         0x004732f0      0x24c ./lib/atalk.a(aep.o)
                                  0x0 (size before relaxing)
                0x004732f0                aep_packet
 *fill*         0x0047353c        0x4
 COMMON         0x00473540       0x70 ./lib/atalk.a(nbp.o)
                                  0x0 (size before relaxing)
                0x00473540                tmp_obj
                0x00473560                tmp_zone
                0x00473580                tmp_type
                0x004735a0                zlen
                0x004735a4                nbp_used
                0x004735a8                tlen
                0x004735ac                olen
 COMMON         0x004735b0       0x58 ./lib/atalk.a(papd.o)
                                  0x0 (size before relaxing)
                0x004735b0                rbuf
                0x004735e0                pr
                0x00473600                ATALK_SIGNAL_NO_1
 COMMON         0x00473608        0x4 ./lib/atalk.a(comment.o)
                                  0x0 (size before relaxing)
                0x00473608                comstate
 COMMON         0x0047360c        0x4 ./lib/atalk.a(paprint.o)
                                  0x0 (size before relaxing)
                0x0047360c                xBCP_escaped
 COMMON         0x00473610       0x70 ./lib/snmp.a(snmpaget.o)
                                  0x0 (size before relaxing)
                0x00473610                community
                0x00473664                packet_end
                0x00473670                SnmpCommunityAuth
 COMMON         0x00473680       0x74 ./lib/snmp.a(snmpvars.o)
                                  0x0 (size before relaxing)
                0x00473680                snmp_inreadonlys
                0x00473684                snmp_inbadvalues
                0x00473688                mib_ifOutErrors
                0x0047368c                snmp_ingenerrs
                0x00473690                mib_ifInUnknowProtos
                0x00473694                snmp_insetrequests
                0x00473698                snmp_ingetrequests
                0x0047369c                snmp_outpkts
                0x004736a0                snmp_outsetrequests
                0x004736a4                mib_ifOutQLen
                0x004736a8                mib_ifOutOctets
                0x004736ac                snmp_ingetnexts
                0x004736b0                snmp_intotalreqvars
                0x004736b4                snmp_inbadcommunitynames
                0x004736b8                snmp_inpkts
                0x004736bc                mib_ifOutUcastPkts
                0x004736c0                snmp_outgetrequests
                0x004736c4                snmp_outgetnexts
                0x004736c8                snmp_intoobigs
                0x004736cc                mib_ifInNucastPkts
                0x004736d0                snmp_outnosuchnames
                0x004736d4                snmp_outgetresponses
                0x004736d8                mib_ifInDiscards
                0x004736dc                mib_ifOutNucastPkts
                0x004736e0                mib_ifInUcastPkts
                0x004736e4                mib_ifInOctets
                0x004736e8                snmp_outtraps
                0x004736ec                snmp_inbadversions
                0x004736f0                snmp_inasnparseerrors
 *fill*         0x004736f4        0x4
 COMMON         0x004736f8        0x8 ./lib/psutility.a(alert.o)
                                  0x0 (size before relaxing)
                0x004736f8                alertSignal
 COMMON         0x00473700       0x90 ./lib/psutility.a(kmalloc.o)
                                  0x0 (size before relaxing)
                0x00473700                kmini_Availmem
                0x00473704                kAvailmem
                0x00473710                _kFarHeap
 COMMON         0x00473790       0xb0 ./lib/uart.a(serial.o)
                                  0x0 (size before relaxing)
                0x00473790                sem_printf
                0x00473798                debug_queue
                0x004737a0                print_task
                0x0047383c                print_task_handle
 COMMON         0x00473840       0x1c ./lib/rt3070.a(rt3070_dep.o)
                                  0x0 (size before relaxing)
                0x00473840                zot_timer_mt
                0x00473850                WLan_queue_lock
 COMMON         0x0047385c        0x4 ./lib/rt3070.a(cmm_profile.o)
                                  0x0 (size before relaxing)
                0x0047385c                __rstrtok
 COMMON         0x00473860        0x4 ./lib/rt3070.a(connect.o)
                                  0x0 (size before relaxing)
                0x00473860                Global_wpa_state
 *fill*         0x00473864        0x4
 COMMON         0x00473868       0x30 ./lib/rt3070.a(rt_usb.o)
                                  0x0 (size before relaxing)
                0x00473868                rRtmpTimerQThread
                0x00473870                lockRxURB
                0x00473880                rMlmeThread
                0x00473888                rRTUSBCmdThread
                0x00473890                rRTUSBBulkRxThread
 COMMON         0x00473898        0x8 ./lib/rt3070.a(wsc.o)
                                  0x0 (size before relaxing)
                0x00473898                WSCThread
 COMMON         0x004738a0      0x16c ./lib/rt3070.a(wlanif.o)
                                  0x0 (size before relaxing)
                0x004738a0                mvAuthenticationType
                0x004738a4                mvRTSThreshold
                0x004738a8                mvWPAType
                0x004738b0                mvWEPKey2
                0x004738b8                mvTxMode
                0x004738bc                mvConfigMode
                0x004738c0                mvWEPKey3
                0x004738c8                mvWEPType
                0x004738cc                mvDtiminterval
                0x004738d0                mvCfpperiod
                0x004738e0                mvWEP128Key3
                0x004738f0                mvRate
                0x004738f4                mvTxPower
                0x004738f8                mvEDDMAC
                0x00473900                mvWZone
                0x00473904                mvChannel_start
                0x00473908                mvWEPKey1
                0x00473910                mvWEP128Key2
                0x00473920                ZRegDomain
                0x00473930                mvWEP128Key
                0x00473940                mvExtRate
                0x00473944                mvBeaconinterval
                0x00473948                mvWEPKey4
                0x00473950                mvWPAPass
                0x00473994                mvDataRate
                0x00473998                mvShortPreamble
                0x004739a0                mvFirmwareVersion
                0x004739b0                mvWEPKeySel
                0x004739c0                mvWEP128Key4
                0x004739d0                mvChannel
                0x004739d4                mvCfpmaxduration
                0x004739d8                mvWEPManual
                0x004739dc                mvChannel_end
                0x004739e0                mvRates
                0x004739e4                mvJapan
                0x004739e8                mvAn_side
                0x004739ec                diag_flag
                0x004739f0                mvWPAauth
                0x004739f8                mvWirelessMAC
                0x00473a00                mvFragmentation
                0x00473a04                mvBSSType
                0x00473a08                mvBandWidth
 *fill*         0x00473a0c        0x4
 COMMON         0x00473a10      0x114 ./lib/rendezvous.a(Responder.o)
                                  0x0 (size before relaxing)
                0x00473a10                AssociatedFlag
                0x00473a14                infList
                0x00473a18                ether_port_down
                0x00473a20                rawText
                0x00473b20                rendezvous_TaskHdl
 COMMON         0x00473b24        0x4 /cygdrive/C/ZOTDWP2020_SDK_0.01/ecos/ecos_install/lib/libtarget.a(devs_wallclock_emulate.o)
                                  0x0 (size before relaxing)
                0x00473b24                Cyg_WallClock::wallclock
                0x00473b28                __bss_end=L(.)
                0x00473b28                .=ALIGN(0x4)
                0x00473b28                _end=.
                0x00473b28                PROVIDE (end, .)
OUTPUT(zotdwp2020.axf elf32-littlearm)
